 NvCloth_x64

 Timestamp is 5c055fa1 (Mon Dec  3 16:53:53 2018)

 Preferred load address is 0000000180000000

 Start         Length     Name                   Class
 0001:00000000 00000140H .text$di                CODE
 0001:00000140 000b44f0H .text$mn                CODE
 0001:000b4630 00000020H .text$mn$00             CODE
 0001:000b4650 000007a4H .text$x                 CODE
 0002:00000000 000002a8H .idata$5                DATA
 0002:000002a8 00000010H .00cfg                  DATA
 0002:000002b8 00000008H .CRT$XCA                DATA
 0002:000002c0 00000068H .CRT$XCU                DATA
 0002:00000328 00000008H .CRT$XCZ                DATA
 0002:00000330 00000008H .CRT$XIA                DATA
 0002:00000338 00000018H .CRT$XIC                DATA
 0002:00000350 00000008H .CRT$XIZ                DATA
 0002:00000358 00000008H .CRT$XPA                DATA
 0002:00000360 00000010H .CRT$XPX                DATA
 0002:00000370 00000008H .CRT$XPXA               DATA
 0002:00000378 00000008H .CRT$XPZ                DATA
 0002:00000380 00000008H .CRT$XTA                DATA
 0002:00000388 00000018H .CRT$XTZ                DATA
 0002:000003a0 00032ac8H .rdata                  DATA
 0002:00032e68 0000056cH .rdata$r                DATA
 0002:000333d4 000003f4H .rdata$zzzdbg           DATA
 0002:000337c8 00000008H .rtc$IAA                DATA
 0002:000337d0 00000008H .rtc$IZZ                DATA
 0002:000337d8 00000008H .rtc$TAA                DATA
 0002:000337e0 00000008H .rtc$TZZ                DATA
 0002:000337e8 0000be48H .xdata                  DATA
 0002:0003f630 0000014cH .xdata$x                DATA
 0002:0003f77c 00000040H .didat$2                DATA
 0002:0003f7bc 00000024H .didat$3                DATA
 0002:0003f7e0 000000e0H .didat$4                DATA
 0002:0003f8c0 00000290H .didat$6                DATA
 0002:0003fb50 000000e0H .didat$7                DATA
 0002:0003fc30 000005a0H .edata                  DATA
 0002:000401d0 00000014H .idata$2                DATA
 0002:000401e4 00000014H .idata$3                DATA
 0002:000401f8 000002a8H .idata$4                DATA
 0002:000404a0 00000646H .idata$6                DATA
 0003:00000000 00447910H .data                   DATA
 0003:00447910 00000198H .data$r                 DATA
 0003:00447aa8 000000f8H .didat$5                DATA
 0003:00447ba0 00001cc0H .bss                    DATA
 0004:00000000 00009330H .pdata                  DATA
 0005:00000000 00000198H .gfids$y                DATA
 0006:00000000 00000060H .rsrc$01                DATA
 0006:00000060 00000180H .rsrc$02                DATA

  Address         Publics by Value              Rva+Base               Lib:Object

 0000:00000000       __guard_longjmp_table      0000000000000000     <absolute>
 0000:00000000       __guard_iat_count          0000000000000000     <absolute>
 0000:00000000       __guard_longjmp_count      0000000000000000     <absolute>
 0000:00000000       __guard_iat_table          0000000000000000     <absolute>
 0000:00000000       __dynamic_value_reloc_table 0000000000000000     <absolute>
 0000:00000000       ___safe_se_handler_table   0000000000000000     <absolute>
 0000:00000000       ___safe_se_handler_count   0000000000000000     <absolute>
 0000:00000000       __guard_fids_table         0000000000000000     <absolute>
 0000:00000000       __guard_fids_count         0000000000000000     <absolute>
 0000:00000100       __guard_flags              0000000000000100     <absolute>
 0000:00000000       __ImageBase                0000000180000000     <linker-defined>
 0001:00000140       ?selectMin@intrinsics@physx@@YAMMM@Z 0000000180001140 f i CuCloth.obj
 0001:00000150       ?selectMax@intrinsics@physx@@YAMMM@Z 0000000180001150 f i CuCloth.obj
 0001:00000160       ??2@YAPEAX_KPEAX@Z         0000000180001160 f i CuCloth.obj
 0001:00000170       ??0NonTrackingAllocator@cloth@nv@@QEAA@PEBD@Z 0000000180001170 f i CuCloth.obj
 0001:00000180       ?allocate@NonTrackingAllocator@cloth@nv@@QEAAPEAX_KPEBDH@Z 0000000180001180 f i CuCloth.obj
 0001:000001c0       ?deallocate@NonTrackingAllocator@cloth@nv@@QEAAXPEAX@Z 00000001800011c0 f i CuCloth.obj
 0001:000001e0       ??3UserAllocated@cloth@nv@@SAXPEAX@Z 00000001800011e0 f i CuCloth.obj
 0001:00000200       ??0MovingAverage@cloth@nv@@QEAA@I@Z 0000000180001200 f i CuCloth.obj
 0001:00000250       ??4MovingAverage@cloth@nv@@QEAAAEAU012@AEBU012@@Z 0000000180001250 f i CuCloth.obj
 0001:000002e0       ??1MovingAverage@cloth@nv@@QEAA@XZ 00000001800012e0 f i CuCloth.obj
 0001:00000300       ?size@MovingAverage@cloth@nv@@QEBAIXZ 0000000180001300 f i CuCloth.obj
 0001:00000310       ?resize@MovingAverage@cloth@nv@@QEAAXI@Z 0000000180001310 f i CuCloth.obj
 0001:00000450       ?reset@MovingAverage@cloth@nv@@QEAAXXZ 0000000180001450 f i CuCloth.obj
 0001:00000460       ??0Simd4fScalarFactory@cloth@nv@@QEAA@AEBM@Z 0000000180001460 f i CuCloth.obj
 0001:00000470       ??0Simd4fTupleFactory@cloth@nv@@QEAA@IIII@Z 0000000180001470 f i CuCloth.obj
 0001:00000490       ?simd4f@cloth@nv@@YA?AUSimd4fScalarFactory@12@AEBM@Z 0000000180001490 f i CuCloth.obj
 0001:000004a0       ??0Simd4iScalarFactory@cloth@nv@@QEAA@AEBH@Z 00000001800014a0 f i CuCloth.obj
 0001:000004b0       ?simd4i@cloth@nv@@YA?AUSimd4iScalarFactory@12@AEBH@Z 00000001800014b0 f i CuCloth.obj
 0001:000004c0       ??$PxMax@M@physx@@YAMMM@Z  00000001800014c0 f i CuCloth.obj
 0001:000004d0       ??$PxMin@M@physx@@YAMMM@Z  00000001800014d0 f i CuCloth.obj
 0001:000004e0       ??0PxVec3@physx@@QEAA@XZ   00000001800014e0 f i CuCloth.obj
 0001:000004f0       ??0PxVec3@physx@@QEAA@W4PxZERO@1@@Z 00000001800014f0 f i CuCloth.obj
 0001:00000500       ??0PxVec3@physx@@QEAA@M@Z  0000000180001500 f i CuCloth.obj
 0001:00000520       ??0PxVec3@physx@@QEAA@MMM@Z 0000000180001520 f i CuCloth.obj
 0001:00000540       ??0PxVec3@physx@@QEAA@AEBV01@@Z 0000000180001540 f i CuCloth.obj
 0001:00000560       ??4PxVec3@physx@@QEAAAEAV01@AEBV01@@Z 0000000180001560 f i CuCloth.obj
 0001:00000580       ??8PxVec3@physx@@QEBA_NAEBV01@@Z 0000000180001580 f i CuCloth.obj
 0001:000005b0       ?magnitudeSquared@PxVec3@physx@@QEBAMXZ 00000001800015b0 f i CuCloth.obj
 0001:000005e0       ??GPxVec3@physx@@QEBA?AV01@AEBV01@@Z 00000001800015e0 f i CuCloth.obj
 0001:00000620       ??YPxVec3@physx@@QEAAAEAV01@AEBV01@@Z 0000000180001620 f i CuCloth.obj
 0001:00000650       ??0PxVec4@physx@@QEAA@XZ   0000000180001650 f i CuCloth.obj
 0001:00000660       ??0PxVec4@physx@@QEAA@M@Z  0000000180001660 f i CuCloth.obj
 0001:00000670       ??0PxVec4@physx@@QEAA@MMMM@Z 0000000180001670 f i CuCloth.obj
 0001:00000690       ??0PxVec4@physx@@QEAA@AEBV01@@Z 0000000180001690 f i CuCloth.obj
 0001:000006b0       ??4PxVec4@physx@@QEAAAEAV01@AEBV01@@Z 00000001800016b0 f i CuCloth.obj
 0001:000006d0       ??GPxVec4@physx@@QEBA?AV01@XZ 00000001800016d0 f i CuCloth.obj
 0001:000006f0       ??HPxVec4@physx@@QEBA?AV01@AEBV01@@Z 00000001800016f0 f i CuCloth.obj
 0001:00000710       ??GPxVec4@physx@@QEBA?AV01@AEBV01@@Z 0000000180001710 f i CuCloth.obj
 0001:00000730       ??DPxVec4@physx@@QEBA?AV01@M@Z 0000000180001730 f i CuCloth.obj
 0001:00000750       ?minimum@PxVec4@physx@@QEBA?AV12@AEBV12@@Z 0000000180001750 f i CuCloth.obj
 0001:000007a0       ?maximum@PxVec4@physx@@QEBA?AV12@AEBV12@@Z 00000001800017a0 f i CuCloth.obj
 0001:000007f0       ?array@cloth@nv@@YAAEAY03MAEAVPxVec4@physx@@@Z 00000001800017f0 f i CuCloth.obj
 0001:00000800       ??0PxQuat@physx@@QEAA@XZ   0000000180001800 f i CuCloth.obj
 0001:00000810       ??0PxQuat@physx@@QEAA@W4PxIDENTITY@1@@Z 0000000180001810 f i CuCloth.obj
 0001:00000830       ??0PxQuat@physx@@QEAA@MMMM@Z 0000000180001830 f i CuCloth.obj
 0001:00000850       ?magnitudeSquared@PxQuat@physx@@QEBAMXZ 0000000180001850 f i CuCloth.obj
 0001:00000880       ??4PxQuat@physx@@QEAAAEAV01@AEBV01@@Z 0000000180001880 f i CuCloth.obj
 0001:000008a0       ??GPxQuat@physx@@QEBA?AV01@AEBV01@@Z 00000001800018a0 f i CuCloth.obj
 0001:000008c0       ??0PxTransform@physx@@QEAA@XZ 00000001800018c0 f i CuCloth.obj
 0001:000008d0       ??0PxTransform@physx@@QEAA@W4PxIDENTITY@1@@Z 00000001800018d0 f i CuCloth.obj
 0001:000008f0       ??4PxTransform@physx@@QEAAAEAV01@$$QEAV01@@Z 00000001800018f0 f i CuCloth.obj
 0001:00000920       ??0Cloth@cloth@nv@@IEAA@XZ 0000000180001920 f i CuCloth.obj
 0001:00000930       ??1Cloth@cloth@nv@@UEAA@XZ 0000000180001930 f i CuCloth.obj
 0001:00000940       ??_GCloth@cloth@nv@@UEAAPEAXI@Z 0000000180001940 f i CuCloth.obj
 0001:00000940       ??_ECloth@cloth@nv@@UEAAPEAXI@Z 0000000180001940 f i * CIL library *:* CIL module *
 0001:00000990       ?incRefCount@Fabric@cloth@nv@@QEAAXXZ 0000000180001990 f i CuCloth.obj
 0001:000009a0       ?decRefCount@Fabric@cloth@nv@@QEAA_NXZ 00000001800019a0 f i CuCloth.obj
 0001:000009e0       ?exp2@shdfnd@physx@@YAMM@Z 00000001800019e0 f i CuCloth.obj
 0001:000009f0       ?log2@shdfnd@physx@@YAMM@Z 00000001800019f0 f i CuCloth.obj
 0001:00000a10       ?safeLog2@cloth@nv@@YAMM@Z 0000000180001a10 f i CuCloth.obj
 0001:00000a40       ?safeLog2@cloth@nv@@YA?AVPxVec3@physx@@AEBV34@@Z 0000000180001a40 f i CuCloth.obj
 0001:00000b10       ?safeExp2@cloth@nv@@YAMM@Z 0000000180001b10 f i CuCloth.obj
 0001:00000b30       ?safeExp2@cloth@nv@@YA?AVPxVec3@physx@@AEBV34@@Z 0000000180001b30 f i CuCloth.obj
 0001:00000bf0       ?updateIndex@cloth@nv@@YA_NAEAIIH@Z 0000000180001bf0 f i CuCloth.obj
 0001:00000c10       ??0CuConstraints@cloth@nv@@QEAA@PEAUCUctx_st@@@Z 0000000180001c10 f i CuCloth.obj
 0001:00000c60       ?pop@CuConstraints@cloth@nv@@QEAAXXZ 0000000180001c60 f i CuCloth.obj
 0001:00000cb0       ??1?$CuHostVectorImpl@VPxVec4@physx@@$01@cloth@nv@@QEAA@XZ 0000000180001cb0 f i CuCloth.obj
 0001:00000cf0       ??4TripletSchedulerTestInterface@cloth@nv@@QEAAAEAU012@AEBU012@@Z 0000000180001cf0 f i CuCloth.obj
 0001:00000d00       ??_GCuCloth@cloth@nv@@UEAAPEAXI@Z 0000000180001d00 f i CuCloth.obj
 0001:00000d00       ??_ECuCloth@cloth@nv@@UEAAPEAXI@Z 0000000180001d00 f i * CIL library *:* CIL module *
 0001:00000d60       ??1?$ClothImpl@VCuCloth@cloth@nv@@@cloth@nv@@UEAA@XZ 0000000180001d60 f i CuCloth.obj
 0001:00000d90       ??1CuConstraints@cloth@nv@@QEAA@XZ 0000000180001d90 f i CuCloth.obj
 0001:00000e10       ??1?$CuHostVectorImpl@UIndexPair@cloth@nv@@$01@cloth@nv@@QEAA@XZ 0000000180001e10 f i CuCloth.obj
 0001:00000e50       ??1?$CuHostVectorImpl@I$01@cloth@nv@@QEAA@XZ 0000000180001e50 f i CuCloth.obj
 0001:00000e90       ??1?$CuHostVectorImpl@VPxVec3@physx@@$01@cloth@nv@@QEAA@XZ 0000000180001e90 f i CuCloth.obj
 0001:00000ed0       ??0CuConstraints@cloth@nv@@QEAA@AEBU012@@Z 0000000180001ed0 f i CuCloth.obj
 0001:00000f50       ??1TripletScheduler@cloth@nv@@QEAA@XZ 0000000180001f50 f i CuCloth.obj
 0001:00000fd0       ?__empty_global_delete@@YAXPEAX@Z 0000000180001fd0 f i CuCloth.obj
 0001:00000fe0       ?__empty_global_delete@@YAXPEAX_K@Z 0000000180001fe0 f i CuCloth.obj
 0001:00000ff0       ?reserve@?$Array@VPxVec4@physx@@VNonTrackingAllocator@cloth@nv@@@shdfnd@physx@@QEAAXI@Z 0000000180001ff0 f i CuCloth.obj
 0001:00001000       ?pushBack@?$Array@VPxVec4@physx@@VNonTrackingAllocator@cloth@nv@@@shdfnd@physx@@QEAAAEAVPxVec4@3@AEBV43@@Z 0000000180002000 f i CuCloth.obj
 0001:00001050       ??1?$Array@VPxVec4@physx@@VNonTrackingAllocator@cloth@nv@@@shdfnd@physx@@QEAA@XZ 0000000180002050 f i CuCloth.obj
 0001:00001080       ??0?$Array@VPxVec4@physx@@VNonTrackingAllocator@cloth@nv@@@shdfnd@physx@@QEAA@AEBVNonTrackingAllocator@cloth@nv@@@Z 0000000180002080 f i CuCloth.obj
 0001:00001090       ?reserve@?$Array@UCuPhaseConfig@cloth@nv@@VNonTrackingAllocator@23@@shdfnd@physx@@QEAAXI@Z 0000000180002090 f i CuCloth.obj
 0001:000010a0       ?pushBack@?$Array@UCuPhaseConfig@cloth@nv@@VNonTrackingAllocator@23@@shdfnd@physx@@QEAAAEAUCuPhaseConfig@cloth@nv@@AEBU456@@Z 00000001800020a0 f i CuCloth.obj
 0001:00001100       ?end@?$Array@UCuPhaseConfig@cloth@nv@@VNonTrackingAllocator@23@@shdfnd@physx@@QEAAPEAUCuPhaseConfig@cloth@nv@@XZ 0000000180002100 f i CuCloth.obj
 0001:00001110       ?begin@?$Array@UCuPhaseConfig@cloth@nv@@VNonTrackingAllocator@23@@shdfnd@physx@@QEAAPEAUCuPhaseConfig@cloth@nv@@XZ 0000000180002110 f i CuCloth.obj
 0001:00001120       ??1?$Array@UCuPhaseConfig@cloth@nv@@VNonTrackingAllocator@23@@shdfnd@physx@@QEAA@XZ 0000000180002120 f i CuCloth.obj
 0001:00001150       ??0?$Array@UCuPhaseConfig@cloth@nv@@VNonTrackingAllocator@23@@shdfnd@physx@@QEAA@AEBVNonTrackingAllocator@cloth@nv@@@Z 0000000180002150 f i CuCloth.obj
 0001:00001160       ?reserve@?$Array@U?$Vec4T@G@cloth@nv@@VNonTrackingAllocator@23@@shdfnd@physx@@QEAAXI@Z 0000000180002160 f i CuCloth.obj
 0001:00001170       ?pushBack@?$Array@U?$Vec4T@G@cloth@nv@@VNonTrackingAllocator@23@@shdfnd@physx@@QEAAAEAU?$Vec4T@G@cloth@nv@@AEBU456@@Z 0000000180002170 f i CuCloth.obj
 0001:000011b0       ??1?$Array@U?$Vec4T@G@cloth@nv@@VNonTrackingAllocator@23@@shdfnd@physx@@QEAA@XZ 00000001800021b0 f i CuCloth.obj
 0001:000011e0       ??0?$Array@U?$Vec4T@G@cloth@nv@@VNonTrackingAllocator@23@@shdfnd@physx@@QEAA@AEBVNonTrackingAllocator@cloth@nv@@@Z 00000001800021e0 f i CuCloth.obj
 0001:000011f0       ?end@?$Array@U?$Vec4T@I@cloth@nv@@VNonTrackingAllocator@23@@shdfnd@physx@@QEAAPEAU?$Vec4T@I@cloth@nv@@XZ 00000001800021f0 f i CuCloth.obj
 0001:00001200       ?begin@?$Array@U?$Vec4T@I@cloth@nv@@VNonTrackingAllocator@23@@shdfnd@physx@@QEAAPEAU?$Vec4T@I@cloth@nv@@XZ 0000000180002200 f i CuCloth.obj
 0001:00001210       ?begin@?$Array@U?$Vec4T@I@cloth@nv@@VNonTrackingAllocator@23@@shdfnd@physx@@QEBAPEBU?$Vec4T@I@cloth@nv@@XZ 0000000180002210 f i CuCloth.obj
 0001:00001220       ??1?$Array@U?$Vec4T@I@cloth@nv@@VNonTrackingAllocator@23@@shdfnd@physx@@QEAA@XZ 0000000180002220 f i CuCloth.obj
 0001:00001250       ??A?$Array@V?$CuDevicePointer@$$CBG@cloth@nv@@VNonTrackingAllocator@23@@shdfnd@physx@@QEAAAEAV?$CuDevicePointer@$$CBG@cloth@nv@@I@Z 0000000180002250 f i CuCloth.obj
 0001:00001260       ??A?$Array@V?$CuDevicePointer@$$CBM@cloth@nv@@VNonTrackingAllocator@23@@shdfnd@physx@@QEAAAEAV?$CuDevicePointer@$$CBM@cloth@nv@@I@Z 0000000180002260 f i CuCloth.obj
 0001:00001270       ?get@?$CuDevicePointer@$$CBG@cloth@nv@@QEBAPEBGXZ 0000000180002270 f i CuCloth.obj
 0001:00001280       ?get@?$CuDevicePointer@$$CBM@cloth@nv@@QEBAPEBMXZ 0000000180002280 f i CuCloth.obj
 0001:00001290       ??H?$CuDevicePointer@M@cloth@nv@@QEBA?AV012@AEB_J@Z 0000000180002290 f i CuCloth.obj
 0001:000012b0       ?dev@?$CuDevicePointer@M@cloth@nv@@QEBA_KXZ 00000001800022b0 f i CuCloth.obj
 0001:000012c0       ?resize@?$CuDeviceVector@M@cloth@nv@@QEAAX_K@Z 00000001800022c0 f i CuCloth.obj
 0001:00001310       ?begin@?$CuDeviceVector@M@cloth@nv@@QEAA?AV?$CuDevicePointer@M@23@XZ 0000000180002310 f i CuCloth.obj
 0001:00001320       ?empty@?$CuDeviceVector@M@cloth@nv@@QEBA_NXZ 0000000180002320 f i CuCloth.obj
 0001:00001330       ??1?$CuDeviceVector@M@cloth@nv@@QEAA@XZ 0000000180002330 f i CuCloth.obj
 0001:00001360       ??0?$CuDeviceVector@M@cloth@nv@@QEAA@PEAUCUctx_st@@@Z 0000000180002360 f i CuCloth.obj
 0001:00001380       ?assign@?$Array@IVNonTrackingAllocator@cloth@nv@@@shdfnd@physx@@QEAAXPEBI0@Z 0000000180002380 f i CuCloth.obj
 0001:000013e0       ?end@?$Array@IVNonTrackingAllocator@cloth@nv@@@shdfnd@physx@@QEBAPEBIXZ 00000001800023e0 f i CuCloth.obj
 0001:000013f0       ?begin@?$Array@IVNonTrackingAllocator@cloth@nv@@@shdfnd@physx@@QEBAPEBIXZ 00000001800023f0 f i CuCloth.obj
 0001:00001400       ??A?$Array@IVNonTrackingAllocator@cloth@nv@@@shdfnd@physx@@QEAAAEAII@Z 0000000180002400 f i CuCloth.obj
 0001:00001410       ??1?$Array@IVNonTrackingAllocator@cloth@nv@@@shdfnd@physx@@QEAA@XZ 0000000180002410 f i CuCloth.obj
 0001:00001440       ??0?$Array@IVNonTrackingAllocator@cloth@nv@@@shdfnd@physx@@QEAA@AEBVNonTrackingAllocator@cloth@nv@@@Z 0000000180002440 f i CuCloth.obj
 0001:00001450       ?size@?$CuDeviceVector@U?$Vec4T@G@cloth@nv@@@cloth@nv@@QEBA_KXZ 0000000180002450 f i CuCloth.obj
 0001:00001460       ??1?$CuDeviceVector@U?$Vec4T@G@cloth@nv@@@cloth@nv@@QEAA@XZ 0000000180002460 f i CuCloth.obj
 0001:00001490       ??0?$CuDeviceVector@U?$Vec4T@G@cloth@nv@@@cloth@nv@@QEAA@AEBV012@@Z 0000000180002490 f i CuCloth.obj
 0001:000014c0       ??0?$CuDeviceVector@U?$Vec4T@G@cloth@nv@@@cloth@nv@@QEAA@PEAUCUctx_st@@@Z 00000001800024c0 f i CuCloth.obj
 0001:000014e0       ?size@?$CuDeviceVector@I@cloth@nv@@QEBA_KXZ 00000001800024e0 f i CuCloth.obj
 0001:000014f0       ?empty@?$CuDeviceVector@I@cloth@nv@@QEBA_NXZ 00000001800024f0 f i CuCloth.obj
 0001:00001500       ??1?$CuDeviceVector@I@cloth@nv@@QEAA@XZ 0000000180002500 f i CuCloth.obj
 0001:00001530       ??0?$CuDeviceVector@I@cloth@nv@@QEAA@AEBV012@@Z 0000000180002530 f i CuCloth.obj
 0001:00001560       ??0?$CuDeviceVector@I@cloth@nv@@QEAA@PEAUCUctx_st@@@Z 0000000180002560 f i CuCloth.obj
 0001:00001580       ?size@?$Array@VPxVec3@physx@@V?$CuHostAllocator@VPxVec3@physx@@$01@cloth@nv@@@shdfnd@physx@@QEBAIXZ 0000000180002580 f i CuCloth.obj
 0001:00001590       ??1?$Array@VPxVec3@physx@@V?$CuHostAllocator@VPxVec3@physx@@$01@cloth@nv@@@shdfnd@physx@@QEAA@XZ 0000000180002590 f i CuCloth.obj
 0001:000015d0       ??0?$CuHostAllocator@VPxVec3@physx@@$01@cloth@nv@@QEAA@PEAUCUctx_st@@@Z 00000001800025d0 f i CuCloth.obj
 0001:000015e0       ?size@?$Array@IV?$CuHostAllocator@I$01@cloth@nv@@@shdfnd@physx@@QEBAIXZ 00000001800025e0 f i CuCloth.obj
 0001:000015f0       ??1?$Array@IV?$CuHostAllocator@I$01@cloth@nv@@@shdfnd@physx@@QEAA@XZ 00000001800025f0 f i CuCloth.obj
 0001:00001630       ??0?$CuHostAllocator@I$01@cloth@nv@@QEAA@PEAUCUctx_st@@@Z 0000000180002630 f i CuCloth.obj
 0001:00001640       ?size@?$Array@UIndexPair@cloth@nv@@V?$CuHostAllocator@UIndexPair@cloth@nv@@$01@23@@shdfnd@physx@@QEBAIXZ 0000000180002640 f i CuCloth.obj
 0001:00001650       ??1?$Array@UIndexPair@cloth@nv@@V?$CuHostAllocator@UIndexPair@cloth@nv@@$01@23@@shdfnd@physx@@QEAA@XZ 0000000180002650 f i CuCloth.obj
 0001:00001690       ??0?$CuHostAllocator@UIndexPair@cloth@nv@@$01@cloth@nv@@QEAA@PEAUCUctx_st@@@Z 0000000180002690 f i CuCloth.obj
 0001:000016a0       ?assign@?$Array@UPhaseConfig@cloth@nv@@VNonTrackingAllocator@23@@shdfnd@physx@@QEAAXPEBUPhaseConfig@cloth@nv@@0@Z 00000001800026a0 f i CuCloth.obj
 0001:00001710       ?reserve@?$Array@UPhaseConfig@cloth@nv@@VNonTrackingAllocator@23@@shdfnd@physx@@QEAAXI@Z 0000000180002710 f i CuCloth.obj
 0001:00001720       ?pushBack@?$Array@UPhaseConfig@cloth@nv@@VNonTrackingAllocator@23@@shdfnd@physx@@QEAAAEAUPhaseConfig@cloth@nv@@AEBU456@@Z 0000000180002720 f i CuCloth.obj
 0001:00001770       ?end@?$Array@UPhaseConfig@cloth@nv@@VNonTrackingAllocator@23@@shdfnd@physx@@QEAAPEAUPhaseConfig@cloth@nv@@XZ 0000000180002770 f i CuCloth.obj
 0001:00001780       ?begin@?$Array@UPhaseConfig@cloth@nv@@VNonTrackingAllocator@23@@shdfnd@physx@@QEAAPEAUPhaseConfig@cloth@nv@@XZ 0000000180002780 f i CuCloth.obj
 0001:00001790       ??1?$Array@UPhaseConfig@cloth@nv@@VNonTrackingAllocator@23@@shdfnd@physx@@QEAA@XZ 0000000180002790 f i CuCloth.obj
 0001:000017c0       ??0?$Array@UPhaseConfig@cloth@nv@@VNonTrackingAllocator@23@@shdfnd@physx@@QEAA@AEBV012@AEBVNonTrackingAllocator@cloth@nv@@@Z 00000001800027c0 f i CuCloth.obj
 0001:000017e0       ??0?$Array@UPhaseConfig@cloth@nv@@VNonTrackingAllocator@23@@shdfnd@physx@@QEAA@AEBVNonTrackingAllocator@cloth@nv@@@Z 00000001800027e0 f i CuCloth.obj
 0001:000017f0       ?size@?$CuDeviceVector@UCuPhaseConfig@cloth@nv@@@cloth@nv@@QEBA_KXZ 00000001800027f0 f i CuCloth.obj
 0001:00001820       ??1?$CuDeviceVector@UCuPhaseConfig@cloth@nv@@@cloth@nv@@QEAA@XZ 0000000180002820 f i CuCloth.obj
 0001:00001850       ??0?$CuDeviceVector@UCuPhaseConfig@cloth@nv@@@cloth@nv@@QEAA@AEBV012@@Z 0000000180002850 f i CuCloth.obj
 0001:00001880       ??0?$CuDeviceVector@UCuPhaseConfig@cloth@nv@@@cloth@nv@@QEAA@PEAUCUctx_st@@@Z 0000000180002880 f i CuCloth.obj
 0001:000018a0       ??0?$CuHostVectorImpl@I$01@cloth@nv@@QEAA@AEBV?$CuHostAllocator@I$01@12@@Z 00000001800028a0 f i CuCloth.obj
 0001:000018c0       ??0?$CuHostVectorImpl@UIndexPair@cloth@nv@@$01@cloth@nv@@QEAA@AEBV012@AEBV?$CuHostAllocator@UIndexPair@cloth@nv@@$01@12@@Z 00000001800028c0 f i CuCloth.obj
 0001:000018e0       ??0?$CuHostVectorImpl@UIndexPair@cloth@nv@@$01@cloth@nv@@QEAA@AEBV?$CuHostAllocator@UIndexPair@cloth@nv@@$01@12@@Z 00000001800028e0 f i CuCloth.obj
 0001:00001900       ??0?$CuHostVectorImpl@VPxVec3@physx@@$01@cloth@nv@@QEAA@AEBV012@AEBV?$CuHostAllocator@VPxVec3@physx@@$01@12@@Z 0000000180002900 f i CuCloth.obj
 0001:00001920       ??0?$CuHostVectorImpl@VPxVec3@physx@@$01@cloth@nv@@QEAA@AEBV?$CuHostAllocator@VPxVec3@physx@@$01@12@@Z 0000000180002920 f i CuCloth.obj
 0001:00001940       ??0?$ClothImpl@VCuCloth@cloth@nv@@@cloth@nv@@QEAA@XZ 0000000180002940 f i CuCloth.obj
 0001:000019a0       ?capacity@?$Array@VPxVec4@physx@@V?$CuHostAllocator@VPxVec4@physx@@$01@cloth@nv@@@shdfnd@physx@@QEBAIXZ 00000001800029a0 f i CuCloth.obj
 0001:000019b0       ?reserve@?$Array@VPxVec4@physx@@V?$CuHostAllocator@VPxVec4@physx@@$01@cloth@nv@@@shdfnd@physx@@QEAAXI@Z 00000001800029b0 f i CuCloth.obj
 0001:000019c0       ?empty@?$Array@VPxVec4@physx@@V?$CuHostAllocator@VPxVec4@physx@@$01@cloth@nv@@@shdfnd@physx@@QEBA_NXZ 00000001800029c0 f i CuCloth.obj
 0001:000019d0       ?size@?$Array@VPxVec4@physx@@V?$CuHostAllocator@VPxVec4@physx@@$01@cloth@nv@@@shdfnd@physx@@QEBAIXZ 00000001800029d0 f i CuCloth.obj
 0001:000019e0       ?front@?$Array@VPxVec4@physx@@V?$CuHostAllocator@VPxVec4@physx@@$01@cloth@nv@@@shdfnd@physx@@QEAAAEAVPxVec4@3@XZ 00000001800029e0 f i CuCloth.obj
 0001:000019f0       ?end@?$Array@VPxVec4@physx@@V?$CuHostAllocator@VPxVec4@physx@@$01@cloth@nv@@@shdfnd@physx@@QEAAPEAVPxVec4@3@XZ 00000001800029f0 f i CuCloth.obj
 0001:00001a00       ?begin@?$Array@VPxVec4@physx@@V?$CuHostAllocator@VPxVec4@physx@@$01@cloth@nv@@@shdfnd@physx@@QEAAPEAVPxVec4@3@XZ 0000000180002a00 f i CuCloth.obj
 0001:00001a10       ?begin@?$Array@VPxVec4@physx@@V?$CuHostAllocator@VPxVec4@physx@@$01@cloth@nv@@@shdfnd@physx@@QEBAPEBVPxVec4@3@XZ 0000000180002a10 f i CuCloth.obj
 0001:00001a20       ??1?$Array@VPxVec4@physx@@V?$CuHostAllocator@VPxVec4@physx@@$01@cloth@nv@@@shdfnd@physx@@QEAA@XZ 0000000180002a20 f i CuCloth.obj
 0001:00001a60       ??0?$CuHostAllocator@VPxVec4@physx@@$01@cloth@nv@@QEAA@PEAUCUctx_st@@@Z 0000000180002a60 f i CuCloth.obj
 0001:00001a70       ?swap@?$CuHostVectorImpl@VPxVec4@physx@@$01@cloth@nv@@QEAAXAEAV123@@Z 0000000180002a70 f i CuCloth.obj
 0001:00001ab0       ??0?$CuHostVectorImpl@VPxVec4@physx@@$01@cloth@nv@@QEAA@AEBV012@AEBV?$CuHostAllocator@VPxVec4@physx@@$01@12@@Z 0000000180002ab0 f i CuCloth.obj
 0001:00001ad0       ??0?$CuHostVectorImpl@VPxVec4@physx@@$01@cloth@nv@@QEAA@AEBV?$CuHostAllocator@VPxVec4@physx@@$01@12@@Z 0000000180002ad0 f i CuCloth.obj
 0001:00001af0       ?dev@?$CuDevicePointer@VPxVec4@physx@@@cloth@nv@@QEBA_KXZ 0000000180002af0 f i CuCloth.obj
 0001:00001b00       ?get@?$CuDevicePointer@VPxVec4@physx@@@cloth@nv@@QEBAPEAVPxVec4@physx@@XZ 0000000180002b00 f i CuCloth.obj
 0001:00001b10       ?swap@?$CuDeviceVector@VPxVec4@physx@@@cloth@nv@@QEAAXAEAV123@@Z 0000000180002b10 f i CuCloth.obj
 0001:00001b50       ?resize@?$CuDeviceVector@VPxVec4@physx@@@cloth@nv@@QEAAX_K@Z 0000000180002b50 f i CuCloth.obj
 0001:00001ba0       ?reserve@?$CuDeviceVector@VPxVec4@physx@@@cloth@nv@@QEAAX_K@Z 0000000180002ba0 f i CuCloth.obj
 0001:00001c80       ?push_back@?$CuDeviceVector@VPxVec4@physx@@@cloth@nv@@QEAAXPEBVPxVec4@physx@@0@Z 0000000180002c80 f i CuCloth.obj
 0001:00001d40       ?begin@?$CuDeviceVector@VPxVec4@physx@@@cloth@nv@@QEAA?AV?$CuDevicePointer@VPxVec4@physx@@@23@XZ 0000000180002d40 f i CuCloth.obj
 0001:00001d50       ?capacity@?$CuDeviceVector@VPxVec4@physx@@@cloth@nv@@QEBA_KXZ 0000000180002d50 f i CuCloth.obj
 0001:00001d60       ?empty@?$CuDeviceVector@VPxVec4@physx@@@cloth@nv@@QEBA_NXZ 0000000180002d60 f i CuCloth.obj
 0001:00001d70       ??1?$CuDeviceVector@VPxVec4@physx@@@cloth@nv@@QEAA@XZ 0000000180002d70 f i CuCloth.obj
 0001:00001da0       ??0?$CuDeviceVector@VPxVec4@physx@@@cloth@nv@@QEAA@AEBV012@@Z 0000000180002da0 f i CuCloth.obj
 0001:00001dd0       ??0?$CuDeviceVector@VPxVec4@physx@@@cloth@nv@@QEAA@PEAUCUctx_st@@@Z 0000000180002dd0 f i CuCloth.obj
 0001:00001df0       ??1?$MappedRange@$$CBVPxVec4@physx@@@cloth@nv@@QEAA@XZ 0000000180002df0 f i CuCloth.obj
 0001:00001e00       ??1?$MappedRange@VPxVec4@physx@@@cloth@nv@@QEAA@XZ 0000000180002e00 f i CuCloth.obj
 0001:00001e10       ??_E?$ClothImpl@VCuCloth@cloth@nv@@@cloth@nv@@UEAAPEAXI@Z 0000000180002e10 f i * CIL library *:* CIL module *
 0001:00001e10       ??_G?$ClothImpl@VCuCloth@cloth@nv@@@cloth@nv@@UEAAPEAXI@Z 0000000180002e10 f i CuCloth.obj
 0001:00001e90       ?grow@?$Array@VPxVec4@physx@@VNonTrackingAllocator@cloth@nv@@@shdfnd@physx@@IEAAXI@Z 0000000180002e90 f i CuCloth.obj
 0001:00001ea0       ?destroy@?$Array@VPxVec4@physx@@VNonTrackingAllocator@cloth@nv@@@shdfnd@physx@@KAXPEAVPxVec4@3@0@Z 0000000180002ea0 f i CuCloth.obj
 0001:00001eb0       ?deallocate@?$Array@VPxVec4@physx@@VNonTrackingAllocator@cloth@nv@@@shdfnd@physx@@IEAAXPEAX@Z 0000000180002eb0 f i CuCloth.obj
 0001:00001ed0       ?isInUserMemory@?$Array@VPxVec4@physx@@VNonTrackingAllocator@cloth@nv@@@shdfnd@physx@@QEBAIXZ 0000000180002ed0 f i CuCloth.obj
 0001:00001ee0       ?capacity@?$Array@VPxVec4@physx@@VNonTrackingAllocator@cloth@nv@@@shdfnd@physx@@QEBAIXZ 0000000180002ee0 f i CuCloth.obj
 0001:00001ef0       ?grow@?$Array@UCuPhaseConfig@cloth@nv@@VNonTrackingAllocator@23@@shdfnd@physx@@IEAAXI@Z 0000000180002ef0 f i CuCloth.obj
 0001:00001f00       ?destroy@?$Array@UCuPhaseConfig@cloth@nv@@VNonTrackingAllocator@23@@shdfnd@physx@@KAXPEAUCuPhaseConfig@cloth@nv@@0@Z 0000000180002f00 f i CuCloth.obj
 0001:00001f10       ?deallocate@?$Array@UCuPhaseConfig@cloth@nv@@VNonTrackingAllocator@23@@shdfnd@physx@@IEAAXPEAX@Z 0000000180002f10 f i CuCloth.obj
 0001:00001f30       ?isInUserMemory@?$Array@UCuPhaseConfig@cloth@nv@@VNonTrackingAllocator@23@@shdfnd@physx@@QEBAIXZ 0000000180002f30 f i CuCloth.obj
 0001:00001f40       ?capacity@?$Array@UCuPhaseConfig@cloth@nv@@VNonTrackingAllocator@23@@shdfnd@physx@@QEBAIXZ 0000000180002f40 f i CuCloth.obj
 0001:00001f50       ?grow@?$Array@U?$Vec4T@G@cloth@nv@@VNonTrackingAllocator@23@@shdfnd@physx@@IEAAXI@Z 0000000180002f50 f i CuCloth.obj
 0001:00001f60       ?destroy@?$Array@U?$Vec4T@G@cloth@nv@@VNonTrackingAllocator@23@@shdfnd@physx@@KAXPEAU?$Vec4T@G@cloth@nv@@0@Z 0000000180002f60 f i CuCloth.obj
 0001:00001f70       ?deallocate@?$Array@U?$Vec4T@G@cloth@nv@@VNonTrackingAllocator@23@@shdfnd@physx@@IEAAXPEAX@Z 0000000180002f70 f i CuCloth.obj
 0001:00001f90       ?isInUserMemory@?$Array@U?$Vec4T@G@cloth@nv@@VNonTrackingAllocator@23@@shdfnd@physx@@QEBAIXZ 0000000180002f90 f i CuCloth.obj
 0001:00001fa0       ?capacity@?$Array@U?$Vec4T@G@cloth@nv@@VNonTrackingAllocator@23@@shdfnd@physx@@QEBAIXZ 0000000180002fa0 f i CuCloth.obj
 0001:00001fb0       ?destroy@?$Array@U?$Vec4T@I@cloth@nv@@VNonTrackingAllocator@23@@shdfnd@physx@@KAXPEAU?$Vec4T@I@cloth@nv@@0@Z 0000000180002fb0 f i CuCloth.obj
 0001:00001fc0       ?deallocate@?$Array@U?$Vec4T@I@cloth@nv@@VNonTrackingAllocator@23@@shdfnd@physx@@IEAAXPEAX@Z 0000000180002fc0 f i CuCloth.obj
 0001:00001fe0       ?isInUserMemory@?$Array@U?$Vec4T@I@cloth@nv@@VNonTrackingAllocator@23@@shdfnd@physx@@QEBAIXZ 0000000180002fe0 f i CuCloth.obj
 0001:00001ff0       ?capacity@?$Array@U?$Vec4T@I@cloth@nv@@VNonTrackingAllocator@23@@shdfnd@physx@@QEBAIXZ 0000000180002ff0 f i CuCloth.obj
 0001:00002000       ??0?$CuDevicePointer@M@cloth@nv@@QEAA@AEBV012@@Z 0000000180003000 f i CuCloth.obj
 0001:00002010       ??0?$CuDevicePointer@M@cloth@nv@@QEAA@XZ 0000000180003010 f i CuCloth.obj
 0001:00002020       ?reserve@?$CuDeviceVector@M@cloth@nv@@QEAAX_K@Z 0000000180003020 f i CuCloth.obj
 0001:00002110       ?capacity@?$CuDeviceVector@M@cloth@nv@@QEBA_KXZ 0000000180003110 f i CuCloth.obj
 0001:00002120       ?destroy@?$Array@IVNonTrackingAllocator@cloth@nv@@@shdfnd@physx@@KAXPEAI0@Z 0000000180003120 f i CuCloth.obj
 0001:00002130       ?copy@?$Array@IVNonTrackingAllocator@cloth@nv@@@shdfnd@physx@@KAXPEAI0PEBI@Z 0000000180003130 f i CuCloth.obj
 0001:00002150       ?deallocate@?$Array@IVNonTrackingAllocator@cloth@nv@@@shdfnd@physx@@IEAAXPEAX@Z 0000000180003150 f i CuCloth.obj
 0001:00002170       ?isInUserMemory@?$Array@IVNonTrackingAllocator@cloth@nv@@@shdfnd@physx@@QEBAIXZ 0000000180003170 f i CuCloth.obj
 0001:00002180       ?capacity@?$Array@IVNonTrackingAllocator@cloth@nv@@@shdfnd@physx@@QEBAIXZ 0000000180003180 f i CuCloth.obj
 0001:00002190       ?end@?$Array@IVNonTrackingAllocator@cloth@nv@@@shdfnd@physx@@QEAAPEAIXZ 0000000180003190 f i CuCloth.obj
 0001:000021a0       ?begin@?$Array@IVNonTrackingAllocator@cloth@nv@@@shdfnd@physx@@QEAAPEAIXZ 00000001800031a0 f i CuCloth.obj
 0001:000021b0       ??G?$CuDevicePointer@U?$Vec4T@G@cloth@nv@@@cloth@nv@@QEBA_JAEBV012@@Z 00000001800031b0 f i CuCloth.obj
 0001:000021c0       ?dev@?$CuDevicePointer@U?$Vec4T@G@cloth@nv@@@cloth@nv@@QEBA_KXZ 00000001800031c0 f i CuCloth.obj
 0001:000021d0       ??0?$CuDevicePointer@U?$Vec4T@G@cloth@nv@@@cloth@nv@@QEAA@XZ 00000001800031d0 f i CuCloth.obj
 0001:000021e0       ??4?$CuDeviceVector@U?$Vec4T@G@cloth@nv@@@cloth@nv@@QEAAAEAV012@AEBV012@@Z 00000001800031e0 f i CuCloth.obj
 0001:00002280       ??G?$CuDevicePointer@I@cloth@nv@@QEBA_JAEBV012@@Z 0000000180003280 f i CuCloth.obj
 0001:00002290       ?dev@?$CuDevicePointer@I@cloth@nv@@QEBA_KXZ 0000000180003290 f i CuCloth.obj
 0001:000022a0       ??0?$CuDevicePointer@I@cloth@nv@@QEAA@XZ 00000001800032a0 f i CuCloth.obj
 0001:000022b0       ??4?$CuDeviceVector@I@cloth@nv@@QEAAAEAV012@AEBV012@@Z 00000001800032b0 f i CuCloth.obj
 0001:00002350       ?destroy@?$Array@VPxVec3@physx@@V?$CuHostAllocator@VPxVec3@physx@@$01@cloth@nv@@@shdfnd@physx@@KAXPEAVPxVec3@3@0@Z 0000000180003350 f i CuCloth.obj
 0001:00002360       ?deallocate@?$Array@VPxVec3@physx@@V?$CuHostAllocator@VPxVec3@physx@@$01@cloth@nv@@@shdfnd@physx@@IEAAXPEAX@Z 0000000180003360 f i CuCloth.obj
 0001:00002390       ?isInUserMemory@?$Array@VPxVec3@physx@@V?$CuHostAllocator@VPxVec3@physx@@$01@cloth@nv@@@shdfnd@physx@@QEBAIXZ 0000000180003390 f i CuCloth.obj
 0001:000023a0       ?capacity@?$Array@VPxVec3@physx@@V?$CuHostAllocator@VPxVec3@physx@@$01@cloth@nv@@@shdfnd@physx@@QEBAIXZ 00000001800033a0 f i CuCloth.obj
 0001:000023b0       ??0?$Array@VPxVec3@physx@@V?$CuHostAllocator@VPxVec3@physx@@$01@cloth@nv@@@shdfnd@physx@@QEAA@AEBV012@AEBV?$CuHostAllocator@VPxVec3@physx@@$01@cloth@nv@@@Z 00000001800033b0 f i CuCloth.obj
 0001:000023d0       ??0?$Array@VPxVec3@physx@@V?$CuHostAllocator@VPxVec3@physx@@$01@cloth@nv@@@shdfnd@physx@@QEAA@AEBV?$CuHostAllocator@VPxVec3@physx@@$01@cloth@nv@@@Z 00000001800033d0 f i CuCloth.obj
 0001:000023f0       ?destroy@?$Array@IV?$CuHostAllocator@I$01@cloth@nv@@@shdfnd@physx@@KAXPEAI0@Z 00000001800033f0 f i CuCloth.obj
 0001:00002400       ?deallocate@?$Array@IV?$CuHostAllocator@I$01@cloth@nv@@@shdfnd@physx@@IEAAXPEAX@Z 0000000180003400 f i CuCloth.obj
 0001:00002430       ?isInUserMemory@?$Array@IV?$CuHostAllocator@I$01@cloth@nv@@@shdfnd@physx@@QEBAIXZ 0000000180003430 f i CuCloth.obj
 0001:00002440       ?capacity@?$Array@IV?$CuHostAllocator@I$01@cloth@nv@@@shdfnd@physx@@QEBAIXZ 0000000180003440 f i CuCloth.obj
 0001:00002450       ??0?$Array@IV?$CuHostAllocator@I$01@cloth@nv@@@shdfnd@physx@@QEAA@AEBV?$CuHostAllocator@I$01@cloth@nv@@@Z 0000000180003450 f i CuCloth.obj
 0001:00002470       ?destroy@?$Array@UIndexPair@cloth@nv@@V?$CuHostAllocator@UIndexPair@cloth@nv@@$01@23@@shdfnd@physx@@KAXPEAUIndexPair@cloth@nv@@0@Z 0000000180003470 f i CuCloth.obj
 0001:00002480       ?deallocate@?$Array@UIndexPair@cloth@nv@@V?$CuHostAllocator@UIndexPair@cloth@nv@@$01@23@@shdfnd@physx@@IEAAXPEAX@Z 0000000180003480 f i CuCloth.obj
 0001:000024b0       ?isInUserMemory@?$Array@UIndexPair@cloth@nv@@V?$CuHostAllocator@UIndexPair@cloth@nv@@$01@23@@shdfnd@physx@@QEBAIXZ 00000001800034b0 f i CuCloth.obj
 0001:000024c0       ?capacity@?$Array@UIndexPair@cloth@nv@@V?$CuHostAllocator@UIndexPair@cloth@nv@@$01@23@@shdfnd@physx@@QEBAIXZ 00000001800034c0 f i CuCloth.obj
 0001:000024d0       ??0?$Array@UIndexPair@cloth@nv@@V?$CuHostAllocator@UIndexPair@cloth@nv@@$01@23@@shdfnd@physx@@QEAA@AEBV012@AEBV?$CuHostAllocator@UIndexPair@cloth@nv@@$01@cloth@nv@@@Z 00000001800034d0 f i CuCloth.obj
 0001:000024f0       ??0?$Array@UIndexPair@cloth@nv@@V?$CuHostAllocator@UIndexPair@cloth@nv@@$01@23@@shdfnd@physx@@QEAA@AEBV?$CuHostAllocator@UIndexPair@cloth@nv@@$01@cloth@nv@@@Z 00000001800034f0 f i CuCloth.obj
 0001:00002510       ?grow@?$Array@UPhaseConfig@cloth@nv@@VNonTrackingAllocator@23@@shdfnd@physx@@IEAAXI@Z 0000000180003510 f i CuCloth.obj
 0001:00002520       ?destroy@?$Array@UPhaseConfig@cloth@nv@@VNonTrackingAllocator@23@@shdfnd@physx@@KAXPEAUPhaseConfig@cloth@nv@@0@Z 0000000180003520 f i CuCloth.obj
 0001:00002530       ?copy@?$Array@UPhaseConfig@cloth@nv@@VNonTrackingAllocator@23@@shdfnd@physx@@KAXPEAUPhaseConfig@cloth@nv@@0PEBU456@@Z 0000000180003530 f i CuCloth.obj
 0001:00002560       ?deallocate@?$Array@UPhaseConfig@cloth@nv@@VNonTrackingAllocator@23@@shdfnd@physx@@IEAAXPEAX@Z 0000000180003560 f i CuCloth.obj
 0001:00002580       ?isInUserMemory@?$Array@UPhaseConfig@cloth@nv@@VNonTrackingAllocator@23@@shdfnd@physx@@QEBAIXZ 0000000180003580 f i CuCloth.obj
 0001:00002590       ?capacity@?$Array@UPhaseConfig@cloth@nv@@VNonTrackingAllocator@23@@shdfnd@physx@@QEBAIXZ 0000000180003590 f i CuCloth.obj
 0001:000025a0       ??G?$CuDevicePointer@UCuPhaseConfig@cloth@nv@@@cloth@nv@@QEBA_JAEBV012@@Z 00000001800035a0 f i CuCloth.obj
 0001:000025d0       ?dev@?$CuDevicePointer@UCuPhaseConfig@cloth@nv@@@cloth@nv@@QEBA_KXZ 00000001800035d0 f i CuCloth.obj
 0001:000025e0       ??0?$CuDevicePointer@UCuPhaseConfig@cloth@nv@@@cloth@nv@@QEAA@XZ 00000001800035e0 f i CuCloth.obj
 0001:000025f0       ??4?$CuDeviceVector@UCuPhaseConfig@cloth@nv@@@cloth@nv@@QEAAAEAV012@AEBV012@@Z 00000001800035f0 f i CuCloth.obj
 0001:000026e0       ?grow@?$Array@VPxVec4@physx@@V?$CuHostAllocator@VPxVec4@physx@@$01@cloth@nv@@@shdfnd@physx@@IEAAXI@Z 00000001800036e0 f i CuCloth.obj
 0001:000026f0       ?destroy@?$Array@VPxVec4@physx@@V?$CuHostAllocator@VPxVec4@physx@@$01@cloth@nv@@@shdfnd@physx@@KAXPEAVPxVec4@3@0@Z 00000001800036f0 f i CuCloth.obj
 0001:00002700       ?deallocate@?$Array@VPxVec4@physx@@V?$CuHostAllocator@VPxVec4@physx@@$01@cloth@nv@@@shdfnd@physx@@IEAAXPEAX@Z 0000000180003700 f i CuCloth.obj
 0001:00002730       ?isInUserMemory@?$Array@VPxVec4@physx@@V?$CuHostAllocator@VPxVec4@physx@@$01@cloth@nv@@@shdfnd@physx@@QEBAIXZ 0000000180003730 f i CuCloth.obj
 0001:00002740       ?swap@?$Array@VPxVec4@physx@@V?$CuHostAllocator@VPxVec4@physx@@$01@cloth@nv@@@shdfnd@physx@@QEAAXAEAV123@@Z 0000000180003740 f i CuCloth.obj
 0001:00002770       ??0?$Array@VPxVec4@physx@@V?$CuHostAllocator@VPxVec4@physx@@$01@cloth@nv@@@shdfnd@physx@@QEAA@AEBV012@AEBV?$CuHostAllocator@VPxVec4@physx@@$01@cloth@nv@@@Z 0000000180003770 f i CuCloth.obj
 0001:00002790       ??0?$Array@VPxVec4@physx@@V?$CuHostAllocator@VPxVec4@physx@@$01@cloth@nv@@@shdfnd@physx@@QEAA@AEBV?$CuHostAllocator@VPxVec4@physx@@$01@cloth@nv@@@Z 0000000180003790 f i CuCloth.obj
 0001:000027b0       ??G?$CuDevicePointer@VPxVec4@physx@@@cloth@nv@@QEBA_JAEBV012@@Z 00000001800037b0 f i CuCloth.obj
 0001:000027c0       ??Y?$CuDevicePointer@VPxVec4@physx@@@cloth@nv@@QEAAAEAV012@_J@Z 00000001800037c0 f i CuCloth.obj
 0001:000027d0       ??H?$CuDevicePointer@VPxVec4@physx@@@cloth@nv@@QEBA?AV012@AEB_J@Z 00000001800037d0 f i CuCloth.obj
 0001:000027f0       ??0?$CuDevicePointer@VPxVec4@physx@@@cloth@nv@@QEAA@AEBV012@@Z 00000001800037f0 f i CuCloth.obj
 0001:00002800       ??0?$CuDevicePointer@VPxVec4@physx@@@cloth@nv@@QEAA@XZ 0000000180003800 f i CuCloth.obj
 0001:00002810       ?size@?$CuDeviceVector@VPxVec4@physx@@@cloth@nv@@QEBA_KXZ 0000000180003810 f i CuCloth.obj
 0001:00002820       ??4?$CuDeviceVector@VPxVec4@physx@@@cloth@nv@@QEAAAEAV012@AEBV012@@Z 0000000180003820 f i CuCloth.obj
 0001:000028b0       ??G?$CuDevicePointer@M@cloth@nv@@QEBA_JAEBV012@@Z 00000001800038b0 f i CuCloth.obj
 0001:000028c0       ?get@?$CuDevicePointer@M@cloth@nv@@QEBAPEAMXZ 00000001800038c0 f i CuCloth.obj
 0001:000028d0       ?size@?$CuDeviceVector@M@cloth@nv@@QEBA_KXZ 00000001800038d0 f i CuCloth.obj
 0001:000028e0       ?resize@?$CuDeviceVector@U?$Vec4T@G@cloth@nv@@@cloth@nv@@QEAAX_K@Z 00000001800038e0 f i CuCloth.obj
 0001:00002930       ?resize@?$CuDeviceVector@I@cloth@nv@@QEAAX_K@Z 0000000180003930 f i CuCloth.obj
 0001:00002980       ?deallocate@?$CuHostAllocator@VPxVec3@physx@@$01@cloth@nv@@QEAAXPEAX@Z 0000000180003980 f i CuCloth.obj
 0001:000029b0       ?deallocate@?$CuHostAllocator@I$01@cloth@nv@@QEAAXPEAX@Z 00000001800039b0 f i CuCloth.obj
 0001:000029e0       ?deallocate@?$CuHostAllocator@UIndexPair@cloth@nv@@$01@cloth@nv@@QEAAXPEAX@Z 00000001800039e0 f i CuCloth.obj
 0001:00002a10       ?resize@?$CuDeviceVector@UCuPhaseConfig@cloth@nv@@@cloth@nv@@QEAAX_K@Z 0000000180003a10 f i CuCloth.obj
 0001:00002a80       ?deallocate@?$CuHostAllocator@VPxVec4@physx@@$01@cloth@nv@@QEAAXPEAX@Z 0000000180003a80 f i CuCloth.obj
 0001:00002ab0       ??H?$CuDevicePointer@U?$Vec4T@G@cloth@nv@@@cloth@nv@@QEBA?AV012@AEB_J@Z 0000000180003ab0 f i CuCloth.obj
 0001:00002ad0       ?reserve@?$CuDeviceVector@U?$Vec4T@G@cloth@nv@@@cloth@nv@@QEAAX_K@Z 0000000180003ad0 f i CuCloth.obj
 0001:00002bc0       ?capacity@?$CuDeviceVector@U?$Vec4T@G@cloth@nv@@@cloth@nv@@QEBA_KXZ 0000000180003bc0 f i CuCloth.obj
 0001:00002bd0       ??H?$CuDevicePointer@I@cloth@nv@@QEBA?AV012@AEB_J@Z 0000000180003bd0 f i CuCloth.obj
 0001:00002bf0       ?reserve@?$CuDeviceVector@I@cloth@nv@@QEAAX_K@Z 0000000180003bf0 f i CuCloth.obj
 0001:00002ce0       ?capacity@?$CuDeviceVector@I@cloth@nv@@QEBA_KXZ 0000000180003ce0 f i CuCloth.obj
 0001:00002cf0       ??H?$CuDevicePointer@UCuPhaseConfig@cloth@nv@@@cloth@nv@@QEBA?AV012@AEB_J@Z 0000000180003cf0 f i CuCloth.obj
 0001:00002d10       ?reserve@?$CuDeviceVector@UCuPhaseConfig@cloth@nv@@@cloth@nv@@QEAAX_K@Z 0000000180003d10 f i CuCloth.obj
 0001:00002e50       ?capacity@?$CuDeviceVector@UCuPhaseConfig@cloth@nv@@@cloth@nv@@QEBA_KXZ 0000000180003e50 f i CuCloth.obj
 0001:00002e80       ??$max@H@std@@YAAEBHAEBH0@Z 0000000180003e80 f i CuCloth.obj
 0001:00002e90       ??$min@I@std@@YAAEBIAEBI0@Z 0000000180003e90 f i CuCloth.obj
 0001:00002ea0       ??$min@H@std@@YAAEBHAEBH0@Z 0000000180003ea0 f i CuCloth.obj
 0001:00002eb0       ??$PX_UNUSED@W4PxZERO@physx@@@@YAXAEBW4PxZERO@physx@@@Z 0000000180003eb0 f i CuCloth.obj
 0001:00002ec0       ??$PX_UNUSED@W4PxIDENTITY@physx@@@@YAXAEBW4PxIDENTITY@physx@@@Z 0000000180003ec0 f i CuCloth.obj
 0001:00002ed0       ??0?$Range@$$CBUPhaseConfig@cloth@nv@@@cloth@nv@@QEAA@PEBUPhaseConfig@12@0@Z 0000000180003ed0 f i CuCloth.obj
 0001:00002ee0       ?size@?$Range@$$CBUPhaseConfig@cloth@nv@@@cloth@nv@@QEBAIXZ 0000000180003ee0 f i CuCloth.obj
 0001:00002f10       ?empty@?$Range@$$CBUPhaseConfig@cloth@nv@@@cloth@nv@@QEBA_NXZ 0000000180003f10 f i CuCloth.obj
 0001:00002f20       ?popFront@?$Range@$$CBUPhaseConfig@cloth@nv@@@cloth@nv@@QEAAXXZ 0000000180003f20 f i CuCloth.obj
 0001:00002f30       ?begin@?$Range@$$CBUPhaseConfig@cloth@nv@@@cloth@nv@@QEBAPEBUPhaseConfig@23@XZ 0000000180003f30 f i CuCloth.obj
 0001:00002f40       ?end@?$Range@$$CBUPhaseConfig@cloth@nv@@@cloth@nv@@QEBAPEBUPhaseConfig@23@XZ 0000000180003f40 f i CuCloth.obj
 0001:00002f50       ?front@?$Range@$$CBUPhaseConfig@cloth@nv@@@cloth@nv@@QEBAAEBUPhaseConfig@23@XZ 0000000180003f50 f i CuCloth.obj
 0001:00002f60       ?size@?$Range@$$CBVPxVec4@physx@@@cloth@nv@@QEBAIXZ 0000000180003f60 f i CuCloth.obj
 0001:00002f70       ?begin@?$Range@$$CBVPxVec4@physx@@@cloth@nv@@QEBAPEBVPxVec4@physx@@XZ 0000000180003f70 f i CuCloth.obj
 0001:00002f80       ?end@?$Range@$$CBVPxVec4@physx@@@cloth@nv@@QEBAPEBVPxVec4@physx@@XZ 0000000180003f80 f i CuCloth.obj
 0001:00002f90       ?begin@?$Range@$$CBI@cloth@nv@@QEBAPEBIXZ 0000000180003f90 f i CuCloth.obj
 0001:00002fa0       ?end@?$Range@$$CBI@cloth@nv@@QEBAPEBIXZ 0000000180003fa0 f i CuCloth.obj
 0001:00002fb0       ??0?$Range@$$CBVPxVec3@physx@@@cloth@nv@@QEAA@PEBVPxVec3@physx@@0@Z 0000000180003fb0 f i CuCloth.obj
 0001:00002fc0       ?size@?$Range@$$CBVPxVec3@physx@@@cloth@nv@@QEBAIXZ 0000000180003fc0 f i CuCloth.obj
 0001:00002ff0       ?empty@?$Range@$$CBVPxVec3@physx@@@cloth@nv@@QEBA_NXZ 0000000180003ff0 f i CuCloth.obj
 0001:00003000       ?popFront@?$Range@$$CBVPxVec3@physx@@@cloth@nv@@QEAAXXZ 0000000180004000 f i CuCloth.obj
 0001:00003010       ?begin@?$Range@$$CBVPxVec3@physx@@@cloth@nv@@QEBAPEBVPxVec3@physx@@XZ 0000000180004010 f i CuCloth.obj
 0001:00003020       ?end@?$Range@$$CBVPxVec3@physx@@@cloth@nv@@QEBAPEBVPxVec3@physx@@XZ 0000000180004020 f i CuCloth.obj
 0001:00003030       ?front@?$Range@$$CBVPxVec3@physx@@@cloth@nv@@QEBAAEBVPxVec3@physx@@XZ 0000000180004030 f i CuCloth.obj
 0001:00003040       ?size@?$Range@$$BY03$$CBI@cloth@nv@@QEBAIXZ 0000000180004040 f i CuCloth.obj
 0001:00003050       ??0?$Range@VPxVec4@physx@@@cloth@nv@@QEAA@PEAVPxVec4@physx@@0@Z 0000000180004050 f i CuCloth.obj
 0001:00003060       ?resizeUninitialized@?$Array@VPxVec4@physx@@V?$CuHostAllocator@VPxVec4@physx@@$01@cloth@nv@@@shdfnd@physx@@QEAAXI@Z 0000000180004060 f i CuCloth.obj
 0001:000030a0       ?recreate@?$Array@VPxVec4@physx@@V?$CuHostAllocator@VPxVec4@physx@@$01@cloth@nv@@@shdfnd@physx@@IEAAXI@Z 00000001800040a0 f i CuCloth.obj
 0001:00003120       ?getFabric@?$ClothImpl@VCuCloth@cloth@nv@@@cloth@nv@@UEBAAEAVFabric@23@XZ 0000000180004120 f i CuCloth.obj
 0001:00003130       ?getFactory@?$ClothImpl@VCuCloth@cloth@nv@@@cloth@nv@@UEBAAEAVFactory@23@XZ 0000000180004130 f i CuCloth.obj
 0001:00003140       ?setTranslation@?$ClothImpl@VCuCloth@cloth@nv@@@cloth@nv@@UEAAXAEBVPxVec3@physx@@@Z 0000000180004140 f i CuCloth.obj
 0001:000031b0       ?setRotation@?$ClothImpl@VCuCloth@cloth@nv@@@cloth@nv@@UEAAXAEBVPxQuat@physx@@@Z 00000001800041b0 f i CuCloth.obj
 0001:00003260       ?getTranslation@?$ClothImpl@VCuCloth@cloth@nv@@@cloth@nv@@UEBAAEBVPxVec3@physx@@XZ 0000000180004260 f i CuCloth.obj
 0001:00003270       ?getRotation@?$ClothImpl@VCuCloth@cloth@nv@@@cloth@nv@@UEBAAEBVPxQuat@physx@@XZ 0000000180004270 f i CuCloth.obj
 0001:00003280       ?clearInertia@?$ClothImpl@VCuCloth@cloth@nv@@@cloth@nv@@UEAAXXZ 0000000180004280 f i CuCloth.obj
 0001:00003320       ?teleport@?$ClothImpl@VCuCloth@cloth@nv@@@cloth@nv@@UEAAXAEBVPxVec3@physx@@@Z 0000000180004320 f i CuCloth.obj
 0001:000033a0       ?teleportToLocation@?$ClothImpl@VCuCloth@cloth@nv@@@cloth@nv@@UEAAXAEBVPxVec3@physx@@AEBVPxQuat@5@@Z 00000001800043a0 f i CuCloth.obj
 0001:00003420       ?ignoreVelocityDiscontinuity@?$ClothImpl@VCuCloth@cloth@nv@@@cloth@nv@@UEAAXXZ 0000000180004420 f i CuCloth.obj
 0001:00003430       ?getPreviousIterationDt@?$ClothImpl@VCuCloth@cloth@nv@@@cloth@nv@@UEBAMXZ 0000000180004430 f i CuCloth.obj
 0001:00003440       ?setGravity@?$ClothImpl@VCuCloth@cloth@nv@@@cloth@nv@@UEAAXAEBVPxVec3@physx@@@Z 0000000180004440 f i CuCloth.obj
 0001:000034a0       ?getGravity@?$ClothImpl@VCuCloth@cloth@nv@@@cloth@nv@@UEBA?AVPxVec3@physx@@XZ 00000001800044a0 f i CuCloth.obj
 0001:000034c0       ?setDamping@?$ClothImpl@VCuCloth@cloth@nv@@@cloth@nv@@UEAAXAEBVPxVec3@physx@@@Z 00000001800044c0 f i CuCloth.obj
 0001:000035d0       ?getDamping@?$ClothImpl@VCuCloth@cloth@nv@@@cloth@nv@@UEBA?AVPxVec3@physx@@XZ 00000001800045d0 f i CuCloth.obj
 0001:00003620       ?setLinearDrag@?$ClothImpl@VCuCloth@cloth@nv@@@cloth@nv@@UEAAXAEBVPxVec3@physx@@@Z 0000000180004620 f i CuCloth.obj
 0001:00003730       ?getLinearDrag@?$ClothImpl@VCuCloth@cloth@nv@@@cloth@nv@@UEBA?AVPxVec3@physx@@XZ 0000000180004730 f i CuCloth.obj
 0001:00003780       ?setAngularDrag@?$ClothImpl@VCuCloth@cloth@nv@@@cloth@nv@@UEAAXAEBVPxVec3@physx@@@Z 0000000180004780 f i CuCloth.obj
 0001:00003890       ?getAngularDrag@?$ClothImpl@VCuCloth@cloth@nv@@@cloth@nv@@UEBA?AVPxVec3@physx@@XZ 0000000180004890 f i CuCloth.obj
 0001:000038e0       ?setLinearInertia@?$ClothImpl@VCuCloth@cloth@nv@@@cloth@nv@@UEAAXAEBVPxVec3@physx@@@Z 00000001800048e0 f i CuCloth.obj
 0001:00003940       ?getLinearInertia@?$ClothImpl@VCuCloth@cloth@nv@@@cloth@nv@@UEBA?AVPxVec3@physx@@XZ 0000000180004940 f i CuCloth.obj
 0001:00003960       ?setAngularInertia@?$ClothImpl@VCuCloth@cloth@nv@@@cloth@nv@@UEAAXAEBVPxVec3@physx@@@Z 0000000180004960 f i CuCloth.obj
 0001:000039c0       ?getAngularInertia@?$ClothImpl@VCuCloth@cloth@nv@@@cloth@nv@@UEBA?AVPxVec3@physx@@XZ 00000001800049c0 f i CuCloth.obj
 0001:000039e0       ?setCentrifugalInertia@?$ClothImpl@VCuCloth@cloth@nv@@@cloth@nv@@UEAAXAEBVPxVec3@physx@@@Z 00000001800049e0 f i CuCloth.obj
 0001:00003a40       ?getCentrifugalInertia@?$ClothImpl@VCuCloth@cloth@nv@@@cloth@nv@@UEBA?AVPxVec3@physx@@XZ 0000000180004a40 f i CuCloth.obj
 0001:00003a60       ?setSolverFrequency@?$ClothImpl@VCuCloth@cloth@nv@@@cloth@nv@@UEAAXM@Z 0000000180004a60 f i CuCloth.obj
 0001:00003ab0       ?getSolverFrequency@?$ClothImpl@VCuCloth@cloth@nv@@@cloth@nv@@UEBAMXZ 0000000180004ab0 f i CuCloth.obj
 0001:00003ac0       ?setStiffnessFrequency@?$ClothImpl@VCuCloth@cloth@nv@@@cloth@nv@@UEAAXM@Z 0000000180004ac0 f i CuCloth.obj
 0001:00003b00       ?getStiffnessFrequency@?$ClothImpl@VCuCloth@cloth@nv@@@cloth@nv@@UEBAMXZ 0000000180004b00 f i CuCloth.obj
 0001:00003b10       ?setAcceleationFilterWidth@?$ClothImpl@VCuCloth@cloth@nv@@@cloth@nv@@UEAAXI@Z 0000000180004b10 f i CuCloth.obj
 0001:00003b20       ?getAccelerationFilterWidth@?$ClothImpl@VCuCloth@cloth@nv@@@cloth@nv@@UEBAIXZ 0000000180004b20 f i CuCloth.obj
 0001:00003b30       ?setSpheres@?$ClothImpl@VCuCloth@cloth@nv@@@cloth@nv@@UEAAXU?$Range@$$CBVPxVec4@physx@@@23@II@Z 0000000180004b30 f i CuCloth.obj
 0001:00004070       ?getNumSpheres@?$ClothImpl@VCuCloth@cloth@nv@@@cloth@nv@@UEBAIXZ 0000000180005070 f i CuCloth.obj
 0001:00004080       ?setCapsules@?$ClothImpl@VCuCloth@cloth@nv@@@cloth@nv@@UEAAXU?$Range@$$CBI@23@II@Z 0000000180005080 f i CuCloth.obj
 0001:000042a0       ?getNumCapsules@?$ClothImpl@VCuCloth@cloth@nv@@@cloth@nv@@UEBAIXZ 00000001800052a0 f i CuCloth.obj
 0001:000042b0       ?setPlanes@?$ClothImpl@VCuCloth@cloth@nv@@@cloth@nv@@UEAAXU?$Range@$$CBVPxVec4@physx@@@23@II@Z 00000001800052b0 f i CuCloth.obj
 0001:00004800       ?getNumPlanes@?$ClothImpl@VCuCloth@cloth@nv@@@cloth@nv@@UEBAIXZ 0000000180005800 f i CuCloth.obj
 0001:00004810       ?setConvexes@?$ClothImpl@VCuCloth@cloth@nv@@@cloth@nv@@UEAAXU?$Range@$$CBI@23@II@Z 0000000180005810 f i CuCloth.obj
 0001:000049a0       ?getNumConvexes@?$ClothImpl@VCuCloth@cloth@nv@@@cloth@nv@@UEBAIXZ 00000001800059a0 f i CuCloth.obj
 0001:000049b0       ?setTriangles@?$ClothImpl@VCuCloth@cloth@nv@@@cloth@nv@@UEAAXU?$Range@$$CBVPxVec3@physx@@@23@0I@Z 00000001800059b0 f i CuCloth.obj
 0001:00004d20       ?setTriangles@?$ClothImpl@VCuCloth@cloth@nv@@@cloth@nv@@UEAAXU?$Range@$$CBVPxVec3@physx@@@23@II@Z 0000000180005d20 f i CuCloth.obj
 0001:00005270       ?getNumTriangles@?$ClothImpl@VCuCloth@cloth@nv@@@cloth@nv@@UEBAIXZ 0000000180006270 f i CuCloth.obj
 0001:00005280       ?isContinuousCollisionEnabled@?$ClothImpl@VCuCloth@cloth@nv@@@cloth@nv@@UEBA_NXZ 0000000180006280 f i CuCloth.obj
 0001:00005290       ?enableContinuousCollision@?$ClothImpl@VCuCloth@cloth@nv@@@cloth@nv@@UEAAX_N@Z 0000000180006290 f i CuCloth.obj
 0001:000052e0       ?getCollisionMassScale@?$ClothImpl@VCuCloth@cloth@nv@@@cloth@nv@@UEBAMXZ 00000001800062e0 f i CuCloth.obj
 0001:000052f0       ?setCollisionMassScale@?$ClothImpl@VCuCloth@cloth@nv@@@cloth@nv@@UEAAXM@Z 00000001800062f0 f i CuCloth.obj
 0001:00005340       ?setFriction@?$ClothImpl@VCuCloth@cloth@nv@@@cloth@nv@@UEAAXM@Z 0000000180006340 f i CuCloth.obj
 0001:00005350       ?getFriction@?$ClothImpl@VCuCloth@cloth@nv@@@cloth@nv@@UEBAMXZ 0000000180006350 f i CuCloth.obj
 0001:00005360       ?getNumVirtualParticleWeights@?$ClothImpl@VCuCloth@cloth@nv@@@cloth@nv@@UEBAIXZ 0000000180006360 f i CuCloth.obj
 0001:00005380       ?setTetherConstraintScale@?$ClothImpl@VCuCloth@cloth@nv@@@cloth@nv@@UEAAXM@Z 0000000180006380 f i CuCloth.obj
 0001:000053d0       ?getTetherConstraintScale@?$ClothImpl@VCuCloth@cloth@nv@@@cloth@nv@@UEBAMXZ 00000001800063d0 f i CuCloth.obj
 0001:000053e0       ?setTetherConstraintStiffness@?$ClothImpl@VCuCloth@cloth@nv@@@cloth@nv@@UEAAXM@Z 00000001800063e0 f i CuCloth.obj
 0001:00005460       ?getTetherConstraintStiffness@?$ClothImpl@VCuCloth@cloth@nv@@@cloth@nv@@UEBAMXZ 0000000180006460 f i CuCloth.obj
 0001:000054b0       ?getMotionConstraints@?$ClothImpl@VCuCloth@cloth@nv@@@cloth@nv@@UEAA?AU?$Range@VPxVec4@physx@@@23@XZ 00000001800064b0 f i CuCloth.obj
 0001:00005510       ?clearMotionConstraints@?$ClothImpl@VCuCloth@cloth@nv@@@cloth@nv@@UEAAXXZ 0000000180006510 f i CuCloth.obj
 0001:00005560       ?getNumMotionConstraints@?$ClothImpl@VCuCloth@cloth@nv@@@cloth@nv@@UEBAIXZ 0000000180006560 f i CuCloth.obj
 0001:00005580       ?setMotionConstraintScaleBias@?$ClothImpl@VCuCloth@cloth@nv@@@cloth@nv@@UEAAXMM@Z 0000000180006580 f i CuCloth.obj
 0001:000055e0       ?getMotionConstraintScale@?$ClothImpl@VCuCloth@cloth@nv@@@cloth@nv@@UEBAMXZ 00000001800065e0 f i CuCloth.obj
 0001:000055f0       ?getMotionConstraintBias@?$ClothImpl@VCuCloth@cloth@nv@@@cloth@nv@@UEBAMXZ 00000001800065f0 f i CuCloth.obj
 0001:00005600       ?setMotionConstraintStiffness@?$ClothImpl@VCuCloth@cloth@nv@@@cloth@nv@@UEAAXM@Z 0000000180006600 f i CuCloth.obj
 0001:00005680       ?getMotionConstraintStiffness@?$ClothImpl@VCuCloth@cloth@nv@@@cloth@nv@@UEBAMXZ 0000000180006680 f i CuCloth.obj
 0001:000056d0       ?getSeparationConstraints@?$ClothImpl@VCuCloth@cloth@nv@@@cloth@nv@@UEAA?AU?$Range@VPxVec4@physx@@@23@XZ 00000001800066d0 f i CuCloth.obj
 0001:00005730       ?clearSeparationConstraints@?$ClothImpl@VCuCloth@cloth@nv@@@cloth@nv@@UEAAXXZ 0000000180006730 f i CuCloth.obj
 0001:00005780       ?getNumSeparationConstraints@?$ClothImpl@VCuCloth@cloth@nv@@@cloth@nv@@UEBAIXZ 0000000180006780 f i CuCloth.obj
 0001:000057a0       ?clearInterpolation@?$ClothImpl@VCuCloth@cloth@nv@@@cloth@nv@@UEAAXXZ 00000001800067a0 f i CuCloth.obj
 0001:00005980       ?getNumParticleAccelerations@?$ClothImpl@VCuCloth@cloth@nv@@@cloth@nv@@UEBAIXZ 0000000180006980 f i CuCloth.obj
 0001:000059a0       ?setWindVelocity@?$ClothImpl@VCuCloth@cloth@nv@@@cloth@nv@@UEAAXVPxVec3@physx@@@Z 00000001800069a0 f i CuCloth.obj
 0001:00005a20       ?getWindVelocity@?$ClothImpl@VCuCloth@cloth@nv@@@cloth@nv@@UEBA?AVPxVec3@physx@@XZ 0000000180006a20 f i CuCloth.obj
 0001:00005a40       ?setDragCoefficient@?$ClothImpl@VCuCloth@cloth@nv@@@cloth@nv@@UEAAXM@Z 0000000180006a40 f i CuCloth.obj
 0001:00005ac0       ?getDragCoefficient@?$ClothImpl@VCuCloth@cloth@nv@@@cloth@nv@@UEBAMXZ 0000000180006ac0 f i CuCloth.obj
 0001:00005b10       ?setLiftCoefficient@?$ClothImpl@VCuCloth@cloth@nv@@@cloth@nv@@UEAAXM@Z 0000000180006b10 f i CuCloth.obj
 0001:00005b90       ?getLiftCoefficient@?$ClothImpl@VCuCloth@cloth@nv@@@cloth@nv@@UEBAMXZ 0000000180006b90 f i CuCloth.obj
 0001:00005be0       ?setFluidDensity@?$ClothImpl@VCuCloth@cloth@nv@@@cloth@nv@@UEAAXM@Z 0000000180006be0 f i CuCloth.obj
 0001:00005c30       ?getFluidDensity@?$ClothImpl@VCuCloth@cloth@nv@@@cloth@nv@@UEBAMXZ 0000000180006c30 f i CuCloth.obj
 0001:00005c40       ?setSelfCollisionDistance@?$ClothImpl@VCuCloth@cloth@nv@@@cloth@nv@@UEAAXM@Z 0000000180006c40 f i CuCloth.obj
 0001:00005c90       ?getSelfCollisionDistance@?$ClothImpl@VCuCloth@cloth@nv@@@cloth@nv@@UEBAMXZ 0000000180006c90 f i CuCloth.obj
 0001:00005ca0       ?setSelfCollisionStiffness@?$ClothImpl@VCuCloth@cloth@nv@@@cloth@nv@@UEAAXM@Z 0000000180006ca0 f i CuCloth.obj
 0001:00005d20       ?getSelfCollisionStiffness@?$ClothImpl@VCuCloth@cloth@nv@@@cloth@nv@@UEBAMXZ 0000000180006d20 f i CuCloth.obj
 0001:00005d70       ?getNumSelfCollisionIndices@?$ClothImpl@VCuCloth@cloth@nv@@@cloth@nv@@UEBAIXZ 0000000180006d70 f i CuCloth.obj
 0001:00005d90       ?setRestPositions@?$ClothImpl@VCuCloth@cloth@nv@@@cloth@nv@@UEAAXU?$Range@$$CBVPxVec4@physx@@@23@@Z 0000000180006d90 f i CuCloth.obj
 0001:00005e30       ?getNumRestPositions@?$ClothImpl@VCuCloth@cloth@nv@@@cloth@nv@@UEBAIXZ 0000000180006e30 f i CuCloth.obj
 0001:00005e50       ?getBoundingBoxCenter@?$ClothImpl@VCuCloth@cloth@nv@@@cloth@nv@@UEBAAEBVPxVec3@physx@@XZ 0000000180006e50 f i CuCloth.obj
 0001:00005e60       ?getBoundingBoxScale@?$ClothImpl@VCuCloth@cloth@nv@@@cloth@nv@@UEBAAEBVPxVec3@physx@@XZ 0000000180006e60 f i CuCloth.obj
 0001:00005e70       ?setSleepThreshold@?$ClothImpl@VCuCloth@cloth@nv@@@cloth@nv@@UEAAXM@Z 0000000180006e70 f i CuCloth.obj
 0001:00005ec0       ?getSleepThreshold@?$ClothImpl@VCuCloth@cloth@nv@@@cloth@nv@@UEBAMXZ 0000000180006ec0 f i CuCloth.obj
 0001:00005ed0       ?setSleepTestInterval@?$ClothImpl@VCuCloth@cloth@nv@@@cloth@nv@@UEAAXI@Z 0000000180006ed0 f i CuCloth.obj
 0001:00005f20       ?getSleepTestInterval@?$ClothImpl@VCuCloth@cloth@nv@@@cloth@nv@@UEBAIXZ 0000000180006f20 f i CuCloth.obj
 0001:00005f30       ?setSleepAfterCount@?$ClothImpl@VCuCloth@cloth@nv@@@cloth@nv@@UEAAXI@Z 0000000180006f30 f i CuCloth.obj
 0001:00005f80       ?getSleepAfterCount@?$ClothImpl@VCuCloth@cloth@nv@@@cloth@nv@@UEBAIXZ 0000000180006f80 f i CuCloth.obj
 0001:00005f90       ?getSleepPassCount@?$ClothImpl@VCuCloth@cloth@nv@@@cloth@nv@@UEBAIXZ 0000000180006f90 f i CuCloth.obj
 0001:00005fa0       ?isAsleep@?$ClothImpl@VCuCloth@cloth@nv@@@cloth@nv@@UEBA_NXZ 0000000180006fa0 f i CuCloth.obj
 0001:00005fe0       ?putToSleep@?$ClothImpl@VCuCloth@cloth@nv@@@cloth@nv@@UEAAXXZ 0000000180006fe0 f i CuCloth.obj
 0001:00005ff0       ?isSleeping@?$ClothImpl@VCuCloth@cloth@nv@@@cloth@nv@@UEBA_NXZ 0000000180006ff0 f i CuCloth.obj
 0001:00006000       ?wakeUp@?$ClothImpl@VCuCloth@cloth@nv@@@cloth@nv@@UEAAXXZ 0000000180007000 f i CuCloth.obj
 0001:00006010       ?setUserData@?$ClothImpl@VCuCloth@cloth@nv@@@cloth@nv@@UEAAXPEAX@Z 0000000180007010 f i CuCloth.obj
 0001:00006020       ?getUserData@?$ClothImpl@VCuCloth@cloth@nv@@@cloth@nv@@UEBAPEAXXZ 0000000180007020 f i CuCloth.obj
 0001:00006030       ?resizeUninitialized@?$Array@UPhaseConfig@cloth@nv@@VNonTrackingAllocator@23@@shdfnd@physx@@QEAAXI@Z 0000000180007030 f i CuCloth.obj
 0001:00006070       ?growAndPushBack@?$Array@UPhaseConfig@cloth@nv@@VNonTrackingAllocator@23@@shdfnd@physx@@IEAAAEAUPhaseConfig@cloth@nv@@AEBU456@@Z 0000000180007070 f i CuCloth.obj
 0001:00006180       ?recreate@?$Array@UPhaseConfig@cloth@nv@@VNonTrackingAllocator@23@@shdfnd@physx@@IEAAXI@Z 0000000180007180 f i CuCloth.obj
 0001:00006240       ?resizeUninitialized@?$Array@IVNonTrackingAllocator@cloth@nv@@@shdfnd@physx@@QEAAXI@Z 0000000180007240 f i CuCloth.obj
 0001:00006280       ?growAndPushBack@?$Array@U?$Vec4T@G@cloth@nv@@VNonTrackingAllocator@23@@shdfnd@physx@@IEAAAEAU?$Vec4T@G@cloth@nv@@AEBU456@@Z 0000000180007280 f i CuCloth.obj
 0001:00006370       ?recreate@?$Array@U?$Vec4T@G@cloth@nv@@VNonTrackingAllocator@23@@shdfnd@physx@@IEAAXI@Z 0000000180007370 f i CuCloth.obj
 0001:00006420       ??$min@M@std@@YAAEBMAEBM0@Z 0000000180007420 f i CuCloth.obj
 0001:00006430       ??$initialize@VCuCloth@cloth@nv@@@cloth@nv@@YAXAEAVCuCloth@01@PEBVPxVec4@physx@@1@Z 0000000180007430 f i CuCloth.obj
 0001:000067e0       ??$copy@VCuCloth@cloth@nv@@V123@@cloth@nv@@YAXAEAVCuCloth@01@AEBV201@@Z 00000001800077e0 f i CuCloth.obj
 0001:00006ac0       ??$max@I@std@@YAAEBIAEBI0@Z 0000000180007ac0 f i CuCloth.obj
 0001:00006ad0       ?growAndPushBack@?$Array@UCuPhaseConfig@cloth@nv@@VNonTrackingAllocator@23@@shdfnd@physx@@IEAAAEAUCuPhaseConfig@cloth@nv@@AEBU456@@Z 0000000180007ad0 f i CuCloth.obj
 0001:00006bf0       ?recreate@?$Array@UCuPhaseConfig@cloth@nv@@VNonTrackingAllocator@23@@shdfnd@physx@@IEAAXI@Z 0000000180007bf0 f i CuCloth.obj
 0001:00006cc0       ??$assign@PEAUCuPhaseConfig@cloth@nv@@@?$CuDeviceVector@UCuPhaseConfig@cloth@nv@@@cloth@nv@@QEAAXPEAUCuPhaseConfig@12@0@Z 0000000180007cc0 f i CuCloth.obj
 0001:00006d80       ??$min@PEBVPxVec3@physx@@@std@@YAAEBQEBVPxVec3@physx@@AEBQEBV12@0@Z 0000000180007d80 f i CuCloth.obj
 0001:00006d90       ??$getMappedParticles@VPxVec4@physx@@@?$ClothImpl@VCuCloth@cloth@nv@@@cloth@nv@@QEBA?AU?$MappedRange@VPxVec4@physx@@@12@PEAVPxVec4@physx@@@Z 0000000180007d90 f i CuCloth.obj
 0001:00006e20       ??$getMappedParticles@$$CBVPxVec4@physx@@@?$ClothImpl@VCuCloth@cloth@nv@@@cloth@nv@@QEBA?AU?$MappedRange@$$CBVPxVec4@physx@@@12@PEBVPxVec4@physx@@@Z 0000000180007e20 f i CuCloth.obj
 0001:00006eb0       ??$assign@PEBI@?$CuDeviceVector@I@cloth@nv@@QEAAXPEBI0@Z 0000000180007eb0 f i CuCloth.obj
 0001:00006f40       ??$min@_J@std@@YAAEB_JAEB_J0@Z 0000000180007f40 f i CuCloth.obj
 0001:00006f50       ??$?AH@?$Vec4T@I@cloth@nv@@QEBAAEBIH@Z 0000000180007f50 f i CuCloth.obj
 0001:00006f60       ??$max@E@std@@YAAEBEAEBE0@Z 0000000180007f60 f i CuCloth.obj
 0001:00006f70       ??$?0I@?$Vec4T@G@cloth@nv@@QEAA@AEBU?$Vec4T@I@12@@Z 0000000180007f70 f i CuCloth.obj
 0001:00006fa0       ?growAndPushBack@?$Array@VPxVec4@physx@@VNonTrackingAllocator@cloth@nv@@@shdfnd@physx@@IEAAAEAVPxVec4@3@AEBV43@@Z 0000000180007fa0 f i CuCloth.obj
 0001:00007090       ?recreate@?$Array@VPxVec4@physx@@VNonTrackingAllocator@cloth@nv@@@shdfnd@physx@@IEAAXI@Z 0000000180008090 f i CuCloth.obj
 0001:00007130       ??$?4VNonTrackingAllocator@cloth@nv@@@?$CuDeviceVector@U?$Vec4T@G@cloth@nv@@@cloth@nv@@QEAAAEAV012@AEBV?$Array@U?$Vec4T@G@cloth@nv@@VNonTrackingAllocator@23@@shdfnd@physx@@@Z 0000000180008130 f i CuCloth.obj
 0001:00007170       ??$?4VNonTrackingAllocator@cloth@nv@@@?$CuDeviceVector@I@cloth@nv@@QEAAAEAV012@AEBV?$Array@IVNonTrackingAllocator@cloth@nv@@@shdfnd@physx@@@Z 0000000180008170 f i CuCloth.obj
 0001:000071b0       ??$?4VNonTrackingAllocator@cloth@nv@@@?$CuDeviceVector@VPxVec4@physx@@@cloth@nv@@QEAAAEAV012@AEBV?$Array@VPxVec4@physx@@VNonTrackingAllocator@cloth@nv@@@shdfnd@physx@@@Z 00000001800081b0 f i CuCloth.obj
 0001:000071e0       ??$?0M@?$CuDevicePointer@M@cloth@nv@@QEAA@PEAM@Z 00000001800081e0 f i CuCloth.obj
 0001:000071f0       ??$max@_K@std@@YAAEB_KAEB_K0@Z 00000001800081f0 f i CuCloth.obj
 0001:00007200       ??$?8M@?$CuDevicePointer@M@cloth@nv@@QEBA_NAEBV012@@Z 0000000180008200 f i CuCloth.obj
 0001:00007210       ??$?8I@?$CuDevicePointer@I@cloth@nv@@QEBA_NAEBV012@@Z 0000000180008210 f i CuCloth.obj
 0001:00007220       ??$copy@VNonTrackingAllocator@cloth@nv@@@?$Array@UPhaseConfig@cloth@nv@@VNonTrackingAllocator@23@@shdfnd@physx@@IEAAXAEBV012@@Z 0000000180008220 f i CuCloth.obj
 0001:000072d0       ??$swap@_K@shdfnd@physx@@YAXAEA_K0@Z 00000001800082d0 f i CuCloth.obj
 0001:000072e0       ??$swap@V?$CuDevicePointer@VPxVec4@physx@@@cloth@nv@@X@std@@YAXAEAV?$CuDevicePointer@VPxVec4@physx@@@cloth@nv@@0@Z 00000001800082e0 f i CuCloth.obj
 0001:000072f0       ??$?0VPxVec4@physx@@@?$CuDevicePointer@VPxVec4@physx@@@cloth@nv@@QEAA@PEAVPxVec4@physx@@@Z 00000001800082f0 f i CuCloth.obj
 0001:00007300       ??$?8VPxVec4@physx@@@?$CuDevicePointer@VPxVec4@physx@@@cloth@nv@@QEBA_NAEBV012@@Z 0000000180008300 f i CuCloth.obj
 0001:00007310       ??$copy@V?$CuHostAllocator@VPxVec3@physx@@$01@cloth@nv@@@?$Array@VPxVec3@physx@@V?$CuHostAllocator@VPxVec3@physx@@$01@cloth@nv@@@shdfnd@physx@@IEAAXAEBV012@@Z 0000000180008310 f i CuCloth.obj
 0001:00007380       ??$copy@V?$CuHostAllocator@UIndexPair@cloth@nv@@$01@cloth@nv@@@?$Array@UIndexPair@cloth@nv@@V?$CuHostAllocator@UIndexPair@cloth@nv@@$01@23@@shdfnd@physx@@IEAAXAEBV012@@Z 0000000180008380 f i CuCloth.obj
 0001:00007400       ??$swap@PEAVPxVec4@physx@@@shdfnd@physx@@YAXAEAPEAVPxVec4@1@0@Z 0000000180008400 f i CuCloth.obj
 0001:00007410       ??$swap@I@shdfnd@physx@@YAXAEAI0@Z 0000000180008410 f i CuCloth.obj
 0001:00007420       ??$copy@V?$CuHostAllocator@VPxVec4@physx@@$01@cloth@nv@@@?$Array@VPxVec4@physx@@V?$CuHostAllocator@VPxVec4@physx@@$01@cloth@nv@@@shdfnd@physx@@IEAAXAEBV012@@Z 0000000180008420 f i CuCloth.obj
 0001:00007490       ??$?0U?$Vec4T@G@cloth@nv@@@?$CuDevicePointer@U?$Vec4T@G@cloth@nv@@@cloth@nv@@QEAA@PEAU?$Vec4T@G@12@@Z 0000000180008490 f i CuCloth.obj
 0001:000074a0       ??$?0I@?$CuDevicePointer@I@cloth@nv@@QEAA@PEAI@Z 00000001800084a0 f i CuCloth.obj
 0001:000074b0       ??$?0UCuPhaseConfig@cloth@nv@@@?$CuDevicePointer@UCuPhaseConfig@cloth@nv@@@cloth@nv@@QEAA@PEAUCuPhaseConfig@12@@Z 00000001800084b0 f i CuCloth.obj
 0001:000074c0       ??4PxTransform@physx@@QEAAAEAV01@AEBV01@@Z 00000001800084c0 f i CuCloth.obj
 0001:000074f0       ?capacityIncrement@?$Array@VPxVec4@physx@@VNonTrackingAllocator@cloth@nv@@@shdfnd@physx@@IEBAIXZ 00000001800084f0 f i CuCloth.obj
 0001:00007510       ?copy@?$Array@VPxVec4@physx@@VNonTrackingAllocator@cloth@nv@@@shdfnd@physx@@KAXPEAVPxVec4@3@0PEBV43@@Z 0000000180008510 f i CuCloth.obj
 0001:00007630       ?allocate@?$Array@VPxVec4@physx@@VNonTrackingAllocator@cloth@nv@@@shdfnd@physx@@IEAAPEAVPxVec4@3@I@Z 0000000180008630 f i CuCloth.obj
 0001:00007680       ?empty@?$Array@VPxVec4@physx@@VNonTrackingAllocator@cloth@nv@@@shdfnd@physx@@QEBA_NXZ 0000000180008680 f i CuCloth.obj
 0001:00007690       ?size@?$Array@VPxVec4@physx@@VNonTrackingAllocator@cloth@nv@@@shdfnd@physx@@QEBAIXZ 0000000180008690 f i CuCloth.obj
 0001:000076a0       ?front@?$Array@VPxVec4@physx@@VNonTrackingAllocator@cloth@nv@@@shdfnd@physx@@QEBAAEBVPxVec4@3@XZ 00000001800086a0 f i CuCloth.obj
 0001:000076b0       ?capacityIncrement@?$Array@UCuPhaseConfig@cloth@nv@@VNonTrackingAllocator@23@@shdfnd@physx@@IEBAIXZ 00000001800086b0 f i CuCloth.obj
 0001:000076d0       ?copy@?$Array@UCuPhaseConfig@cloth@nv@@VNonTrackingAllocator@23@@shdfnd@physx@@KAXPEAUCuPhaseConfig@cloth@nv@@0PEBU456@@Z 00000001800086d0 f i CuCloth.obj
 0001:00007710       ?allocate@?$Array@UCuPhaseConfig@cloth@nv@@VNonTrackingAllocator@23@@shdfnd@physx@@IEAAPEAUCuPhaseConfig@cloth@nv@@I@Z 0000000180008710 f i CuCloth.obj
 0001:00007760       ?capacityIncrement@?$Array@U?$Vec4T@G@cloth@nv@@VNonTrackingAllocator@23@@shdfnd@physx@@IEBAIXZ 0000000180008760 f i CuCloth.obj
 0001:00007780       ?copy@?$Array@U?$Vec4T@G@cloth@nv@@VNonTrackingAllocator@23@@shdfnd@physx@@KAXPEAU?$Vec4T@G@cloth@nv@@0PEBU456@@Z 0000000180008780 f i CuCloth.obj
 0001:000077a0       ?allocate@?$Array@U?$Vec4T@G@cloth@nv@@VNonTrackingAllocator@23@@shdfnd@physx@@IEAAPEAU?$Vec4T@G@cloth@nv@@I@Z 00000001800087a0 f i CuCloth.obj
 0001:000077f0       ?empty@?$Array@U?$Vec4T@G@cloth@nv@@VNonTrackingAllocator@23@@shdfnd@physx@@QEBA_NXZ 00000001800087f0 f i CuCloth.obj
 0001:00007800       ?size@?$Array@U?$Vec4T@G@cloth@nv@@VNonTrackingAllocator@23@@shdfnd@physx@@QEBAIXZ 0000000180008800 f i CuCloth.obj
 0001:00007810       ?front@?$Array@U?$Vec4T@G@cloth@nv@@VNonTrackingAllocator@23@@shdfnd@physx@@QEBAAEBU?$Vec4T@G@cloth@nv@@XZ 0000000180008810 f i CuCloth.obj
 0001:00007820       ?reserve@?$Array@IVNonTrackingAllocator@cloth@nv@@@shdfnd@physx@@QEAAXI@Z 0000000180008820 f i CuCloth.obj
 0001:00007830       ?empty@?$Array@IVNonTrackingAllocator@cloth@nv@@@shdfnd@physx@@QEBA_NXZ 0000000180008830 f i CuCloth.obj
 0001:00007840       ?size@?$Array@IVNonTrackingAllocator@cloth@nv@@@shdfnd@physx@@QEBAIXZ 0000000180008840 f i CuCloth.obj
 0001:00007850       ?front@?$Array@IVNonTrackingAllocator@cloth@nv@@@shdfnd@physx@@QEBAAEBIXZ 0000000180008850 f i CuCloth.obj
 0001:00007860       ?copy@?$Array@VPxVec3@physx@@V?$CuHostAllocator@VPxVec3@physx@@$01@cloth@nv@@@shdfnd@physx@@KAXPEAVPxVec3@3@0PEBV43@@Z 0000000180008860 f i CuCloth.obj
 0001:00007950       ?allocate@?$Array@VPxVec3@physx@@V?$CuHostAllocator@VPxVec3@physx@@$01@cloth@nv@@@shdfnd@physx@@IEAAPEAVPxVec3@3@I@Z 0000000180008950 f i CuCloth.obj
 0001:00007970       ?assign@?$Array@VPxVec3@physx@@V?$CuHostAllocator@VPxVec3@physx@@$01@cloth@nv@@@shdfnd@physx@@QEAAXPEBVPxVec3@3@0@Z 0000000180008970 f i CuCloth.obj
 0001:000079d0       ?reserve@?$Array@VPxVec3@physx@@V?$CuHostAllocator@VPxVec3@physx@@$01@cloth@nv@@@shdfnd@physx@@QEAAXI@Z 00000001800089d0 f i CuCloth.obj
 0001:000079e0       ?pushBack@?$Array@VPxVec3@physx@@V?$CuHostAllocator@VPxVec3@physx@@$01@cloth@nv@@@shdfnd@physx@@QEAAAEAVPxVec3@3@AEBV43@@Z 00000001800089e0 f i CuCloth.obj
 0001:00007a40       ?empty@?$Array@VPxVec3@physx@@V?$CuHostAllocator@VPxVec3@physx@@$01@cloth@nv@@@shdfnd@physx@@QEBA_NXZ 0000000180008a40 f i CuCloth.obj
 0001:00007a50       ?begin@?$Array@VPxVec3@physx@@V?$CuHostAllocator@VPxVec3@physx@@$01@cloth@nv@@@shdfnd@physx@@QEAAPEAVPxVec3@3@XZ 0000000180008a50 f i CuCloth.obj
 0001:00007a60       ?begin@?$Array@VPxVec3@physx@@V?$CuHostAllocator@VPxVec3@physx@@$01@cloth@nv@@@shdfnd@physx@@QEBAPEBVPxVec3@3@XZ 0000000180008a60 f i CuCloth.obj
 0001:00007a70       ??A?$Array@VPxVec3@physx@@V?$CuHostAllocator@VPxVec3@physx@@$01@cloth@nv@@@shdfnd@physx@@QEAAAEAVPxVec3@2@I@Z 0000000180008a70 f i CuCloth.obj
 0001:00007a80       ?reserve@?$Array@IV?$CuHostAllocator@I$01@cloth@nv@@@shdfnd@physx@@QEAAXI@Z 0000000180008a80 f i CuCloth.obj
 0001:00007a90       ?replaceWithLast@?$Array@IV?$CuHostAllocator@I$01@cloth@nv@@@shdfnd@physx@@QEAAXPEAI@Z 0000000180008a90 f i CuCloth.obj
 0001:00007ab0       ?end@?$Array@IV?$CuHostAllocator@I$01@cloth@nv@@@shdfnd@physx@@QEAAPEAIXZ 0000000180008ab0 f i CuCloth.obj
 0001:00007ac0       ?begin@?$Array@IV?$CuHostAllocator@I$01@cloth@nv@@@shdfnd@physx@@QEAAPEAIXZ 0000000180008ac0 f i CuCloth.obj
 0001:00007ad0       ??A?$Array@IV?$CuHostAllocator@I$01@cloth@nv@@@shdfnd@physx@@QEAAAEAII@Z 0000000180008ad0 f i CuCloth.obj
 0001:00007ae0       ?copy@?$Array@UIndexPair@cloth@nv@@V?$CuHostAllocator@UIndexPair@cloth@nv@@$01@23@@shdfnd@physx@@KAXPEAUIndexPair@cloth@nv@@0PEBU456@@Z 0000000180008ae0 f i CuCloth.obj
 0001:00007b00       ?allocate@?$Array@UIndexPair@cloth@nv@@V?$CuHostAllocator@UIndexPair@cloth@nv@@$01@23@@shdfnd@physx@@IEAAPEAUIndexPair@cloth@nv@@I@Z 0000000180008b00 f i CuCloth.obj
 0001:00007b20       ?reserve@?$Array@UIndexPair@cloth@nv@@V?$CuHostAllocator@UIndexPair@cloth@nv@@$01@23@@shdfnd@physx@@QEAAXI@Z 0000000180008b20 f i CuCloth.obj
 0001:00007b30       ?replaceWithLast@?$Array@UIndexPair@cloth@nv@@V?$CuHostAllocator@UIndexPair@cloth@nv@@$01@23@@shdfnd@physx@@QEAAXPEAUIndexPair@cloth@nv@@@Z 0000000180008b30 f i CuCloth.obj
 0001:00007b50       ?empty@?$Array@UIndexPair@cloth@nv@@V?$CuHostAllocator@UIndexPair@cloth@nv@@$01@23@@shdfnd@physx@@QEBA_NXZ 0000000180008b50 f i CuCloth.obj
 0001:00007b60       ?end@?$Array@UIndexPair@cloth@nv@@V?$CuHostAllocator@UIndexPair@cloth@nv@@$01@23@@shdfnd@physx@@QEAAPEAUIndexPair@cloth@nv@@XZ 0000000180008b60 f i CuCloth.obj
 0001:00007b70       ?begin@?$Array@UIndexPair@cloth@nv@@V?$CuHostAllocator@UIndexPair@cloth@nv@@$01@23@@shdfnd@physx@@QEAAPEAUIndexPair@cloth@nv@@XZ 0000000180008b70 f i CuCloth.obj
 0001:00007b80       ?begin@?$Array@UIndexPair@cloth@nv@@V?$CuHostAllocator@UIndexPair@cloth@nv@@$01@23@@shdfnd@physx@@QEBAPEBUIndexPair@cloth@nv@@XZ 0000000180008b80 f i CuCloth.obj
 0001:00007b90       ??A?$Array@UIndexPair@cloth@nv@@V?$CuHostAllocator@UIndexPair@cloth@nv@@$01@23@@shdfnd@physx@@QEAAAEAUIndexPair@cloth@nv@@I@Z 0000000180008b90 f i CuCloth.obj
 0001:00007ba0       ?capacityIncrement@?$Array@UPhaseConfig@cloth@nv@@VNonTrackingAllocator@23@@shdfnd@physx@@IEBAIXZ 0000000180008ba0 f i CuCloth.obj
 0001:00007bc0       ?allocate@?$Array@UPhaseConfig@cloth@nv@@VNonTrackingAllocator@23@@shdfnd@physx@@IEAAPEAUPhaseConfig@cloth@nv@@I@Z 0000000180008bc0 f i CuCloth.obj
 0001:00007c10       ?empty@?$Array@UPhaseConfig@cloth@nv@@VNonTrackingAllocator@23@@shdfnd@physx@@QEBA_NXZ 0000000180008c10 f i CuCloth.obj
 0001:00007c20       ?size@?$Array@UPhaseConfig@cloth@nv@@VNonTrackingAllocator@23@@shdfnd@physx@@QEBAIXZ 0000000180008c20 f i CuCloth.obj
 0001:00007c30       ?begin@?$Array@UPhaseConfig@cloth@nv@@VNonTrackingAllocator@23@@shdfnd@physx@@QEBAPEBUPhaseConfig@cloth@nv@@XZ 0000000180008c30 f i CuCloth.obj
 0001:00007c40       ?getChildCloth@?$ClothImpl@VCuCloth@cloth@nv@@@cloth@nv@@QEBAPEBVCuCloth@23@XZ 0000000180008c40 f i CuCloth.obj
 0001:00007c50       ?getChildCloth@?$ClothImpl@VCuCloth@cloth@nv@@@cloth@nv@@QEAAPEAVCuCloth@23@XZ 0000000180008c50 f i CuCloth.obj
 0001:00007c60       ?copy@?$Array@VPxVec4@physx@@V?$CuHostAllocator@VPxVec4@physx@@$01@cloth@nv@@@shdfnd@physx@@KAXPEAVPxVec4@3@0PEBV43@@Z 0000000180008c60 f i CuCloth.obj
 0001:00007d80       ?allocate@?$Array@VPxVec4@physx@@V?$CuHostAllocator@VPxVec4@physx@@$01@cloth@nv@@@shdfnd@physx@@IEAAPEAVPxVec4@3@I@Z 0000000180008d80 f i CuCloth.obj
 0001:00007da0       ?assign@?$Array@VPxVec4@physx@@V?$CuHostAllocator@VPxVec4@physx@@$01@cloth@nv@@@shdfnd@physx@@QEAAXPEBVPxVec4@3@0@Z 0000000180008da0 f i CuCloth.obj
 0001:00007de0       ?pushBack@?$Array@VPxVec4@physx@@V?$CuHostAllocator@VPxVec4@physx@@$01@cloth@nv@@@shdfnd@physx@@QEAAAEAVPxVec4@3@AEBV43@@Z 0000000180008de0 f i CuCloth.obj
 0001:00007e30       ??A?$Array@VPxVec4@physx@@V?$CuHostAllocator@VPxVec4@physx@@$01@cloth@nv@@@shdfnd@physx@@QEAAAEAVPxVec4@2@I@Z 0000000180008e30 f i CuCloth.obj
 0001:00007e40       ??0?$MappedRange@$$CBVPxVec4@physx@@@cloth@nv@@QEAA@PEBVPxVec4@physx@@0AEBVCloth@12@P8512@EBAXXZ2@Z 0000000180008e40 f i CuCloth.obj
 0001:00007e70       ??0?$MappedRange@VPxVec4@physx@@@cloth@nv@@QEAA@PEAVPxVec4@physx@@0AEBVCloth@12@P8512@EBAXXZ2@Z 0000000180008e70 f i CuCloth.obj
 0001:00007ea0       ?grow@?$Array@IVNonTrackingAllocator@cloth@nv@@@shdfnd@physx@@IEAAXI@Z 0000000180008ea0 f i CuCloth.obj
 0001:00007eb0       ?grow@?$Array@VPxVec3@physx@@V?$CuHostAllocator@VPxVec3@physx@@$01@cloth@nv@@@shdfnd@physx@@IEAAXI@Z 0000000180008eb0 f i CuCloth.obj
 0001:00007ec0       ?end@?$Array@VPxVec3@physx@@V?$CuHostAllocator@VPxVec3@physx@@$01@cloth@nv@@@shdfnd@physx@@QEAAPEAVPxVec3@3@XZ 0000000180008ec0 f i CuCloth.obj
 0001:00007ed0       ?allocate@?$CuHostAllocator@VPxVec3@physx@@$01@cloth@nv@@QEAAPEAVPxVec3@physx@@_KPEBDH@Z 0000000180008ed0 f i CuCloth.obj
 0001:00007f50       ?grow@?$Array@IV?$CuHostAllocator@I$01@cloth@nv@@@shdfnd@physx@@IEAAXI@Z 0000000180008f50 f i CuCloth.obj
 0001:00007f60       ?replaceWithLast@?$Array@IV?$CuHostAllocator@I$01@cloth@nv@@@shdfnd@physx@@QEAAXI@Z 0000000180008f60 f i CuCloth.obj
 0001:00007f80       ?grow@?$Array@UIndexPair@cloth@nv@@V?$CuHostAllocator@UIndexPair@cloth@nv@@$01@23@@shdfnd@physx@@IEAAXI@Z 0000000180008f80 f i CuCloth.obj
 0001:00007f90       ?replaceWithLast@?$Array@UIndexPair@cloth@nv@@V?$CuHostAllocator@UIndexPair@cloth@nv@@$01@23@@shdfnd@physx@@QEAAXI@Z 0000000180008f90 f i CuCloth.obj
 0001:00007fb0       ?allocate@?$CuHostAllocator@UIndexPair@cloth@nv@@$01@cloth@nv@@QEAAPEAUIndexPair@23@_KPEBDH@Z 0000000180008fb0 f i CuCloth.obj
 0001:00008030       ?allocate@?$CuHostAllocator@VPxVec4@physx@@$01@cloth@nv@@QEAAPEAVPxVec4@physx@@_KPEBDH@Z 0000000180009030 f i CuCloth.obj
 0001:000080a0       ??0?$Range@$$CBVPxVec4@physx@@@cloth@nv@@QEAA@PEBVPxVec4@physx@@0@Z 00000001800090a0 f i CuCloth.obj
 0001:000080b0       ??A?$Range@$$CBVPxVec4@physx@@@cloth@nv@@QEBAAEBVPxVec4@physx@@I@Z 00000001800090b0 f i CuCloth.obj
 0001:000080c0       ?size@?$Range@$$CBI@cloth@nv@@QEBAIXZ 00000001800090c0 f i CuCloth.obj
 0001:000080d0       ??A?$Range@$$CBI@cloth@nv@@QEBAAEBII@Z 00000001800090d0 f i CuCloth.obj
 0001:000080e0       ??A?$Range@$$CBVPxVec3@physx@@@cloth@nv@@QEBAAEBVPxVec3@physx@@I@Z 00000001800090e0 f i CuCloth.obj
 0001:000080f0       ?resize@?$Array@VPxVec4@physx@@V?$CuHostAllocator@VPxVec4@physx@@$01@cloth@nv@@@shdfnd@physx@@QEAAXIAEBVPxVec4@3@@Z 00000001800090f0 f i CuCloth.obj
 0001:00008150       ?growAndPushBack@?$Array@VPxVec4@physx@@V?$CuHostAllocator@VPxVec4@physx@@$01@cloth@nv@@@shdfnd@physx@@IEAAAEAVPxVec4@3@AEBV43@@Z 0000000180009150 f i CuCloth.obj
 0001:00008230       ?resize@?$Array@UIndexPair@cloth@nv@@V?$CuHostAllocator@UIndexPair@cloth@nv@@$01@23@@shdfnd@physx@@QEAAXIAEBUIndexPair@cloth@nv@@@Z 0000000180009230 f i CuCloth.obj
 0001:000082a0       ?recreate@?$Array@UIndexPair@cloth@nv@@V?$CuHostAllocator@UIndexPair@cloth@nv@@$01@23@@shdfnd@physx@@IEAAXI@Z 00000001800092a0 f i CuCloth.obj
 0001:00008340       ?resize@?$Array@IV?$CuHostAllocator@I$01@cloth@nv@@@shdfnd@physx@@QEAAXIAEBI@Z 0000000180009340 f i CuCloth.obj
 0001:000083b0       ?recreate@?$Array@IV?$CuHostAllocator@I$01@cloth@nv@@@shdfnd@physx@@IEAAXI@Z 00000001800093b0 f i CuCloth.obj
 0001:00008450       ?resize@?$Array@VPxVec3@physx@@V?$CuHostAllocator@VPxVec3@physx@@$01@cloth@nv@@@shdfnd@physx@@QEAAXIAEBVPxVec3@3@@Z 0000000180009450 f i CuCloth.obj
 0001:000084b0       ?resizeUninitialized@?$Array@VPxVec3@physx@@V?$CuHostAllocator@VPxVec3@physx@@$01@cloth@nv@@@shdfnd@physx@@QEAAXI@Z 00000001800094b0 f i CuCloth.obj
 0001:000084f0       ?growAndPushBack@?$Array@VPxVec3@physx@@V?$CuHostAllocator@VPxVec3@physx@@$01@cloth@nv@@@shdfnd@physx@@IEAAAEAVPxVec3@3@AEBV43@@Z 00000001800094f0 f i CuCloth.obj
 0001:000085d0       ?recreate@?$Array@VPxVec3@physx@@V?$CuHostAllocator@VPxVec3@physx@@$01@cloth@nv@@@shdfnd@physx@@IEAAXI@Z 00000001800095d0 f i CuCloth.obj
 0001:00008650       ?recreate@?$Array@IVNonTrackingAllocator@cloth@nv@@@shdfnd@physx@@IEAAXI@Z 0000000180009650 f i CuCloth.obj
 0001:00008700       ??$move@PEAVPxVec4@physx@@@cloth@nv@@YAXPEAVPxVec4@physx@@III@Z 0000000180009700 f i CuCloth.obj
 0001:000088d0       ??$move@PEAUIndexPair@cloth@nv@@@cloth@nv@@YAXPEAUIndexPair@01@III@Z 00000001800098d0 f i CuCloth.obj
 0001:00008940       ??$move@PEAI@cloth@nv@@YAXPEAIIII@Z 0000000180009940 f i CuCloth.obj
 0001:000089c0       ??$move@PEAVPxVec3@physx@@@cloth@nv@@YAXPEAVPxVec3@physx@@III@Z 00000001800099c0 f i CuCloth.obj
 0001:00008b60       ??$swap@VPxVec4@physx@@$01@shdfnd@physx@@YAXAEAV?$CuHostVectorImpl@VPxVec4@physx@@$01@cloth@nv@@0@Z 0000000180009b60 f i CuCloth.obj
 0001:00008ba0       ??$assign@PEBVPxVec4@physx@@@?$CuDeviceVector@VPxVec4@physx@@@cloth@nv@@QEAAXPEBVPxVec4@physx@@0@Z 0000000180009ba0 f i CuCloth.obj
 0001:00008c30       ??$assign@PEBU?$Vec4T@G@cloth@nv@@@?$CuDeviceVector@U?$Vec4T@G@cloth@nv@@@cloth@nv@@QEAAXPEBU?$Vec4T@G@12@0@Z 0000000180009c30 f i CuCloth.obj
 0001:00008cc0       ??$move@AEAV?$CuDevicePointer@VPxVec4@physx@@@cloth@nv@@@std@@YA$$QEAV?$CuDevicePointer@VPxVec4@physx@@@cloth@nv@@AEAV123@@Z 0000000180009cc0 f i CuCloth.obj
 0001:00008cd0       ?allocate@?$Array@IVNonTrackingAllocator@cloth@nv@@@shdfnd@physx@@IEAAPEAII@Z 0000000180009cd0 f i CuCloth.obj
 0001:00008d20       ?capacityIncrement@?$Array@VPxVec3@physx@@V?$CuHostAllocator@VPxVec3@physx@@$01@cloth@nv@@@shdfnd@physx@@IEBAIXZ 0000000180009d20 f i CuCloth.obj
 0001:00008d40       ?create@?$Array@VPxVec3@physx@@V?$CuHostAllocator@VPxVec3@physx@@$01@cloth@nv@@@shdfnd@physx@@KAXPEAVPxVec3@3@0AEBV43@@Z 0000000180009d40 f i CuCloth.obj
 0001:00008e20       ?copy@?$Array@IV?$CuHostAllocator@I$01@cloth@nv@@@shdfnd@physx@@KAXPEAI0PEBI@Z 0000000180009e20 f i CuCloth.obj
 0001:00008e40       ?create@?$Array@IV?$CuHostAllocator@I$01@cloth@nv@@@shdfnd@physx@@KAXPEAI0AEBI@Z 0000000180009e40 f i CuCloth.obj
 0001:00008e60       ?allocate@?$Array@IV?$CuHostAllocator@I$01@cloth@nv@@@shdfnd@physx@@IEAAPEAII@Z 0000000180009e60 f i CuCloth.obj
 0001:00008e80       ?create@?$Array@UIndexPair@cloth@nv@@V?$CuHostAllocator@UIndexPair@cloth@nv@@$01@23@@shdfnd@physx@@KAXPEAUIndexPair@cloth@nv@@0AEBU456@@Z 0000000180009e80 f i CuCloth.obj
 0001:00008ea0       ?capacityIncrement@?$Array@VPxVec4@physx@@V?$CuHostAllocator@VPxVec4@physx@@$01@cloth@nv@@@shdfnd@physx@@IEBAIXZ 0000000180009ea0 f i CuCloth.obj
 0001:00008ec0       ?create@?$Array@VPxVec4@physx@@V?$CuHostAllocator@VPxVec4@physx@@$01@cloth@nv@@@shdfnd@physx@@KAXPEAVPxVec4@3@0AEBV43@@Z 0000000180009ec0 f i CuCloth.obj
 0001:00008fc0       ?allocate@?$CuHostAllocator@I$01@cloth@nv@@QEAAPEAI_KPEBDH@Z 0000000180009fc0 f i CuCloth.obj
 0001:00009034       ??_9Cloth@cloth@nv@@$BDA@AA 000000018000a034 f i CuCloth.obj
 0001:0000903c       ??_9Cloth@cloth@nv@@$BCI@AA 000000018000a03c f i CuCloth.obj
 0001:00009050       ??2UserAllocated@cloth@nv@@SAPEAX_KPEBDHUNvClothOverload@12@@Z 000000018000a050 f i CuClothClone.obj
 0001:00009080       ??0SwContextLock@cloth@nv@@QEAA@AEBVSwFactory@12@@Z 000000018000a080 f i CuClothClone.obj
 0001:00009090       ?getPhaseConfigs@cloth@nv@@YA?AU?$Range@$$CBUPhaseConfig@cloth@nv@@@12@AEBVSwCloth@12@@Z 000000018000a090 f i CuClothClone.obj
 0001:000090d0       ?setPhaseConfigs@cloth@nv@@YAXAEAVSwCloth@12@U?$Range@$$CBUPhaseConfig@cloth@nv@@@12@@Z 000000018000a0d0 f i CuClothClone.obj
 0001:00009150       ?getParticleAccelerations@cloth@nv@@YA?AU?$Range@$$CBVPxVec4@physx@@@12@AEBVSwCloth@12@@Z 000000018000a150 f i CuClothClone.obj
 0001:00009190       ?getSelfCollisionIndices@cloth@nv@@YA?AU?$Range@$$CBI@12@AEBVSwCloth@12@@Z 000000018000a190 f i CuClothClone.obj
 0001:000091d0       ??$PX_UNUSED@UNvClothOverload@cloth@nv@@@@YAXAEBUNvClothOverload@cloth@nv@@@Z 000000018000a1d0 f i CuClothClone.obj
 0001:000091e0       ?resize@?$Array@VPxVec4@physx@@VNonTrackingAllocator@cloth@nv@@@shdfnd@physx@@QEAAXIAEBVPxVec4@3@@Z 000000018000a1e0 f i CuClothClone.obj
 0001:00009240       ??$makeRange@UPhaseConfig@cloth@nv@@VNonTrackingAllocator@23@@cloth@nv@@YA?AU?$Range@$$CBUPhaseConfig@cloth@nv@@@01@AEBV?$Array@UPhaseConfig@cloth@nv@@VNonTrackingAllocator@23@@shdfnd@physx@@@Z 000000018000a240 f i CuClothClone.obj
 0001:00009280       ??$makeRange@VPxVec4@physx@@VNonTrackingAllocator@cloth@nv@@@cloth@nv@@YA?AU?$Range@$$CBVPxVec4@physx@@@01@AEBV?$Array@VPxVec4@physx@@VNonTrackingAllocator@cloth@nv@@@shdfnd@physx@@@Z 000000018000a280 f i CuClothClone.obj
 0001:000092b0       ??$makeRange@IVNonTrackingAllocator@cloth@nv@@@cloth@nv@@YA?AU?$Range@$$CBI@01@AEBV?$Array@IVNonTrackingAllocator@cloth@nv@@@shdfnd@physx@@@Z 000000018000a2b0 f i CuClothClone.obj
 0001:000092e0       ??$makeRange@VPxVec4@physx@@V?$CuHostAllocator@VPxVec4@physx@@$01@cloth@nv@@@cloth@nv@@YA?AU?$Range@$$CBVPxVec4@physx@@@01@AEBV?$Array@VPxVec4@physx@@V?$CuHostAllocator@VPxVec4@physx@@$01@cloth@nv@@@shdfnd@physx@@@Z 000000018000a2e0 f i CuClothClone.obj
 0001:00009320       ??$convertCloth@VSwFactory@cloth@nv@@VCuCloth@23@@cloth@nv@@YAPEAVSwCloth@01@AEAVSwFactory@01@AEBVCuCloth@01@@Z 000000018000a320 f i CuClothClone.obj
 0001:00009e70       ??$convertCloth@VCuFactory@cloth@nv@@VCuCloth@23@@cloth@nv@@YAPEAVCuCloth@01@AEAVCuFactory@01@AEBV201@@Z 000000018000ae70 f i CuClothClone.obj
 0001:0000a960       ??$convertCloth@VCuFactory@cloth@nv@@VSwCloth@23@@cloth@nv@@YAPEAVCuCloth@01@AEAVCuFactory@01@AEBVSwCloth@01@@Z 000000018000b960 f i CuClothClone.obj
 0001:0000b3a0       ?empty@?$Array@U?$Vec4T@I@cloth@nv@@VNonTrackingAllocator@23@@shdfnd@physx@@QEBA_NXZ 000000018000c3a0 f i CuClothClone.obj
 0001:0000b3b0       ?size@?$Array@U?$Vec4T@I@cloth@nv@@VNonTrackingAllocator@23@@shdfnd@physx@@QEBAIXZ 000000018000c3b0 f i CuClothClone.obj
 0001:0000b3c0       ?front@?$Array@U?$Vec4T@I@cloth@nv@@VNonTrackingAllocator@23@@shdfnd@physx@@QEAAAEAU?$Vec4T@I@cloth@nv@@XZ 000000018000c3c0 f i CuClothClone.obj
 0001:0000b3d0       ??0?$Array@U?$Vec4T@I@cloth@nv@@VNonTrackingAllocator@23@@shdfnd@physx@@QEAA@IAEBU?$Vec4T@I@cloth@nv@@AEBVNonTrackingAllocator@45@@Z 000000018000c3d0 f i CuClothClone.obj
 0001:0000b3f0       ?capacity@?$Array@VPxVec3@physx@@VNonTrackingAllocator@cloth@nv@@@shdfnd@physx@@QEBAIXZ 000000018000c3f0 f i CuClothClone.obj
 0001:0000b400       ?reserve@?$Array@VPxVec3@physx@@VNonTrackingAllocator@cloth@nv@@@shdfnd@physx@@QEAAXI@Z 000000018000c400 f i CuClothClone.obj
 0001:0000b410       ?empty@?$Array@VPxVec3@physx@@VNonTrackingAllocator@cloth@nv@@@shdfnd@physx@@QEBA_NXZ 000000018000c410 f i CuClothClone.obj
 0001:0000b420       ?size@?$Array@VPxVec3@physx@@VNonTrackingAllocator@cloth@nv@@@shdfnd@physx@@QEBAIXZ 000000018000c420 f i CuClothClone.obj
 0001:0000b430       ?front@?$Array@VPxVec3@physx@@VNonTrackingAllocator@cloth@nv@@@shdfnd@physx@@QEAAAEAVPxVec3@3@XZ 000000018000c430 f i CuClothClone.obj
 0001:0000b440       ??1?$Array@VPxVec3@physx@@VNonTrackingAllocator@cloth@nv@@@shdfnd@physx@@QEAA@XZ 000000018000c440 f i CuClothClone.obj
 0001:0000b470       ??0?$Array@VPxVec3@physx@@VNonTrackingAllocator@cloth@nv@@@shdfnd@physx@@QEAA@IAEBVPxVec3@2@AEBVNonTrackingAllocator@cloth@nv@@@Z 000000018000c470 f i CuClothClone.obj
 0001:0000b490       ?create@?$Array@VPxVec4@physx@@VNonTrackingAllocator@cloth@nv@@@shdfnd@physx@@KAXPEAVPxVec4@3@0AEBV43@@Z 000000018000c490 f i CuClothClone.obj
 0001:0000b590       ?front@?$Array@VPxVec4@physx@@VNonTrackingAllocator@cloth@nv@@@shdfnd@physx@@QEAAAEAVPxVec4@3@XZ 000000018000c590 f i CuClothClone.obj
 0001:0000b5a0       ?begin@?$Array@VPxVec4@physx@@VNonTrackingAllocator@cloth@nv@@@shdfnd@physx@@QEAAPEAVPxVec4@3@XZ 000000018000c5a0 f i CuClothClone.obj
 0001:0000b5b0       ?begin@?$Array@VPxVec4@physx@@VNonTrackingAllocator@cloth@nv@@@shdfnd@physx@@QEBAPEBVPxVec4@3@XZ 000000018000c5b0 f i CuClothClone.obj
 0001:0000b5c0       ??0?$Array@VPxVec4@physx@@VNonTrackingAllocator@cloth@nv@@@shdfnd@physx@@QEAA@IAEBVPxVec4@2@AEBVNonTrackingAllocator@cloth@nv@@@Z 000000018000c5c0 f i CuClothClone.obj
 0001:0000b5e0       ??0?$Vec4T@I@cloth@nv@@QEAA@XZ 000000018000c5e0 f i CuClothClone.obj
 0001:0000b5f0       ??0?$Array@IVNonTrackingAllocator@cloth@nv@@@shdfnd@physx@@QEAA@IAEBIAEBVNonTrackingAllocator@cloth@nv@@@Z 000000018000c5f0 f i CuClothClone.obj
 0001:0000b610       ?grow@?$Array@VPxVec3@physx@@VNonTrackingAllocator@cloth@nv@@@shdfnd@physx@@IEAAXI@Z 000000018000c610 f i CuClothClone.obj
 0001:0000b620       ?destroy@?$Array@VPxVec3@physx@@VNonTrackingAllocator@cloth@nv@@@shdfnd@physx@@KAXPEAVPxVec3@3@0@Z 000000018000c620 f i CuClothClone.obj
 0001:0000b630       ?copy@?$Array@VPxVec3@physx@@VNonTrackingAllocator@cloth@nv@@@shdfnd@physx@@KAXPEAVPxVec3@3@0PEBV43@@Z 000000018000c630 f i CuClothClone.obj
 0001:0000b720       ?deallocate@?$Array@VPxVec3@physx@@VNonTrackingAllocator@cloth@nv@@@shdfnd@physx@@IEAAXPEAX@Z 000000018000c720 f i CuClothClone.obj
 0001:0000b740       ?isInUserMemory@?$Array@VPxVec3@physx@@VNonTrackingAllocator@cloth@nv@@@shdfnd@physx@@QEBAIXZ 000000018000c740 f i CuClothClone.obj
 0001:0000b750       ??0?$Range@$$CBI@cloth@nv@@QEAA@PEBI0@Z 000000018000c750 f i CuClothClone.obj
 0001:0000b760       ?begin@?$Range@VPxVec4@physx@@@cloth@nv@@QEBAPEAVPxVec4@physx@@XZ 000000018000c760 f i CuClothClone.obj
 0001:0000b770       ??0?$Range@VPxVec3@physx@@@cloth@nv@@QEAA@PEAVPxVec3@physx@@0@Z 000000018000c770 f i CuClothClone.obj
 0001:0000b780       ??0?$Range@$$BY03I@cloth@nv@@QEAA@PEAY03I0@Z 000000018000c780 f i CuClothClone.obj
 0001:0000b790       ?resize@?$Array@IVNonTrackingAllocator@cloth@nv@@@shdfnd@physx@@QEAAXIAEBI@Z 000000018000c790 f i CuClothClone.obj
 0001:0000b800       ?resize@?$Array@VPxVec3@physx@@VNonTrackingAllocator@cloth@nv@@@shdfnd@physx@@QEAAXIAEBVPxVec3@3@@Z 000000018000c800 f i CuClothClone.obj
 0001:0000b860       ?recreate@?$Array@VPxVec3@physx@@VNonTrackingAllocator@cloth@nv@@@shdfnd@physx@@IEAAXI@Z 000000018000c860 f i CuClothClone.obj
 0001:0000b900       ??$makeRange@VPxVec4@physx@@VNonTrackingAllocator@cloth@nv@@@cloth@nv@@YA?AU?$Range@VPxVec4@physx@@@01@AEAV?$Array@VPxVec4@physx@@VNonTrackingAllocator@cloth@nv@@@shdfnd@physx@@@Z 000000018000c900 f i CuClothClone.obj
 0001:0000b930       ??$makeRange@IVNonTrackingAllocator@cloth@nv@@@cloth@nv@@YA?AU?$Range@I@01@AEAV?$Array@IVNonTrackingAllocator@cloth@nv@@@shdfnd@physx@@@Z 000000018000c930 f i CuClothClone.obj
 0001:0000b960       ??$convertFabric@VCuFabric@cloth@nv@@VSwFactory@23@@cloth@nv@@YAPEAVSwFabric@01@AEBVCuFabric@01@AEAVSwFactory@01@@Z 000000018000c960 f i CuClothClone.obj
 0001:0000c060       ??$copy@VSwCloth@cloth@nv@@VCuCloth@23@@cloth@nv@@YAXAEAVSwCloth@01@AEBVCuCloth@01@@Z 000000018000d060 f i CuClothClone.obj
 0001:0000c340       ??$?0VPxVec4@physx@@@?$Range@$$CBVPxVec4@physx@@@cloth@nv@@QEAA@AEBU?$Range@VPxVec4@physx@@@12@@Z 000000018000d340 f i CuClothClone.obj
 0001:0000c360       ??$?0I@?$Range@$$CBI@cloth@nv@@QEAA@AEBU?$Range@I@12@@Z 000000018000d360 f i CuClothClone.obj
 0001:0000c380       ??$?0VPxVec3@physx@@@?$Range@$$CBVPxVec3@physx@@@cloth@nv@@QEAA@AEBU?$Range@VPxVec3@physx@@@12@@Z 000000018000d380 f i CuClothClone.obj
 0001:0000c3a0       ?resize@?$Array@U?$Vec4T@I@cloth@nv@@VNonTrackingAllocator@23@@shdfnd@physx@@QEAAXIAEBU?$Vec4T@I@cloth@nv@@@Z 000000018000d3a0 f i CuClothClone.obj
 0001:0000c410       ??$array@I@cloth@nv@@YAAEAY03IAEAU?$Vec4T@I@01@@Z 000000018000d410 f i CuClothClone.obj
 0001:0000c420       ??$?0$$BY03I@?$Range@$$BY03$$CBI@cloth@nv@@QEAA@AEBU?$Range@$$BY03I@12@@Z 000000018000d420 f i CuClothClone.obj
 0001:0000c440       ??$convertFabric@VCuFabric@cloth@nv@@VCuFactory@23@@cloth@nv@@YAPEAVCuFabric@01@AEBV201@AEAVCuFactory@01@@Z 000000018000d440 f i CuClothClone.obj
 0001:0000cb40       ??$convertFabric@VSwFabric@cloth@nv@@VCuFactory@23@@cloth@nv@@YAPEAVCuFabric@01@AEBVSwFabric@01@AEAVCuFactory@01@@Z 000000018000db40 f i CuClothClone.obj
 0001:0000d1f0       ??$copy@VCuCloth@cloth@nv@@VSwCloth@23@@cloth@nv@@YAXAEAVCuCloth@01@AEBVSwCloth@01@@Z 000000018000e1f0 f i CuClothClone.obj
 0001:0000d4d0       ??1?$Array@MVNonTrackingAllocator@cloth@nv@@@shdfnd@physx@@QEAA@XZ 000000018000e4d0 f i CuClothClone.obj
 0001:0000d500       ??0?$Array@MVNonTrackingAllocator@cloth@nv@@@shdfnd@physx@@QEAA@IAEBMAEBVNonTrackingAllocator@cloth@nv@@@Z 000000018000e500 f i CuClothClone.obj
 0001:0000d520       ?create@?$Array@U?$Vec4T@I@cloth@nv@@VNonTrackingAllocator@23@@shdfnd@physx@@KAXPEAU?$Vec4T@I@cloth@nv@@0AEBU456@@Z 000000018000e520 f i CuClothClone.obj
 0001:0000d540       ?reserve@?$Array@U?$Vec4T@I@cloth@nv@@VNonTrackingAllocator@23@@shdfnd@physx@@QEAAXI@Z 000000018000e540 f i CuClothClone.obj
 0001:0000d550       ?end@?$Array@PEAVCuFabric@cloth@nv@@VNonTrackingAllocator@23@@shdfnd@physx@@QEAAPEAPEAVCuFabric@cloth@nv@@XZ 000000018000e550 f i CuClothClone.obj
 0001:0000d560       ?begin@?$Array@PEAVCuFabric@cloth@nv@@VNonTrackingAllocator@23@@shdfnd@physx@@QEAAPEAPEAVCuFabric@cloth@nv@@XZ 000000018000e560 f i CuClothClone.obj
 0001:0000d570       ?create@?$Array@VPxVec3@physx@@VNonTrackingAllocator@cloth@nv@@@shdfnd@physx@@KAXPEAVPxVec3@3@0AEBV43@@Z 000000018000e570 f i CuClothClone.obj
 0001:0000d650       ?allocate@?$Array@VPxVec3@physx@@VNonTrackingAllocator@cloth@nv@@@shdfnd@physx@@IEAAPEAVPxVec3@3@I@Z 000000018000e650 f i CuClothClone.obj
 0001:0000d6a0       ?create@?$Array@IVNonTrackingAllocator@cloth@nv@@@shdfnd@physx@@KAXPEAI0AEBI@Z 000000018000e6a0 f i CuClothClone.obj
 0001:0000d6c0       ?end@?$Array@PEAVSwFabric@cloth@nv@@VNonTrackingAllocator@23@@shdfnd@physx@@QEAAPEAPEAVSwFabric@cloth@nv@@XZ 000000018000e6c0 f i CuClothClone.obj
 0001:0000d6d0       ?begin@?$Array@PEAVSwFabric@cloth@nv@@VNonTrackingAllocator@23@@shdfnd@physx@@QEAAPEAPEAVSwFabric@cloth@nv@@XZ 000000018000e6d0 f i CuClothClone.obj
 0001:0000d6e0       ?destroy@?$Array@MVNonTrackingAllocator@cloth@nv@@@shdfnd@physx@@KAXPEAM0@Z 000000018000e6e0 f i CuClothClone.obj
 0001:0000d6f0       ?deallocate@?$Array@MVNonTrackingAllocator@cloth@nv@@@shdfnd@physx@@IEAAXPEAX@Z 000000018000e6f0 f i CuClothClone.obj
 0001:0000d710       ?isInUserMemory@?$Array@MVNonTrackingAllocator@cloth@nv@@@shdfnd@physx@@QEBAIXZ 000000018000e710 f i CuClothClone.obj
 0001:0000d720       ?capacity@?$Array@MVNonTrackingAllocator@cloth@nv@@@shdfnd@physx@@QEBAIXZ 000000018000e720 f i CuClothClone.obj
 0001:0000d730       ?grow@?$Array@U?$Vec4T@I@cloth@nv@@VNonTrackingAllocator@23@@shdfnd@physx@@IEAAXI@Z 000000018000e730 f i CuClothClone.obj
 0001:0000d740       ??0?$Range@I@cloth@nv@@QEAA@PEAI0@Z 000000018000e740 f i CuClothClone.obj
 0001:0000d750       ?begin@?$Range@I@cloth@nv@@QEBAPEAIXZ 000000018000e750 f i CuClothClone.obj
 0001:0000d760       ?end@?$Range@I@cloth@nv@@QEBAPEAIXZ 000000018000e760 f i CuClothClone.obj
 0001:0000d770       ?end@?$Range@VPxVec4@physx@@@cloth@nv@@QEBAPEAVPxVec4@physx@@XZ 000000018000e770 f i CuClothClone.obj
 0001:0000d780       ?begin@?$Range@VPxVec3@physx@@@cloth@nv@@QEBAPEAVPxVec3@physx@@XZ 000000018000e780 f i CuClothClone.obj
 0001:0000d790       ?end@?$Range@VPxVec3@physx@@@cloth@nv@@QEBAPEAVPxVec3@physx@@XZ 000000018000e790 f i CuClothClone.obj
 0001:0000d7a0       ?begin@?$Range@$$BY03I@cloth@nv@@QEBAPEAY03IXZ 000000018000e7a0 f i CuClothClone.obj
 0001:0000d7b0       ?end@?$Range@$$BY03I@cloth@nv@@QEBAPEAY03IXZ 000000018000e7b0 f i CuClothClone.obj
 0001:0000d7c0       ?recreate@?$Array@U?$Vec4T@I@cloth@nv@@VNonTrackingAllocator@23@@shdfnd@physx@@IEAAXI@Z 000000018000e7c0 f i CuClothClone.obj
 0001:0000d870       ?resize@?$Array@MVNonTrackingAllocator@cloth@nv@@@shdfnd@physx@@QEAAXIAEBM@Z 000000018000e870 f i CuClothClone.obj
 0001:0000d8d0       ??$makeRange@MVNonTrackingAllocator@cloth@nv@@@cloth@nv@@YA?AU?$Range@M@01@AEAV?$Array@MVNonTrackingAllocator@cloth@nv@@@shdfnd@physx@@@Z 000000018000e8d0 f i CuClothClone.obj
 0001:0000d900       ??$?0M@?$Range@$$CBM@cloth@nv@@QEAA@AEBU?$Range@M@12@@Z 000000018000e900 f i CuClothClone.obj
 0001:0000d920       ?create@?$Array@MVNonTrackingAllocator@cloth@nv@@@shdfnd@physx@@KAXPEAM0AEBM@Z 000000018000e920 f i CuClothClone.obj
 0001:0000d9a0       ?reserve@?$Array@MVNonTrackingAllocator@cloth@nv@@@shdfnd@physx@@QEAAXI@Z 000000018000e9a0 f i CuClothClone.obj
 0001:0000d9b0       ?empty@?$Array@MVNonTrackingAllocator@cloth@nv@@@shdfnd@physx@@QEBA_NXZ 000000018000e9b0 f i CuClothClone.obj
 0001:0000d9c0       ?size@?$Array@MVNonTrackingAllocator@cloth@nv@@@shdfnd@physx@@QEBAIXZ 000000018000e9c0 f i CuClothClone.obj
 0001:0000d9d0       ?begin@?$Array@MVNonTrackingAllocator@cloth@nv@@@shdfnd@physx@@QEAAPEAMXZ 000000018000e9d0 f i CuClothClone.obj
 0001:0000d9e0       ?copy@?$Array@U?$Vec4T@I@cloth@nv@@VNonTrackingAllocator@23@@shdfnd@physx@@KAXPEAU?$Vec4T@I@cloth@nv@@0PEBU456@@Z 000000018000e9e0 f i CuClothClone.obj
 0001:0000da00       ?allocate@?$Array@U?$Vec4T@I@cloth@nv@@VNonTrackingAllocator@23@@shdfnd@physx@@IEAAPEAU?$Vec4T@I@cloth@nv@@I@Z 000000018000ea00 f i CuClothClone.obj
 0001:0000da50       ?grow@?$Array@MVNonTrackingAllocator@cloth@nv@@@shdfnd@physx@@IEAAXI@Z 000000018000ea50 f i CuClothClone.obj
 0001:0000da60       ??0?$Range@M@cloth@nv@@QEAA@PEAM0@Z 000000018000ea60 f i CuClothClone.obj
 0001:0000da70       ?begin@?$Range@M@cloth@nv@@QEBAPEAMXZ 000000018000ea70 f i CuClothClone.obj
 0001:0000da80       ?end@?$Range@M@cloth@nv@@QEBAPEAMXZ 000000018000ea80 f i CuClothClone.obj
 0001:0000da90       ?recreate@?$Array@MVNonTrackingAllocator@cloth@nv@@@shdfnd@physx@@IEAAXI@Z 000000018000ea90 f i CuClothClone.obj
 0001:0000db20       ?copy@?$Array@MVNonTrackingAllocator@cloth@nv@@@shdfnd@physx@@KAXPEAM0PEBM@Z 000000018000eb20 f i CuClothClone.obj
 0001:0000dbb0       ?allocate@?$Array@MVNonTrackingAllocator@cloth@nv@@@shdfnd@physx@@IEAAPEAMI@Z 000000018000ebb0 f i CuClothClone.obj
 0001:0000dc00       ??0Simd4fTupleFactory@cloth@nv@@QEAA@MMMM@Z 000000018000ec00 f i CuClothData.obj
 0001:0000dc20       ?simd4f@cloth@nv@@YA?AUSimd4fTupleFactory@12@MMMM@Z 000000018000ec20 f i CuClothData.obj
 0001:0000dc40       ??BSimd4fOneFactory@cloth@nv@@QEBA?AT__m128@@XZ 000000018000ec40 f i CuClothData.obj
 0001:0000dc50       ??BSimd4fScalarFactory@cloth@nv@@QEBA?AT__m128@@XZ 000000018000ec50 f i CuClothData.obj
 0001:0000dc60       ??BSimd4fTupleFactory@cloth@nv@@QEBA?AT__m128@@XZ 000000018000ec60 f i CuClothData.obj
 0001:0000dc70       ??Hcloth@nv@@YA?AT__m128@@AEBT2@0@Z 000000018000ec70 f i CuClothData.obj
 0001:0000dc80       ??Gcloth@nv@@YA?AT__m128@@AEBT2@@Z 000000018000ec80 f i CuClothData.obj
 0001:0000dc90       ??Gcloth@nv@@YA?AT__m128@@AEBT2@0@Z 000000018000ec90 f i CuClothData.obj
 0001:0000dca0       ??Dcloth@nv@@YA?AT__m128@@AEBT2@0@Z 000000018000eca0 f i CuClothData.obj
 0001:0000dcb0       ?array@cloth@nv@@YAAEAY03MAEAT__m128@@@Z 000000018000ecb0 f i CuClothData.obj
 0001:0000dcc0       ?array@cloth@nv@@YAAEAY03$$CBMAEBT__m128@@@Z 000000018000ecc0 f i CuClothData.obj
 0001:0000dcd0       ?max@cloth@nv@@YA?AT__m128@@AEBT3@0@Z 000000018000ecd0 f i CuClothData.obj
 0001:0000dce0       ?min@cloth@nv@@YA?AT__m128@@AEBT3@0@Z 000000018000ece0 f i CuClothData.obj
 0001:0000dcf0       ?recip@cloth@nv@@YA?AT__m128@@AEBT3@@Z 000000018000ecf0 f i CuClothData.obj
 0001:0000dd00       ?exp2@cloth@nv@@YA?AT__m128@@AEBT3@@Z 000000018000ed00 f i CuClothData.obj
 0001:0000dda0       ?array@cloth@nv@@YAAEAY02MAEAVPxVec3@physx@@@Z 000000018000eda0 f i CuClothData.obj
 0001:0000ddb0       ?get@?$CuDevicePointer@UCuTether@cloth@nv@@@cloth@nv@@QEBAPEAUCuTether@23@XZ 000000018000edb0 f i CuClothData.obj
 0001:0000ddc0       ?begin@?$CuDeviceVector@UCuTether@cloth@nv@@@cloth@nv@@QEAA?AV?$CuDevicePointer@UCuTether@cloth@nv@@@23@XZ 000000018000edc0 f i CuClothData.obj
 0001:0000ddd0       ?size@?$CuDeviceVector@UCuTether@cloth@nv@@@cloth@nv@@QEBA_KXZ 000000018000edd0 f i CuClothData.obj
 0001:0000dde0       ?get@?$CuDevicePointer@G@cloth@nv@@QEBAPEAGXZ 000000018000ede0 f i CuClothData.obj
 0001:0000ddf0       ?begin@?$CuDeviceVector@G@cloth@nv@@QEAA?AV?$CuDevicePointer@G@23@XZ 000000018000edf0 f i CuClothData.obj
 0001:0000de00       ?size@?$CuDeviceVector@G@cloth@nv@@QEBA_KXZ 000000018000ee00 f i CuClothData.obj
 0001:0000de10       ?get@?$CuDevicePointer@U?$Vec4T@G@cloth@nv@@@cloth@nv@@QEBAPEAU?$Vec4T@G@23@XZ 000000018000ee10 f i CuClothData.obj
 0001:0000de20       ?begin@?$CuDeviceVector@U?$Vec4T@G@cloth@nv@@@cloth@nv@@QEAA?AV?$CuDevicePointer@U?$Vec4T@G@cloth@nv@@@23@XZ 000000018000ee20 f i CuClothData.obj
 0001:0000de30       ?get@?$CuDevicePointer@I@cloth@nv@@QEBAPEAIXZ 000000018000ee30 f i CuClothData.obj
 0001:0000de40       ?begin@?$CuDeviceVector@I@cloth@nv@@QEAA?AV?$CuDevicePointer@I@23@XZ 000000018000ee40 f i CuClothData.obj
 0001:0000de50       ?get@?$CuDevicePointer@UCuPhaseConfig@cloth@nv@@@cloth@nv@@QEBAPEAUCuPhaseConfig@23@XZ 000000018000ee50 f i CuClothData.obj
 0001:0000de60       ?begin@?$CuDeviceVector@UCuPhaseConfig@cloth@nv@@@cloth@nv@@QEAA?AV?$CuDevicePointer@UCuPhaseConfig@cloth@nv@@@23@XZ 000000018000ee60 f i CuClothData.obj
 0001:0000de70       ??G?$CuDevicePointer@UCuTether@cloth@nv@@@cloth@nv@@QEBA_JAEBV012@@Z 000000018000ee70 f i CuClothData.obj
 0001:0000de80       ??0?$CuDevicePointer@UCuTether@cloth@nv@@@cloth@nv@@QEAA@AEBV012@@Z 000000018000ee80 f i CuClothData.obj
 0001:0000de90       ??G?$CuDevicePointer@G@cloth@nv@@QEBA_JAEBV012@@Z 000000018000ee90 f i CuClothData.obj
 0001:0000dea0       ??0?$CuDevicePointer@G@cloth@nv@@QEAA@AEBV012@@Z 000000018000eea0 f i CuClothData.obj
 0001:0000deb0       ??0?$CuDevicePointer@U?$Vec4T@G@cloth@nv@@@cloth@nv@@QEAA@AEBV012@@Z 000000018000eeb0 f i CuClothData.obj
 0001:0000dec0       ??0?$CuDevicePointer@I@cloth@nv@@QEAA@AEBV012@@Z 000000018000eec0 f i CuClothData.obj
 0001:0000ded0       ??0?$CuDevicePointer@UCuPhaseConfig@cloth@nv@@@cloth@nv@@QEAA@AEBV012@@Z 000000018000eed0 f i CuClothData.obj
 0001:0000dee0       ??$getDevicePointer@VPxVec4@physx@@$01@cloth@nv@@YAPEAVPxVec4@physx@@AEAV?$CuHostVectorImpl@VPxVec4@physx@@$01@01@@Z 000000018000eee0 f i CuClothData.obj
 0001:0000def0       ??$getDevicePointer@UIndexPair@cloth@nv@@$01@cloth@nv@@YAPEAUIndexPair@01@AEAV?$CuHostVectorImpl@UIndexPair@cloth@nv@@$01@01@@Z 000000018000eef0 f i CuClothData.obj
 0001:0000df00       ??$getDevicePointer@I$01@cloth@nv@@YAPEAIAEAV?$CuHostVectorImpl@I$01@01@@Z 000000018000ef00 f i CuClothData.obj
 0001:0000df10       ??$array@G@cloth@nv@@YAAEAY03GAEAU?$Vec4T@G@01@@Z 000000018000ef10 f i CuClothData.obj
 0001:0000df20       ??$getDevicePointer@VPxVec3@physx@@$01@cloth@nv@@YAPEAVPxVec3@physx@@AEAV?$CuHostVectorImpl@VPxVec3@physx@@$01@01@@Z 000000018000ef20 f i CuClothData.obj
 0001:0000df30       ?getAllocator@?$Array@VPxVec3@physx@@V?$CuHostAllocator@VPxVec3@physx@@$01@cloth@nv@@@shdfnd@physx@@QEAAAEAV?$CuHostAllocator@VPxVec3@physx@@$01@cloth@nv@@XZ 000000018000ef30 f i CuClothData.obj
 0001:0000df40       ?getAllocator@?$Array@IV?$CuHostAllocator@I$01@cloth@nv@@@shdfnd@physx@@QEAAAEAV?$CuHostAllocator@I$01@cloth@nv@@XZ 000000018000ef40 f i CuClothData.obj
 0001:0000df50       ?empty@?$Array@IV?$CuHostAllocator@I$01@cloth@nv@@@shdfnd@physx@@QEBA_NXZ 000000018000ef50 f i CuClothData.obj
 0001:0000df60       ?getAllocator@?$Array@UIndexPair@cloth@nv@@V?$CuHostAllocator@UIndexPair@cloth@nv@@$01@23@@shdfnd@physx@@QEAAAEAV?$CuHostAllocator@UIndexPair@cloth@nv@@$01@cloth@nv@@XZ 000000018000ef60 f i CuClothData.obj
 0001:0000df70       ?getAllocator@?$Array@VPxVec4@physx@@V?$CuHostAllocator@VPxVec4@physx@@$01@cloth@nv@@@shdfnd@physx@@QEAAAEAV?$CuHostAllocator@VPxVec4@physx@@$01@cloth@nv@@XZ 000000018000ef70 f i CuClothData.obj
 0001:0000df80       ??0Fabric@cloth@nv@@IEAA@XZ 000000018000ef80 f i CuFabric.obj
 0001:0000dfa0       ??1Fabric@cloth@nv@@MEAA@XZ 000000018000efa0 f i CuFabric.obj
 0001:0000dfb0       ??_GFabric@cloth@nv@@MEAAPEAXI@Z 000000018000efb0 f i CuFabric.obj
 0001:0000dfb0       ??_EFabric@cloth@nv@@MEAAPEAXI@Z 000000018000efb0 f i * CIL library *:* CIL module *
 0001:0000e000       ??_ECuFabric@cloth@nv@@UEAAPEAXI@Z 000000018000f000 f i * CIL library *:* CIL module *
 0001:0000e000       ??_GCuFabric@cloth@nv@@UEAAPEAXI@Z 000000018000f000 f i CuFabric.obj
 0001:0000e060       ?end@?$Array@MVNonTrackingAllocator@cloth@nv@@@shdfnd@physx@@QEAAPEAMXZ 000000018000f060 f i CuFabric.obj
 0001:0000e070       ?reserve@?$Array@UCuTether@cloth@nv@@VNonTrackingAllocator@23@@shdfnd@physx@@QEAAXI@Z 000000018000f070 f i CuFabric.obj
 0001:0000e080       ?pushBack@?$Array@UCuTether@cloth@nv@@VNonTrackingAllocator@23@@shdfnd@physx@@QEAAAEAUCuTether@cloth@nv@@AEBU456@@Z 000000018000f080 f i CuFabric.obj
 0001:0000e0c0       ?end@?$Array@UCuTether@cloth@nv@@VNonTrackingAllocator@23@@shdfnd@physx@@QEAAPEAUCuTether@cloth@nv@@XZ 000000018000f0c0 f i CuFabric.obj
 0001:0000e0d0       ?begin@?$Array@UCuTether@cloth@nv@@VNonTrackingAllocator@23@@shdfnd@physx@@QEAAPEAUCuTether@cloth@nv@@XZ 000000018000f0d0 f i CuFabric.obj
 0001:0000e0e0       ??1?$Array@UCuTether@cloth@nv@@VNonTrackingAllocator@23@@shdfnd@physx@@QEAA@XZ 000000018000f0e0 f i CuFabric.obj
 0001:0000e110       ??0?$Array@UCuTether@cloth@nv@@VNonTrackingAllocator@23@@shdfnd@physx@@QEAA@AEBVNonTrackingAllocator@cloth@nv@@@Z 000000018000f110 f i CuFabric.obj
 0001:0000e120       ?end@?$Array@GVNonTrackingAllocator@cloth@nv@@@shdfnd@physx@@QEAAPEAGXZ 000000018000f120 f i CuFabric.obj
 0001:0000e130       ?begin@?$Array@GVNonTrackingAllocator@cloth@nv@@@shdfnd@physx@@QEAAPEAGXZ 000000018000f130 f i CuFabric.obj
 0001:0000e140       ??1?$Array@GVNonTrackingAllocator@cloth@nv@@@shdfnd@physx@@QEAA@XZ 000000018000f140 f i CuFabric.obj
 0001:0000e170       ??0?$Array@GVNonTrackingAllocator@cloth@nv@@@shdfnd@physx@@QEAA@AEBVNonTrackingAllocator@cloth@nv@@@Z 000000018000f170 f i CuFabric.obj
 0001:0000e180       ?replaceWithLast@?$Array@PEAVCuFabric@cloth@nv@@VNonTrackingAllocator@23@@shdfnd@physx@@QEAAXPEAPEAVCuFabric@cloth@nv@@@Z 000000018000f180 f i CuFabric.obj
 0001:0000e1a0       ?pushBack@?$Array@PEAVCuFabric@cloth@nv@@VNonTrackingAllocator@23@@shdfnd@physx@@QEAAAEAPEAVCuFabric@cloth@nv@@AEBQEAV456@@Z 000000018000f1a0 f i CuFabric.obj
 0001:0000e1e0       ?find@?$Array@PEAVCuFabric@cloth@nv@@VNonTrackingAllocator@23@@shdfnd@physx@@QEAAPEAPEAVCuFabric@cloth@nv@@AEBQEAV456@@Z 000000018000f1e0 f i CuFabric.obj
 0001:0000e210       ?pushBack@?$Array@V?$CuDevicePointer@$$CBG@cloth@nv@@VNonTrackingAllocator@23@@shdfnd@physx@@QEAAAEAV?$CuDevicePointer@$$CBG@cloth@nv@@AEBV456@@Z 000000018000f210 f i CuFabric.obj
 0001:0000e250       ??1?$Array@V?$CuDevicePointer@$$CBG@cloth@nv@@VNonTrackingAllocator@23@@shdfnd@physx@@QEAA@XZ 000000018000f250 f i CuFabric.obj
 0001:0000e280       ??0?$Array@V?$CuDevicePointer@$$CBG@cloth@nv@@VNonTrackingAllocator@23@@shdfnd@physx@@QEAA@AEBVNonTrackingAllocator@cloth@nv@@@Z 000000018000f280 f i CuFabric.obj
 0001:0000e290       ?pushBack@?$Array@V?$CuDevicePointer@$$CBM@cloth@nv@@VNonTrackingAllocator@23@@shdfnd@physx@@QEAAAEAV?$CuDevicePointer@$$CBM@cloth@nv@@AEBV456@@Z 000000018000f290 f i CuFabric.obj
 0001:0000e2d0       ??1?$Array@V?$CuDevicePointer@$$CBM@cloth@nv@@VNonTrackingAllocator@23@@shdfnd@physx@@QEAA@XZ 000000018000f2d0 f i CuFabric.obj
 0001:0000e300       ??0?$Array@V?$CuDevicePointer@$$CBM@cloth@nv@@VNonTrackingAllocator@23@@shdfnd@physx@@QEAA@AEBVNonTrackingAllocator@cloth@nv@@@Z 000000018000f300 f i CuFabric.obj
 0001:0000e310       ?pushBack@?$Array@IVNonTrackingAllocator@cloth@nv@@@shdfnd@physx@@QEAAAEAIAEBI@Z 000000018000f310 f i CuFabric.obj
 0001:0000e350       ??1?$CuDeviceVector@UCuTether@cloth@nv@@@cloth@nv@@QEAA@XZ 000000018000f350 f i CuFabric.obj
 0001:0000e380       ??0?$CuDeviceVector@UCuTether@cloth@nv@@@cloth@nv@@QEAA@PEAUCUctx_st@@@Z 000000018000f380 f i CuFabric.obj
 0001:0000e3a0       ??H?$CuDevicePointer@$$CBG@cloth@nv@@QEBA?AV012@AEB_J@Z 000000018000f3a0 f i CuFabric.obj
 0001:0000e3c0       ??0?$CuDevicePointer@$$CBG@cloth@nv@@QEAA@AEBV?$CuDevicePointer@G@12@@Z 000000018000f3c0 f i CuFabric.obj
 0001:0000e3d0       ??1?$CuDeviceVector@G@cloth@nv@@QEAA@XZ 000000018000f3d0 f i CuFabric.obj
 0001:0000e400       ??0?$CuDeviceVector@G@cloth@nv@@QEAA@PEAUCUctx_st@@@Z 000000018000f400 f i CuFabric.obj
 0001:0000e420       ??H?$CuDevicePointer@$$CBM@cloth@nv@@QEBA?AV012@AEB_J@Z 000000018000f420 f i CuFabric.obj
 0001:0000e440       ??0?$CuDevicePointer@$$CBM@cloth@nv@@QEAA@AEBV?$CuDevicePointer@M@12@@Z 000000018000f440 f i CuFabric.obj
 0001:0000e450       ??0?$CuDevicePointer@$$CBM@cloth@nv@@QEAA@XZ 000000018000f450 f i CuFabric.obj
 0001:0000e460       ?end@?$CuDeviceVector@M@cloth@nv@@QEAA?AV?$CuDevicePointer@M@23@XZ 000000018000f460 f i CuFabric.obj
 0001:0000e470       ??0?$CuDeviceVector@M@cloth@nv@@QEAA@PEAUCUctx_st@@PEBM1@Z 000000018000f470 f i CuFabric.obj
 0001:0000e4b0       ?push_back@?$CuDeviceVector@I@cloth@nv@@QEAAXPEBI0@Z 000000018000f4b0 f i CuFabric.obj
 0001:0000e570       ?push_back@?$CuDeviceVector@I@cloth@nv@@QEAAXAEBI@Z 000000018000f570 f i CuFabric.obj
 0001:0000e5e0       ??0?$CuDeviceVector@I@cloth@nv@@QEAA@PEAUCUctx_st@@PEBI1@Z 000000018000f5e0 f i CuFabric.obj
 0001:0000e620       ?grow@?$Array@UCuTether@cloth@nv@@VNonTrackingAllocator@23@@shdfnd@physx@@IEAAXI@Z 000000018000f620 f i CuFabric.obj
 0001:0000e630       ?destroy@?$Array@UCuTether@cloth@nv@@VNonTrackingAllocator@23@@shdfnd@physx@@KAXPEAUCuTether@cloth@nv@@0@Z 000000018000f630 f i CuFabric.obj
 0001:0000e640       ?deallocate@?$Array@UCuTether@cloth@nv@@VNonTrackingAllocator@23@@shdfnd@physx@@IEAAXPEAX@Z 000000018000f640 f i CuFabric.obj
 0001:0000e660       ?isInUserMemory@?$Array@UCuTether@cloth@nv@@VNonTrackingAllocator@23@@shdfnd@physx@@QEBAIXZ 000000018000f660 f i CuFabric.obj
 0001:0000e670       ?capacity@?$Array@UCuTether@cloth@nv@@VNonTrackingAllocator@23@@shdfnd@physx@@QEBAIXZ 000000018000f670 f i CuFabric.obj
 0001:0000e680       ?destroy@?$Array@GVNonTrackingAllocator@cloth@nv@@@shdfnd@physx@@KAXPEAG0@Z 000000018000f680 f i CuFabric.obj
 0001:0000e690       ?deallocate@?$Array@GVNonTrackingAllocator@cloth@nv@@@shdfnd@physx@@IEAAXPEAX@Z 000000018000f690 f i CuFabric.obj
 0001:0000e6b0       ?isInUserMemory@?$Array@GVNonTrackingAllocator@cloth@nv@@@shdfnd@physx@@QEBAIXZ 000000018000f6b0 f i CuFabric.obj
 0001:0000e6c0       ?capacity@?$Array@GVNonTrackingAllocator@cloth@nv@@@shdfnd@physx@@QEBAIXZ 000000018000f6c0 f i CuFabric.obj
 0001:0000e6d0       ?capacity@?$Array@PEAVCuFabric@cloth@nv@@VNonTrackingAllocator@23@@shdfnd@physx@@QEBAIXZ 000000018000f6d0 f i CuFabric.obj
 0001:0000e6e0       ?replaceWithLast@?$Array@PEAVCuFabric@cloth@nv@@VNonTrackingAllocator@23@@shdfnd@physx@@QEAAXI@Z 000000018000f6e0 f i CuFabric.obj
 0001:0000e700       ?destroy@?$Array@V?$CuDevicePointer@$$CBG@cloth@nv@@VNonTrackingAllocator@23@@shdfnd@physx@@KAXPEAV?$CuDevicePointer@$$CBG@cloth@nv@@0@Z 000000018000f700 f i CuFabric.obj
 0001:0000e710       ?deallocate@?$Array@V?$CuDevicePointer@$$CBG@cloth@nv@@VNonTrackingAllocator@23@@shdfnd@physx@@IEAAXPEAX@Z 000000018000f710 f i CuFabric.obj
 0001:0000e730       ?isInUserMemory@?$Array@V?$CuDevicePointer@$$CBG@cloth@nv@@VNonTrackingAllocator@23@@shdfnd@physx@@QEBAIXZ 000000018000f730 f i CuFabric.obj
 0001:0000e740       ?capacity@?$Array@V?$CuDevicePointer@$$CBG@cloth@nv@@VNonTrackingAllocator@23@@shdfnd@physx@@QEBAIXZ 000000018000f740 f i CuFabric.obj
 0001:0000e750       ?destroy@?$Array@V?$CuDevicePointer@$$CBM@cloth@nv@@VNonTrackingAllocator@23@@shdfnd@physx@@KAXPEAV?$CuDevicePointer@$$CBM@cloth@nv@@0@Z 000000018000f750 f i CuFabric.obj
 0001:0000e760       ?deallocate@?$Array@V?$CuDevicePointer@$$CBM@cloth@nv@@VNonTrackingAllocator@23@@shdfnd@physx@@IEAAXPEAX@Z 000000018000f760 f i CuFabric.obj
 0001:0000e780       ?isInUserMemory@?$Array@V?$CuDevicePointer@$$CBM@cloth@nv@@VNonTrackingAllocator@23@@shdfnd@physx@@QEBAIXZ 000000018000f780 f i CuFabric.obj
 0001:0000e790       ?capacity@?$Array@V?$CuDevicePointer@$$CBM@cloth@nv@@VNonTrackingAllocator@23@@shdfnd@physx@@QEBAIXZ 000000018000f790 f i CuFabric.obj
 0001:0000e7a0       ?dev@?$CuDevicePointer@UCuTether@cloth@nv@@@cloth@nv@@QEBA_KXZ 000000018000f7a0 f i CuFabric.obj
 0001:0000e7b0       ??0?$CuDevicePointer@UCuTether@cloth@nv@@@cloth@nv@@QEAA@XZ 000000018000f7b0 f i CuFabric.obj
 0001:0000e7c0       ?dev@?$CuDevicePointer@G@cloth@nv@@QEBA_KXZ 000000018000f7c0 f i CuFabric.obj
 0001:0000e7d0       ??0?$CuDevicePointer@G@cloth@nv@@QEAA@XZ 000000018000f7d0 f i CuFabric.obj
 0001:0000e7e0       ??4?$CuDeviceReference@I@cloth@nv@@QEAAAEAV012@AEBI@Z 000000018000f7e0 f i CuFabric.obj
 0001:0000e820       ??D?$CuDevicePointer@I@cloth@nv@@QEBA?AV?$CuDeviceReference@I@12@XZ 000000018000f820 f i CuFabric.obj
 0001:0000e830       ??Y?$CuDevicePointer@I@cloth@nv@@QEAAAEAV012@_J@Z 000000018000f830 f i CuFabric.obj
 0001:0000e840       ??E?$CuDevicePointer@I@cloth@nv@@QEAA?AV012@H@Z 000000018000f840 f i CuFabric.obj
 0001:0000e860       ??E?$CuDevicePointer@I@cloth@nv@@QEAAAEAV012@XZ 000000018000f860 f i CuFabric.obj
 0001:0000e870       ?empty@?$Range@$$CBI@cloth@nv@@QEBA_NXZ 000000018000f870 f i CuFabric.obj
 0001:0000e880       ?popFront@?$Range@$$CBI@cloth@nv@@QEAAXXZ 000000018000f880 f i CuFabric.obj
 0001:0000e890       ?front@?$Range@$$CBI@cloth@nv@@QEBAAEBIXZ 000000018000f890 f i CuFabric.obj
 0001:0000e8a0       ?size@?$Range@$$CBM@cloth@nv@@QEBAIXZ 000000018000f8a0 f i CuFabric.obj
 0001:0000e8b0       ?empty@?$Range@$$CBM@cloth@nv@@QEBA_NXZ 000000018000f8b0 f i CuFabric.obj
 0001:0000e8c0       ?popFront@?$Range@$$CBM@cloth@nv@@QEAAXXZ 000000018000f8c0 f i CuFabric.obj
 0001:0000e8d0       ?begin@?$Range@$$CBM@cloth@nv@@QEBAPEBMXZ 000000018000f8d0 f i CuFabric.obj
 0001:0000e8e0       ?end@?$Range@$$CBM@cloth@nv@@QEBAPEBMXZ 000000018000f8e0 f i CuFabric.obj
 0001:0000e8f0       ?front@?$Range@$$CBM@cloth@nv@@QEBAAEBMXZ 000000018000f8f0 f i CuFabric.obj
 0001:0000e900       ??A?$CuDevicePointer@I@cloth@nv@@QEBA?AV?$CuDeviceReference@I@12@AEB_J@Z 000000018000f900 f i CuFabric.obj
 0001:0000e920       ?growAndPushBack@?$Array@IVNonTrackingAllocator@cloth@nv@@@shdfnd@physx@@IEAAAEAIAEBI@Z 000000018000f920 f i CuFabric.obj
 0001:0000ea10       ?growAndPushBack@?$Array@V?$CuDevicePointer@$$CBM@cloth@nv@@VNonTrackingAllocator@23@@shdfnd@physx@@IEAAAEAV?$CuDevicePointer@$$CBM@cloth@nv@@AEBV456@@Z 000000018000fa10 f i CuFabric.obj
 0001:0000eb00       ?growAndPushBack@?$Array@V?$CuDevicePointer@$$CBG@cloth@nv@@VNonTrackingAllocator@23@@shdfnd@physx@@IEAAAEAV?$CuDevicePointer@$$CBG@cloth@nv@@AEBV456@@Z 000000018000fb00 f i CuFabric.obj
 0001:0000ebf0       ?growAndPushBack@?$Array@PEAVCuFabric@cloth@nv@@VNonTrackingAllocator@23@@shdfnd@physx@@IEAAAEAPEAVCuFabric@cloth@nv@@AEBQEAV456@@Z 000000018000fbf0 f i CuFabric.obj
 0001:0000ece0       ?resizeUninitialized@?$Array@GVNonTrackingAllocator@cloth@nv@@@shdfnd@physx@@QEAAXI@Z 000000018000fce0 f i CuFabric.obj
 0001:0000ed20       ??$assign@PEAG@?$CuDeviceVector@G@cloth@nv@@QEAAXPEAG0@Z 000000018000fd20 f i CuFabric.obj
 0001:0000edb0       ??$maxElement@M@shdfnd@physx@@YAPEBMPEBM0@Z 000000018000fdb0 f i CuFabric.obj
 0001:0000ee40       ?growAndPushBack@?$Array@UCuTether@cloth@nv@@VNonTrackingAllocator@23@@shdfnd@physx@@IEAAAEAUCuTether@cloth@nv@@AEBU456@@Z 000000018000fe40 f i CuFabric.obj
 0001:0000ef30       ?recreate@?$Array@UCuTether@cloth@nv@@VNonTrackingAllocator@23@@shdfnd@physx@@IEAAXI@Z 000000018000ff30 f i CuFabric.obj
 0001:0000efe0       ??$assign@PEAUCuTether@cloth@nv@@@?$CuDeviceVector@UCuTether@cloth@nv@@@cloth@nv@@QEAAXPEAUCuTether@12@0@Z 000000018000ffe0 f i CuFabric.obj
 0001:0000f070       ??$PxMax@H@physx@@YAHHH@Z  0000000180010070 f i CuFabric.obj
 0001:0000f080       ??$?4VNonTrackingAllocator@cloth@nv@@@?$CuDeviceVector@M@cloth@nv@@QEAAAEAV012@AEBV?$Array@MVNonTrackingAllocator@cloth@nv@@@shdfnd@physx@@@Z 0000000180010080 f i CuFabric.obj
 0001:0000f0c0       ??$?0$$CBG@?$CuDevicePointer@$$CBG@cloth@nv@@QEAA@PEBG@Z 00000001800100c0 f i CuFabric.obj
 0001:0000f0d0       ??$?0$$CBM@?$CuDevicePointer@$$CBM@cloth@nv@@QEAA@PEBM@Z 00000001800100d0 f i CuFabric.obj
 0001:0000f0e0       ??$assign@PEBM@?$CuDeviceVector@M@cloth@nv@@QEAAXPEBM0@Z 00000001800100e0 f i CuFabric.obj
 0001:0000f170       ?front@?$Array@MVNonTrackingAllocator@cloth@nv@@@shdfnd@physx@@QEBAAEBMXZ 0000000180010170 f i CuFabric.obj
 0001:0000f180       ?capacityIncrement@?$Array@UCuTether@cloth@nv@@VNonTrackingAllocator@23@@shdfnd@physx@@IEBAIXZ 0000000180010180 f i CuFabric.obj
 0001:0000f1a0       ?copy@?$Array@UCuTether@cloth@nv@@VNonTrackingAllocator@23@@shdfnd@physx@@KAXPEAUCuTether@cloth@nv@@0PEBU456@@Z 00000001800101a0 f i CuFabric.obj
 0001:0000f1c0       ?allocate@?$Array@UCuTether@cloth@nv@@VNonTrackingAllocator@23@@shdfnd@physx@@IEAAPEAUCuTether@cloth@nv@@I@Z 00000001800101c0 f i CuFabric.obj
 0001:0000f210       ?reserve@?$Array@GVNonTrackingAllocator@cloth@nv@@@shdfnd@physx@@QEAAXI@Z 0000000180010210 f i CuFabric.obj
 0001:0000f220       ?capacityIncrement@?$Array@PEAVCuFabric@cloth@nv@@VNonTrackingAllocator@23@@shdfnd@physx@@IEBAIXZ 0000000180010220 f i CuFabric.obj
 0001:0000f240       ?destroy@?$Array@PEAVCuFabric@cloth@nv@@VNonTrackingAllocator@23@@shdfnd@physx@@KAXPEAPEAVCuFabric@cloth@nv@@0@Z 0000000180010240 f i CuFabric.obj
 0001:0000f250       ?copy@?$Array@PEAVCuFabric@cloth@nv@@VNonTrackingAllocator@23@@shdfnd@physx@@KAXPEAPEAVCuFabric@cloth@nv@@0PEBQEAV456@@Z 0000000180010250 f i CuFabric.obj
 0001:0000f270       ?deallocate@?$Array@PEAVCuFabric@cloth@nv@@VNonTrackingAllocator@23@@shdfnd@physx@@IEAAXPEAX@Z 0000000180010270 f i CuFabric.obj
 0001:0000f290       ?allocate@?$Array@PEAVCuFabric@cloth@nv@@VNonTrackingAllocator@23@@shdfnd@physx@@IEAAPEAPEAVCuFabric@cloth@nv@@I@Z 0000000180010290 f i CuFabric.obj
 0001:0000f2e0       ?isInUserMemory@?$Array@PEAVCuFabric@cloth@nv@@VNonTrackingAllocator@23@@shdfnd@physx@@QEBAIXZ 00000001800102e0 f i CuFabric.obj
 0001:0000f2f0       ?capacityIncrement@?$Array@V?$CuDevicePointer@$$CBG@cloth@nv@@VNonTrackingAllocator@23@@shdfnd@physx@@IEBAIXZ 00000001800102f0 f i CuFabric.obj
 0001:0000f310       ?copy@?$Array@V?$CuDevicePointer@$$CBG@cloth@nv@@VNonTrackingAllocator@23@@shdfnd@physx@@KAXPEAV?$CuDevicePointer@$$CBG@cloth@nv@@0PEBV456@@Z 0000000180010310 f i CuFabric.obj
 0001:0000f330       ?allocate@?$Array@V?$CuDevicePointer@$$CBG@cloth@nv@@VNonTrackingAllocator@23@@shdfnd@physx@@IEAAPEAV?$CuDevicePointer@$$CBG@cloth@nv@@I@Z 0000000180010330 f i CuFabric.obj
 0001:0000f380       ?capacityIncrement@?$Array@V?$CuDevicePointer@$$CBM@cloth@nv@@VNonTrackingAllocator@23@@shdfnd@physx@@IEBAIXZ 0000000180010380 f i CuFabric.obj
 0001:0000f3a0       ?copy@?$Array@V?$CuDevicePointer@$$CBM@cloth@nv@@VNonTrackingAllocator@23@@shdfnd@physx@@KAXPEAV?$CuDevicePointer@$$CBM@cloth@nv@@0PEBV456@@Z 00000001800103a0 f i CuFabric.obj
 0001:0000f3c0       ?allocate@?$Array@V?$CuDevicePointer@$$CBM@cloth@nv@@VNonTrackingAllocator@23@@shdfnd@physx@@IEAAPEAV?$CuDevicePointer@$$CBM@cloth@nv@@I@Z 00000001800103c0 f i CuFabric.obj
 0001:0000f410       ?capacityIncrement@?$Array@IVNonTrackingAllocator@cloth@nv@@@shdfnd@physx@@IEBAIXZ 0000000180010410 f i CuFabric.obj
 0001:0000f430       ?resize@?$CuDeviceVector@UCuTether@cloth@nv@@@cloth@nv@@QEAAX_K@Z 0000000180010430 f i CuFabric.obj
 0001:0000f480       ?resize@?$CuDeviceVector@G@cloth@nv@@QEAAX_K@Z 0000000180010480 f i CuFabric.obj
 0001:0000f4d0       ?grow@?$Array@GVNonTrackingAllocator@cloth@nv@@@shdfnd@physx@@IEAAXI@Z 00000001800104d0 f i CuFabric.obj
 0001:0000f4e0       ??H?$CuDevicePointer@UCuTether@cloth@nv@@@cloth@nv@@QEBA?AV012@AEB_J@Z 00000001800104e0 f i CuFabric.obj
 0001:0000f500       ?reserve@?$CuDeviceVector@UCuTether@cloth@nv@@@cloth@nv@@QEAAX_K@Z 0000000180010500 f i CuFabric.obj
 0001:0000f5f0       ?capacity@?$CuDeviceVector@UCuTether@cloth@nv@@@cloth@nv@@QEBA_KXZ 00000001800105f0 f i CuFabric.obj
 0001:0000f600       ??H?$CuDevicePointer@G@cloth@nv@@QEBA?AV012@AEB_J@Z 0000000180010600 f i CuFabric.obj
 0001:0000f620       ?reserve@?$CuDeviceVector@G@cloth@nv@@QEAAX_K@Z 0000000180010620 f i CuFabric.obj
 0001:0000f700       ?capacity@?$CuDeviceVector@G@cloth@nv@@QEBA_KXZ 0000000180010700 f i CuFabric.obj
 0001:0000f710       ?recreate@?$Array@GVNonTrackingAllocator@cloth@nv@@@shdfnd@physx@@IEAAXI@Z 0000000180010710 f i CuFabric.obj
 0001:0000f7c0       ??$?0I@?$CuDeviceReference@I@cloth@nv@@AEAA@V?$CuDevicePointer@I@12@@Z 00000001800107c0 f i CuFabric.obj
 0001:0000f7d0       ??$?0UCuTether@cloth@nv@@@?$CuDevicePointer@UCuTether@cloth@nv@@@cloth@nv@@QEAA@PEAUCuTether@12@@Z 00000001800107d0 f i CuFabric.obj
 0001:0000f7e0       ??$?0G@?$CuDevicePointer@G@cloth@nv@@QEAA@PEAG@Z 00000001800107e0 f i CuFabric.obj
 0001:0000f7f0       ?copy@?$Array@GVNonTrackingAllocator@cloth@nv@@@shdfnd@physx@@KAXPEAG0PEBG@Z 00000001800107f0 f i CuFabric.obj
 0001:0000f810       ?allocate@?$Array@GVNonTrackingAllocator@cloth@nv@@@shdfnd@physx@@IEAAPEAGI@Z 0000000180010810 f i CuFabric.obj
 0001:0000f850       ??0Factory@cloth@nv@@IEAA@XZ 0000000180010850 f i CuFactory.obj
 0001:0000f860       ??1Factory@cloth@nv@@MEAA@XZ 0000000180010860 f i CuFactory.obj
 0001:0000f870       ??_GFactory@cloth@nv@@MEAAPEAXI@Z 0000000180010870 f i CuFactory.obj
 0001:0000f870       ??_EFactory@cloth@nv@@MEAAPEAXI@Z 0000000180010870 f i * CIL library *:* CIL module *
 0001:0000f8c0       ?getPlatform@CuFactory@cloth@nv@@UEBA?AW4Platform@23@XZ 00000001800108c0 f i CuFactory.obj
 0001:0000f8d0       ??_ECuFactory@cloth@nv@@UEAAPEAXI@Z 00000001800108d0 f i * CIL library *:* CIL module *
 0001:0000f8d0       ??_GCuFactory@cloth@nv@@UEAAPEAXI@Z 00000001800108d0 f i CuFactory.obj
 0001:0000f960       ?front@?$Array@U?$Vec4T@G@cloth@nv@@VNonTrackingAllocator@23@@shdfnd@physx@@QEAAAEAU?$Vec4T@G@cloth@nv@@XZ 0000000180010960 f i CuFactory.obj
 0001:0000f970       ?begin@?$Array@U?$Vec4T@G@cloth@nv@@VNonTrackingAllocator@23@@shdfnd@physx@@QEAAPEAU?$Vec4T@G@cloth@nv@@XZ 0000000180010970 f i CuFactory.obj
 0001:0000f980       ??0?$Array@U?$Vec4T@G@cloth@nv@@VNonTrackingAllocator@23@@shdfnd@physx@@QEAA@IAEBU?$Vec4T@G@cloth@nv@@AEBVNonTrackingAllocator@45@@Z 0000000180010980 f i CuFactory.obj
 0001:0000f9a0       ??A?$Array@UCuTether@cloth@nv@@VNonTrackingAllocator@23@@shdfnd@physx@@QEAAAEAUCuTether@cloth@nv@@I@Z 00000001800109a0 f i CuFactory.obj
 0001:0000f9b0       ??0?$Array@UCuTether@cloth@nv@@VNonTrackingAllocator@23@@shdfnd@physx@@QEAA@IAEBUCuTether@cloth@nv@@AEBVNonTrackingAllocator@45@@Z 00000001800109b0 f i CuFactory.obj
 0001:0000f9d0       ?get@?$CuDevicePointer@$$CBU?$Vec4T@G@cloth@nv@@@cloth@nv@@QEBAPEBU?$Vec4T@G@23@XZ 00000001800109d0 f i CuFactory.obj
 0001:0000f9e0       ?end@?$CuDeviceVector@U?$Vec4T@G@cloth@nv@@@cloth@nv@@QEBA?AV?$CuDevicePointer@$$CBU?$Vec4T@G@cloth@nv@@@23@XZ 00000001800109e0 f i CuFactory.obj
 0001:0000f9f0       ?begin@?$CuDeviceVector@U?$Vec4T@G@cloth@nv@@@cloth@nv@@QEBA?AV?$CuDevicePointer@$$CBU?$Vec4T@G@cloth@nv@@@23@XZ 00000001800109f0 f i CuFactory.obj
 0001:0000fa00       ?front@?$Array@VPxVec3@physx@@V?$CuHostAllocator@VPxVec3@physx@@$01@cloth@nv@@@shdfnd@physx@@QEBAAEBVPxVec3@3@XZ 0000000180010a00 f i CuFactory.obj
 0001:0000fa10       ?front@?$Array@IV?$CuHostAllocator@I$01@cloth@nv@@@shdfnd@physx@@QEBAAEBIXZ 0000000180010a10 f i CuFactory.obj
 0001:0000fa20       ?front@?$Array@UIndexPair@cloth@nv@@V?$CuHostAllocator@UIndexPair@cloth@nv@@$01@23@@shdfnd@physx@@QEBAAEBUIndexPair@cloth@nv@@XZ 0000000180010a20 f i CuFactory.obj
 0001:0000fa30       ?front@?$Array@VPxVec4@physx@@V?$CuHostAllocator@VPxVec4@physx@@$01@cloth@nv@@@shdfnd@physx@@QEBAAEBVPxVec4@3@XZ 0000000180010a30 f i CuFactory.obj
 0001:0000fa40       ?get@?$CuDevicePointer@$$CBVPxVec4@physx@@@cloth@nv@@QEBAPEBVPxVec4@physx@@XZ 0000000180010a40 f i CuFactory.obj
 0001:0000fa50       ?end@?$CuDeviceVector@VPxVec4@physx@@@cloth@nv@@QEBA?AV?$CuDevicePointer@$$CBVPxVec4@physx@@@23@XZ 0000000180010a50 f i CuFactory.obj
 0001:0000fa60       ?begin@?$CuDeviceVector@VPxVec4@physx@@@cloth@nv@@QEBA?AV?$CuDevicePointer@$$CBVPxVec4@physx@@@23@XZ 0000000180010a60 f i CuFactory.obj
 0001:0000fa70       ??0?$Vec4T@G@cloth@nv@@QEAA@XZ 0000000180010a70 f i CuFactory.obj
 0001:0000fa80       ?get@?$CuDevicePointer@$$CBUCuTether@cloth@nv@@@cloth@nv@@QEBAPEBUCuTether@23@XZ 0000000180010a80 f i CuFactory.obj
 0001:0000fa90       ?begin@?$CuDeviceVector@UCuTether@cloth@nv@@@cloth@nv@@QEBA?AV?$CuDevicePointer@$$CBUCuTether@cloth@nv@@@23@XZ 0000000180010a90 f i CuFactory.obj
 0001:0000faa0       ?begin@?$CuDeviceVector@G@cloth@nv@@QEBA?AV?$CuDevicePointer@$$CBG@23@XZ 0000000180010aa0 f i CuFactory.obj
 0001:0000fab0       ?begin@?$CuDeviceVector@M@cloth@nv@@QEBA?AV?$CuDevicePointer@$$CBM@23@XZ 0000000180010ab0 f i CuFactory.obj
 0001:0000fac0       ?get@?$CuDevicePointer@$$CBI@cloth@nv@@QEBAPEBIXZ 0000000180010ac0 f i CuFactory.obj
 0001:0000fad0       ?end@?$CuDeviceVector@I@cloth@nv@@QEBA?AV?$CuDevicePointer@$$CBI@23@XZ 0000000180010ad0 f i CuFactory.obj
 0001:0000fae0       ?begin@?$CuDeviceVector@I@cloth@nv@@QEBA?AV?$CuDevicePointer@$$CBI@23@XZ 0000000180010ae0 f i CuFactory.obj
 0001:0000faf0       ??1?$Array@PEAVCuFabric@cloth@nv@@VNonTrackingAllocator@23@@shdfnd@physx@@QEAA@XZ 0000000180010af0 f i CuFactory.obj
 0001:0000fb20       ??0?$Array@PEAVCuFabric@cloth@nv@@VNonTrackingAllocator@23@@shdfnd@physx@@QEAA@AEBVNonTrackingAllocator@cloth@nv@@@Z 0000000180010b20 f i CuFactory.obj
 0001:0000fb30       ??0?$CuDevicePointer@$$CBU?$Vec4T@G@cloth@nv@@@cloth@nv@@QEAA@AEBV?$CuDevicePointer@U?$Vec4T@G@cloth@nv@@@12@@Z 0000000180010b30 f i CuFactory.obj
 0001:0000fb40       ??0?$CuDevicePointer@$$CBVPxVec4@physx@@@cloth@nv@@QEAA@AEBV?$CuDevicePointer@VPxVec4@physx@@@12@@Z 0000000180010b40 f i CuFactory.obj
 0001:0000fb50       ??0?$CuDevicePointer@$$CBUCuTether@cloth@nv@@@cloth@nv@@QEAA@AEBV?$CuDevicePointer@UCuTether@cloth@nv@@@12@@Z 0000000180010b50 f i CuFactory.obj
 0001:0000fb60       ??0?$CuDevicePointer@$$CBI@cloth@nv@@QEAA@AEBV?$CuDevicePointer@I@12@@Z 0000000180010b60 f i CuFactory.obj
 0001:0000fb70       ?size@?$Range@I@cloth@nv@@QEBAIXZ 0000000180010b70 f i CuFactory.obj
 0001:0000fb80       ?empty@?$Range@I@cloth@nv@@QEBA_NXZ 0000000180010b80 f i CuFactory.obj
 0001:0000fb90       ?popFront@?$Range@I@cloth@nv@@QEAAXXZ 0000000180010b90 f i CuFactory.obj
 0001:0000fba0       ?front@?$Range@I@cloth@nv@@QEBAAEAIXZ 0000000180010ba0 f i CuFactory.obj
 0001:0000fbb0       ??A?$Range@I@cloth@nv@@QEBAAEAII@Z 0000000180010bb0 f i CuFactory.obj
 0001:0000fbc0       ?empty@?$Range@M@cloth@nv@@QEBA_NXZ 0000000180010bc0 f i CuFactory.obj
 0001:0000fbd0       ?popFront@?$Range@M@cloth@nv@@QEAAXXZ 0000000180010bd0 f i CuFactory.obj
 0001:0000fbe0       ?front@?$Range@M@cloth@nv@@QEBAAEAMXZ 0000000180010be0 f i CuFactory.obj
 0001:0000fbf0       ?empty@?$Range@VPxVec4@physx@@@cloth@nv@@QEBA_NXZ 0000000180010bf0 f i CuFactory.obj
 0001:0000fc00       ?size@?$Range@VPxVec3@physx@@@cloth@nv@@QEBAIXZ 0000000180010c00 f i CuFactory.obj
 0001:0000fc30       ?empty@?$Range@VPxVec3@physx@@@cloth@nv@@QEBA_NXZ 0000000180010c30 f i CuFactory.obj
 0001:0000fc40       ?size@?$Range@$$BY03I@cloth@nv@@QEBAIXZ 0000000180010c40 f i CuFactory.obj
 0001:0000fc50       ?resize@?$Array@UCuTether@cloth@nv@@VNonTrackingAllocator@23@@shdfnd@physx@@QEAAXIAEBUCuTether@cloth@nv@@@Z 0000000180010c50 f i CuFactory.obj
 0001:0000fcc0       ?resize@?$Array@U?$Vec4T@G@cloth@nv@@VNonTrackingAllocator@23@@shdfnd@physx@@QEAAXIAEBU?$Vec4T@G@cloth@nv@@@Z 0000000180010cc0 f i CuFactory.obj
 0001:0000fd30       ??$?0G@?$Vec4T@I@cloth@nv@@QEAA@AEBU?$Vec4T@G@12@@Z 0000000180010d30 f i CuFactory.obj
 0001:0000fd50       ?create@?$Array@U?$Vec4T@G@cloth@nv@@VNonTrackingAllocator@23@@shdfnd@physx@@KAXPEAU?$Vec4T@G@cloth@nv@@0AEBU456@@Z 0000000180010d50 f i CuFactory.obj
 0001:0000fd70       ?create@?$Array@UCuTether@cloth@nv@@VNonTrackingAllocator@23@@shdfnd@physx@@KAXPEAUCuTether@cloth@nv@@0AEBU456@@Z 0000000180010d70 f i CuFactory.obj
 0001:0000fd90       ?fsel@intrinsics@physx@@YAMMMM@Z 0000000180010d90 f i CuSolver.obj
 0001:0000fda0       ?sqrt@intrinsics@physx@@YAMM@Z 0000000180010da0 f i CuSolver.obj
 0001:0000fdb0       ?sin@intrinsics@physx@@YAMM@Z 0000000180010db0 f i CuSolver.obj
 0001:0000fdc0       ?cos@intrinsics@physx@@YAMM@Z 0000000180010dc0 f i CuSolver.obj
 0001:0000fdd0       ??0Solver@cloth@nv@@IEAA@XZ 0000000180010dd0 f i CuSolver.obj
 0001:0000fde0       ??1Solver@cloth@nv@@UEAA@XZ 0000000180010de0 f i CuSolver.obj
 0001:0000fdf0       ??_ESolver@cloth@nv@@UEAAPEAXI@Z 0000000180010df0 f i * CIL library *:* CIL module *
 0001:0000fdf0       ??_GSolver@cloth@nv@@UEAAPEAXI@Z 0000000180010df0 f i CuSolver.obj
 0001:0000fe40       ??0Simd4fLoadFactory@cloth@nv@@QEAA@PEBM@Z 0000000180010e40 f i CuSolver.obj
 0001:0000fe50       ?simd4f@cloth@nv@@YA?AUSimd4fTupleFactory@12@AEBUSimd4iTupleFactory@12@@Z 0000000180010e50 f i CuSolver.obj
 0001:0000fe60       ?load@cloth@nv@@YA?AUSimd4fLoadFactory@12@PEBM@Z 0000000180010e60 f i CuSolver.obj
 0001:0000fe70       ??BSimd4fZeroFactory@cloth@nv@@QEBA?AT__m128@@XZ 0000000180010e70 f i CuSolver.obj
 0001:0000fe80       ??BSimd4fLoadFactory@cloth@nv@@QEBA?AT__m128@@XZ 0000000180010e80 f i CuSolver.obj
 0001:0000fe90       ??Icloth@nv@@YA?AT__m128@@AEBT2@0@Z 0000000180010e90 f i CuSolver.obj
 0001:0000fea0       ?select@cloth@nv@@YA?AT__m128@@AEBT3@00@Z 0000000180010ea0 f i CuSolver.obj
 0001:0000feb0       ?rsqrt@cloth@nv@@YA?AT__m128@@AEBT3@@Z 0000000180010eb0 f i CuSolver.obj
 0001:0000fec0       ?dot3@cloth@nv@@YA?AT__m128@@AEBT3@0@Z 0000000180010ec0 f i CuSolver.obj
 0001:0000fee0       ??0Simd4iTupleFactory@cloth@nv@@QEAA@HHHH@Z 0000000180010ee0 f i CuSolver.obj
 0001:0000ff00       ?simd4i@cloth@nv@@YA?AUSimd4iTupleFactory@12@HHHH@Z 0000000180010f00 f i CuSolver.obj
 0001:0000ff20       ??0CuClothData@cloth@nv@@QEAA@XZ 0000000180010f20 f i CuSolver.obj
 0001:0000ff30       ??0CuFrameData@cloth@nv@@QEAA@XZ 0000000180010f30 f i CuSolver.obj
 0001:0000ff40       ??0CuIterationData@cloth@nv@@QEAA@XZ 0000000180010f40 f i CuSolver.obj
 0001:0000ff50       ?PxSqrt@physx@@YAMM@Z      0000000180010f50 f i CuSolver.obj
 0001:0000ff60       ?PxSin@physx@@YAMM@Z       0000000180010f60 f i CuSolver.obj
 0001:0000ff70       ?PxCos@physx@@YAMM@Z       0000000180010f70 f i CuSolver.obj
 0001:0000ff80       ?PxAsin@physx@@YAMM@Z      0000000180010f80 f i CuSolver.obj
 0001:0000ffa0       ??APxVec3@physx@@QEAAAEAMI@Z 0000000180010fa0 f i CuSolver.obj
 0001:0000ffb0       ?magnitude@PxVec3@physx@@QEBAMXZ 0000000180010fb0 f i CuSolver.obj
 0001:0000ffe0       ??DPxVec3@physx@@QEBA?AV01@M@Z 0000000180010fe0 f i CuSolver.obj
 0001:00010010       ??0PxVec4@physx@@QEAA@AEBVPxVec3@1@M@Z 0000000180011010 f i CuSolver.obj
 0001:00010030       ??APxVec4@physx@@QEAAAEAMI@Z 0000000180011030 f i CuSolver.obj
 0001:00010040       ?getXYZ@PxVec4@physx@@QEBA?AVPxVec3@2@XZ 0000000180011040 f i CuSolver.obj
 0001:00010060       ??0PxQuat@physx@@QEAA@AEBV01@@Z 0000000180011060 f i CuSolver.obj
 0001:00010080       ?getConjugate@PxQuat@physx@@QEBA?AV12@XZ 0000000180011080 f i CuSolver.obj
 0001:000100c0       ?getImaginaryPart@PxQuat@physx@@QEBA?AVPxVec3@2@XZ 00000001800110c0 f i CuSolver.obj
 0001:000100e0       ??DPxQuat@physx@@QEBA?AV01@AEBV01@@Z 00000001800110e0 f i CuSolver.obj
 0001:00010220       ??0SwInterCollisionData@cloth@nv@@QEAA@XZ 0000000180011220 f i CuSolver.obj
 0001:00010230       ??0SwInterCollisionData@cloth@nv@@QEAA@PEAVPxVec4@physx@@0IPEAIAEBVPxTransform@4@AEBVPxVec3@4@3MPEAX@Z 0000000180011230 f i CuSolver.obj
 0001:000102c0       ??0PxTransform@physx@@QEAA@AEBV01@@Z 00000001800112c0 f i CuSolver.obj
 0001:000102f0       ?hasError@CuSolver@cloth@nv@@UEBA_NXZ 00000001800112f0 f i CuSolver.obj
 0001:00010300       ?setInterCollisionDistance@CuSolver@cloth@nv@@UEAAXM@Z 0000000180011300 f i CuSolver.obj
 0001:00010310       ?getInterCollisionDistance@CuSolver@cloth@nv@@UEBAMXZ 0000000180011310 f i CuSolver.obj
 0001:00010320       ?setInterCollisionStiffness@CuSolver@cloth@nv@@UEAAXM@Z 0000000180011320 f i CuSolver.obj
 0001:00010330       ?getInterCollisionStiffness@CuSolver@cloth@nv@@UEBAMXZ 0000000180011330 f i CuSolver.obj
 0001:00010340       ?setInterCollisionNbIterations@CuSolver@cloth@nv@@UEAAXI@Z 0000000180011340 f i CuSolver.obj
 0001:00010350       ?getInterCollisionNbIterations@CuSolver@cloth@nv@@UEBAIXZ 0000000180011350 f i CuSolver.obj
 0001:00010360       ?setInterCollisionFilter@CuSolver@cloth@nv@@UEAAXP6A_NPEAX0@Z@Z 0000000180011360 f i CuSolver.obj
 0001:00010370       ?empty@MovingAverage@cloth@nv@@QEBA_NXZ 0000000180011370 f i CuSolver.obj
 0001:00010380       ?push@MovingAverage@cloth@nv@@QEAAXIM@Z 0000000180011380 f i CuSolver.obj
 0001:000105b0       ?average@MovingAverage@cloth@nv@@QEBAMXZ 00000001800115b0 f i CuSolver.obj
 0001:00010730       ?array@cloth@nv@@YAAEAY02$$CBMAEBVPxVec3@physx@@@Z 0000000180011730 f i CuSolver.obj
 0001:00010740       ?array@cloth@nv@@YAAEAY03$$CBMAEBVPxVec4@physx@@@Z 0000000180011740 f i CuSolver.obj
 0001:00010750       ??0PxMat33@physx@@QEAA@AEBVPxVec3@1@00@Z 0000000180011750 f i CuSolver.obj
 0001:00010790       ??RPxMat33@physx@@QEAAAEAMII@Z 0000000180011790 f i CuSolver.obj
 0001:000107b0       ??APxMat33@physx@@QEAAAEAVPxVec3@1@I@Z 00000001800117b0 f i CuSolver.obj
 0001:000107c0       ?star@shdfnd@physx@@YA?AVPxMat33@2@AEBVPxVec3@2@@Z 00000001800117c0 f i CuSolver.obj
 0001:00010830       ??0PxMat44@physx@@QEAA@AEBVPxQuat@1@@Z 0000000180011830 f i CuSolver.obj
 0001:000109a0       ??RPxMat44@physx@@QEAAAEAMII@Z 00000001800119a0 f i CuSolver.obj
 0001:000109b0       ?rotate@PxMat44@physx@@QEBA?BVPxVec4@2@AEBV32@@Z 00000001800119b0 f i CuSolver.obj
 0001:00010ab0       ?rotate@PxMat44@physx@@QEBA?BVPxVec3@2@AEBV32@@Z 0000000180011ab0 f i CuSolver.obj
 0001:00010b60       ??APxMat44@physx@@QEAAAEAVPxVec4@1@I@Z 0000000180011b60 f i CuSolver.obj
 0001:00010b70       ??APxMat44@physx@@QEBAAEBVPxVec4@1@I@Z 0000000180011b70 f i CuSolver.obj
 0001:00010b80       ?log@cloth@nv@@YA?AVPxVec3@physx@@AEBVPxQuat@4@@Z 0000000180011b80 f i CuSolver.obj
 0001:00010c70       ?exp@cloth@nv@@YA?AVPxQuat@physx@@AEBVPxVec3@4@@Z 0000000180011c70 f i CuSolver.obj
 0001:00010d30       ??_ECuSolver@cloth@nv@@UEAAPEAXI@Z 0000000180011d30 f i * CIL library *:* CIL module *
 0001:00010d30       ??_GCuSolver@cloth@nv@@UEAAPEAXI@Z 0000000180011d30 f i CuSolver.obj
 0001:00010d90       ??1?$CuHostVectorImpl@UCuClothData@cloth@nv@@$03@cloth@nv@@QEAA@XZ 0000000180011d90 f i CuSolver.obj
 0001:00010dd0       ??1?$CuHostVectorImpl@UCuFrameData@cloth@nv@@$01@cloth@nv@@QEAA@XZ 0000000180011dd0 f i CuSolver.obj
 0001:00010e10       ??1?$CuHostVectorImpl@UCuIterationData@cloth@nv@@$01@cloth@nv@@QEAA@XZ 0000000180011e10 f i CuSolver.obj
 0001:00010ed0       ?pushBack@?$Array@USwInterCollisionData@cloth@nv@@VNonTrackingAllocator@23@@shdfnd@physx@@QEAAAEAUSwInterCollisionData@cloth@nv@@AEBU456@@Z 0000000180011ed0 f i CuSolver.obj
 0001:00010f90       ?size@?$Array@USwInterCollisionData@cloth@nv@@VNonTrackingAllocator@23@@shdfnd@physx@@QEBAIXZ 0000000180011f90 f i CuSolver.obj
 0001:00010fa0       ?begin@?$Array@USwInterCollisionData@cloth@nv@@VNonTrackingAllocator@23@@shdfnd@physx@@QEAAPEAUSwInterCollisionData@cloth@nv@@XZ 0000000180011fa0 f i CuSolver.obj
 0001:00010fb0       ??A?$Array@USwInterCollisionData@cloth@nv@@VNonTrackingAllocator@23@@shdfnd@physx@@QEAAAEAUSwInterCollisionData@cloth@nv@@I@Z 0000000180011fb0 f i CuSolver.obj
 0001:00010fc0       ??1?$Array@USwInterCollisionData@cloth@nv@@VNonTrackingAllocator@23@@shdfnd@physx@@QEAA@XZ 0000000180011fc0 f i CuSolver.obj
 0001:00010ff0       ??0?$Array@USwInterCollisionData@cloth@nv@@VNonTrackingAllocator@23@@shdfnd@physx@@QEAA@AEBVNonTrackingAllocator@cloth@nv@@@Z 0000000180011ff0 f i CuSolver.obj
 0001:00011000       ?pushBack@?$Array@UCuIterationData@cloth@nv@@V?$CuHostAllocator@UCuIterationData@cloth@nv@@$01@23@@shdfnd@physx@@QEAAAEAUCuIterationData@cloth@nv@@AEBU456@@Z 0000000180012000 f i CuSolver.obj
 0001:00011070       ?empty@?$Array@UCuIterationData@cloth@nv@@V?$CuHostAllocator@UCuIterationData@cloth@nv@@$01@23@@shdfnd@physx@@QEBA_NXZ 0000000180012070 f i CuSolver.obj
 0001:00011080       ?size@?$Array@UCuIterationData@cloth@nv@@V?$CuHostAllocator@UCuIterationData@cloth@nv@@$01@23@@shdfnd@physx@@QEBAIXZ 0000000180012080 f i CuSolver.obj
 0001:00011090       ?front@?$Array@UCuIterationData@cloth@nv@@V?$CuHostAllocator@UCuIterationData@cloth@nv@@$01@23@@shdfnd@physx@@QEAAAEAUCuIterationData@cloth@nv@@XZ 0000000180012090 f i CuSolver.obj
 0001:000110a0       ??1?$Array@UCuIterationData@cloth@nv@@V?$CuHostAllocator@UCuIterationData@cloth@nv@@$01@23@@shdfnd@physx@@QEAA@XZ 00000001800120a0 f i CuSolver.obj
 0001:000110e0       ??0?$CuHostAllocator@UCuIterationData@cloth@nv@@$01@cloth@nv@@QEAA@PEAUCUctx_st@@@Z 00000001800120e0 f i CuSolver.obj
 0001:000110f0       ??0?$CuHostVectorImpl@UCuIterationData@cloth@nv@@$01@cloth@nv@@QEAA@AEBV?$CuHostAllocator@UCuIterationData@cloth@nv@@$01@12@@Z 00000001800120f0 f i CuSolver.obj
 0001:00011110       ?pushBack@?$Array@UCuFrameData@cloth@nv@@V?$CuHostAllocator@UCuFrameData@cloth@nv@@$01@23@@shdfnd@physx@@QEAAAEAUCuFrameData@cloth@nv@@AEBU456@@Z 0000000180012110 f i CuSolver.obj
 0001:000111e0       ?end@?$Array@UCuFrameData@cloth@nv@@V?$CuHostAllocator@UCuFrameData@cloth@nv@@$01@23@@shdfnd@physx@@QEAAPEAUCuFrameData@cloth@nv@@XZ 00000001800121e0 f i CuSolver.obj
 0001:000111f0       ?begin@?$Array@UCuFrameData@cloth@nv@@V?$CuHostAllocator@UCuFrameData@cloth@nv@@$01@23@@shdfnd@physx@@QEAAPEAUCuFrameData@cloth@nv@@XZ 00000001800121f0 f i CuSolver.obj
 0001:00011200       ??A?$Array@UCuFrameData@cloth@nv@@V?$CuHostAllocator@UCuFrameData@cloth@nv@@$01@23@@shdfnd@physx@@QEAAAEAUCuFrameData@cloth@nv@@I@Z 0000000180012200 f i CuSolver.obj
 0001:00011210       ??1?$Array@UCuFrameData@cloth@nv@@V?$CuHostAllocator@UCuFrameData@cloth@nv@@$01@23@@shdfnd@physx@@QEAA@XZ 0000000180012210 f i CuSolver.obj
 0001:00011250       ??0?$CuHostAllocator@UCuFrameData@cloth@nv@@$01@cloth@nv@@QEAA@PEAUCUctx_st@@@Z 0000000180012250 f i CuSolver.obj
 0001:00011260       ??0?$CuHostVectorImpl@UCuFrameData@cloth@nv@@$01@cloth@nv@@QEAA@AEBV?$CuHostAllocator@UCuFrameData@cloth@nv@@$01@12@@Z 0000000180012260 f i CuSolver.obj
 0001:00011280       ?remove@?$Array@UCuClothData@cloth@nv@@V?$CuHostAllocator@UCuClothData@cloth@nv@@$03@23@@shdfnd@physx@@QEAAXI@Z 0000000180012280 f i CuSolver.obj
 0001:00011360       ?begin@?$Array@UCuClothData@cloth@nv@@V?$CuHostAllocator@UCuClothData@cloth@nv@@$03@23@@shdfnd@physx@@QEAAPEAUCuClothData@cloth@nv@@XZ 0000000180012360 f i CuSolver.obj
 0001:00011370       ??1?$Array@UCuClothData@cloth@nv@@V?$CuHostAllocator@UCuClothData@cloth@nv@@$03@23@@shdfnd@physx@@QEAA@XZ 0000000180012370 f i CuSolver.obj
 0001:000113b0       ??0?$CuHostAllocator@UCuClothData@cloth@nv@@$03@cloth@nv@@QEAA@PEAUCUctx_st@@@Z 00000001800123b0 f i CuSolver.obj
 0001:000113c0       ??0?$CuHostVectorImpl@UCuClothData@cloth@nv@@$03@cloth@nv@@QEAA@AEBV?$CuHostAllocator@UCuClothData@cloth@nv@@$03@12@@Z 00000001800123c0 f i CuSolver.obj
 0001:000113e0       ?dev@?$CuDevicePointer@UCuClothData@cloth@nv@@@cloth@nv@@QEBA_KXZ 00000001800123e0 f i CuSolver.obj
 0001:000113f0       ?get@?$CuDevicePointer@UCuClothData@cloth@nv@@@cloth@nv@@QEBAPEAUCuClothData@23@XZ 00000001800123f0 f i CuSolver.obj
 0001:00011400       ?resize@?$CuDeviceVector@UCuClothData@cloth@nv@@@cloth@nv@@QEAAX_K@Z 0000000180012400 f i CuSolver.obj
 0001:00011470       ?begin@?$CuDeviceVector@UCuClothData@cloth@nv@@@cloth@nv@@QEAA?AV?$CuDevicePointer@UCuClothData@cloth@nv@@@23@XZ 0000000180012470 f i CuSolver.obj
 0001:00011480       ?size@?$CuDeviceVector@UCuClothData@cloth@nv@@@cloth@nv@@QEBA_KXZ 0000000180012480 f i CuSolver.obj
 0001:000114b0       ??1?$CuDeviceVector@UCuClothData@cloth@nv@@@cloth@nv@@QEAA@XZ 00000001800124b0 f i CuSolver.obj
 0001:000114e0       ??0?$CuDeviceVector@UCuClothData@cloth@nv@@@cloth@nv@@QEAA@PEAUCUctx_st@@@Z 00000001800124e0 f i CuSolver.obj
 0001:00011500       ?remove@?$Array@PEAVCuCloth@cloth@nv@@VNonTrackingAllocator@23@@shdfnd@physx@@QEAAXI@Z 0000000180012500 f i CuSolver.obj
 0001:00011540       ?pushBack@?$Array@PEAVCuCloth@cloth@nv@@VNonTrackingAllocator@23@@shdfnd@physx@@QEAAAEAPEAVCuCloth@cloth@nv@@AEBQEAV456@@Z 0000000180012540 f i CuSolver.obj
 0001:00011580       ?find@?$Array@PEAVCuCloth@cloth@nv@@VNonTrackingAllocator@23@@shdfnd@physx@@QEAAPEAPEAVCuCloth@cloth@nv@@AEBQEAV456@@Z 0000000180012580 f i CuSolver.obj
 0001:000115b0       ?empty@?$Array@PEAVCuCloth@cloth@nv@@VNonTrackingAllocator@23@@shdfnd@physx@@QEBA_NXZ 00000001800125b0 f i CuSolver.obj
 0001:000115c0       ?size@?$Array@PEAVCuCloth@cloth@nv@@VNonTrackingAllocator@23@@shdfnd@physx@@QEBAIXZ 00000001800125c0 f i CuSolver.obj
 0001:000115d0       ?end@?$Array@PEAVCuCloth@cloth@nv@@VNonTrackingAllocator@23@@shdfnd@physx@@QEAAPEAPEAVCuCloth@cloth@nv@@XZ 00000001800125d0 f i CuSolver.obj
 0001:000115e0       ?begin@?$Array@PEAVCuCloth@cloth@nv@@VNonTrackingAllocator@23@@shdfnd@physx@@QEAAPEAPEAVCuCloth@cloth@nv@@XZ 00000001800125e0 f i CuSolver.obj
 0001:000115f0       ??A?$Array@PEAVCuCloth@cloth@nv@@VNonTrackingAllocator@23@@shdfnd@physx@@QEAAAEAPEAVCuCloth@cloth@nv@@I@Z 00000001800125f0 f i CuSolver.obj
 0001:00011600       ??A?$Array@PEAVCuCloth@cloth@nv@@VNonTrackingAllocator@23@@shdfnd@physx@@QEBAAEBQEAVCuCloth@cloth@nv@@I@Z 0000000180012600 f i CuSolver.obj
 0001:00011610       ??1?$Array@PEAVCuCloth@cloth@nv@@VNonTrackingAllocator@23@@shdfnd@physx@@QEAA@XZ 0000000180012610 f i CuSolver.obj
 0001:00011640       ??0?$Array@PEAVCuCloth@cloth@nv@@VNonTrackingAllocator@23@@shdfnd@physx@@QEAA@AEBVNonTrackingAllocator@cloth@nv@@@Z 0000000180012640 f i CuSolver.obj
 0001:00011650       ??1?$StackAllocator@$0BA@@cloth@nv@@QEAA@XZ 0000000180012650 f i CuSolver.obj
 0001:00011660       ??0?$StackAllocator@$0BA@@cloth@nv@@QEAA@PEAX_K@Z 0000000180012660 f i CuSolver.obj
 0001:00011680       ??0SwInterCollisionData@cloth@nv@@QEAA@AEBU012@@Z 0000000180012680 f i CuSolver.obj
 0001:00011700       ?destroy@?$Array@USwInterCollisionData@cloth@nv@@VNonTrackingAllocator@23@@shdfnd@physx@@KAXPEAUSwInterCollisionData@cloth@nv@@0@Z 0000000180012700 f i CuSolver.obj
 0001:00011710       ?deallocate@?$Array@USwInterCollisionData@cloth@nv@@VNonTrackingAllocator@23@@shdfnd@physx@@IEAAXPEAX@Z 0000000180012710 f i CuSolver.obj
 0001:00011730       ?isInUserMemory@?$Array@USwInterCollisionData@cloth@nv@@VNonTrackingAllocator@23@@shdfnd@physx@@QEBAIXZ 0000000180012730 f i CuSolver.obj
 0001:00011740       ?capacity@?$Array@USwInterCollisionData@cloth@nv@@VNonTrackingAllocator@23@@shdfnd@physx@@QEBAIXZ 0000000180012740 f i CuSolver.obj
 0001:00011750       ?destroy@?$Array@UCuIterationData@cloth@nv@@V?$CuHostAllocator@UCuIterationData@cloth@nv@@$01@23@@shdfnd@physx@@KAXPEAUCuIterationData@cloth@nv@@0@Z 0000000180012750 f i CuSolver.obj
 0001:00011760       ?deallocate@?$Array@UCuIterationData@cloth@nv@@V?$CuHostAllocator@UCuIterationData@cloth@nv@@$01@23@@shdfnd@physx@@IEAAXPEAX@Z 0000000180012760 f i CuSolver.obj
 0001:00011790       ?isInUserMemory@?$Array@UCuIterationData@cloth@nv@@V?$CuHostAllocator@UCuIterationData@cloth@nv@@$01@23@@shdfnd@physx@@QEBAIXZ 0000000180012790 f i CuSolver.obj
 0001:000117a0       ?capacity@?$Array@UCuIterationData@cloth@nv@@V?$CuHostAllocator@UCuIterationData@cloth@nv@@$01@23@@shdfnd@physx@@QEBAIXZ 00000001800127a0 f i CuSolver.obj
 0001:000117b0       ??0?$Array@UCuIterationData@cloth@nv@@V?$CuHostAllocator@UCuIterationData@cloth@nv@@$01@23@@shdfnd@physx@@QEAA@AEBV?$CuHostAllocator@UCuIterationData@cloth@nv@@$01@cloth@nv@@@Z 00000001800127b0 f i CuSolver.obj
 0001:000117d0       ?destroy@?$Array@UCuFrameData@cloth@nv@@V?$CuHostAllocator@UCuFrameData@cloth@nv@@$01@23@@shdfnd@physx@@KAXPEAUCuFrameData@cloth@nv@@0@Z 00000001800127d0 f i CuSolver.obj
 0001:000117e0       ?deallocate@?$Array@UCuFrameData@cloth@nv@@V?$CuHostAllocator@UCuFrameData@cloth@nv@@$01@23@@shdfnd@physx@@IEAAXPEAX@Z 00000001800127e0 f i CuSolver.obj
 0001:00011810       ?isInUserMemory@?$Array@UCuFrameData@cloth@nv@@V?$CuHostAllocator@UCuFrameData@cloth@nv@@$01@23@@shdfnd@physx@@QEBAIXZ 0000000180012810 f i CuSolver.obj
 0001:00011820       ?capacity@?$Array@UCuFrameData@cloth@nv@@V?$CuHostAllocator@UCuFrameData@cloth@nv@@$01@23@@shdfnd@physx@@QEBAIXZ 0000000180012820 f i CuSolver.obj
 0001:00011830       ??0?$Array@UCuFrameData@cloth@nv@@V?$CuHostAllocator@UCuFrameData@cloth@nv@@$01@23@@shdfnd@physx@@QEAA@AEBV?$CuHostAllocator@UCuFrameData@cloth@nv@@$01@cloth@nv@@@Z 0000000180012830 f i CuSolver.obj
 0001:00011850       ?destroy@?$Array@UCuClothData@cloth@nv@@V?$CuHostAllocator@UCuClothData@cloth@nv@@$03@23@@shdfnd@physx@@KAXPEAUCuClothData@cloth@nv@@0@Z 0000000180012850 f i CuSolver.obj
 0001:00011860       ?deallocate@?$Array@UCuClothData@cloth@nv@@V?$CuHostAllocator@UCuClothData@cloth@nv@@$03@23@@shdfnd@physx@@IEAAXPEAX@Z 0000000180012860 f i CuSolver.obj
 0001:00011890       ?isInUserMemory@?$Array@UCuClothData@cloth@nv@@V?$CuHostAllocator@UCuClothData@cloth@nv@@$03@23@@shdfnd@physx@@QEBAIXZ 0000000180012890 f i CuSolver.obj
 0001:000118a0       ?capacity@?$Array@UCuClothData@cloth@nv@@V?$CuHostAllocator@UCuClothData@cloth@nv@@$03@23@@shdfnd@physx@@QEBAIXZ 00000001800128a0 f i CuSolver.obj
 0001:000118b0       ??0?$Array@UCuClothData@cloth@nv@@V?$CuHostAllocator@UCuClothData@cloth@nv@@$03@23@@shdfnd@physx@@QEAA@AEBV?$CuHostAllocator@UCuClothData@cloth@nv@@$03@cloth@nv@@@Z 00000001800128b0 f i CuSolver.obj
 0001:000118d0       ??G?$CuDevicePointer@UCuClothData@cloth@nv@@@cloth@nv@@QEBA_JAEBV012@@Z 00000001800128d0 f i CuSolver.obj
 0001:00011900       ??H?$CuDevicePointer@UCuClothData@cloth@nv@@@cloth@nv@@QEBA?AV012@AEB_J@Z 0000000180012900 f i CuSolver.obj
 0001:00011920       ??0?$CuDevicePointer@UCuClothData@cloth@nv@@@cloth@nv@@QEAA@AEBV012@@Z 0000000180012920 f i CuSolver.obj
 0001:00011930       ??0?$CuDevicePointer@UCuClothData@cloth@nv@@@cloth@nv@@QEAA@XZ 0000000180012930 f i CuSolver.obj
 0001:00011940       ?reserve@?$CuDeviceVector@UCuClothData@cloth@nv@@@cloth@nv@@QEAAX_K@Z 0000000180012940 f i CuSolver.obj
 0001:00011a70       ?capacity@?$CuDeviceVector@UCuClothData@cloth@nv@@@cloth@nv@@QEBA_KXZ 0000000180012a70 f i CuSolver.obj
 0001:00011aa0       ?destroy@?$Array@PEAVCuCloth@cloth@nv@@VNonTrackingAllocator@23@@shdfnd@physx@@KAXPEAPEAVCuCloth@cloth@nv@@0@Z 0000000180012aa0 f i CuSolver.obj
 0001:00011ab0       ?deallocate@?$Array@PEAVCuCloth@cloth@nv@@VNonTrackingAllocator@23@@shdfnd@physx@@IEAAXPEAX@Z 0000000180012ab0 f i CuSolver.obj
 0001:00011ad0       ?isInUserMemory@?$Array@PEAVCuCloth@cloth@nv@@VNonTrackingAllocator@23@@shdfnd@physx@@QEBAIXZ 0000000180012ad0 f i CuSolver.obj
 0001:00011ae0       ?capacity@?$Array@PEAVCuCloth@cloth@nv@@VNonTrackingAllocator@23@@shdfnd@physx@@QEBAIXZ 0000000180012ae0 f i CuSolver.obj
 0001:00011af0       ?deallocate@?$CuHostAllocator@UCuIterationData@cloth@nv@@$01@cloth@nv@@QEAAXPEAX@Z 0000000180012af0 f i CuSolver.obj
 0001:00011b20       ?deallocate@?$CuHostAllocator@UCuFrameData@cloth@nv@@$01@cloth@nv@@QEAAXPEAX@Z 0000000180012b20 f i CuSolver.obj
 0001:00011b50       ?deallocate@?$CuHostAllocator@UCuClothData@cloth@nv@@$03@cloth@nv@@QEAAXPEAX@Z 0000000180012b50 f i CuSolver.obj
 0001:00011b80       ??$PX_UNUSED@H@@YAXAEBH@Z  0000000180012b80 f i CuSolver.obj
 0001:00011b90       ?size@?$Range@PEAVCloth@cloth@nv@@@cloth@nv@@QEBAIXZ 0000000180012b90 f i CuSolver.obj
 0001:00011ba0       ?begin@?$Range@PEAVCloth@cloth@nv@@@cloth@nv@@QEBAPEAPEAVCloth@23@XZ 0000000180012ba0 f i CuSolver.obj
 0001:00011bb0       ??$splat@$0A@@cloth@nv@@YA?AT__m128@@AEBT2@@Z 0000000180012bb0 f i CuSolver.obj
 0001:00011bc0       ??$splat@$00@cloth@nv@@YA?AT__m128@@AEBT2@@Z 0000000180012bc0 f i CuSolver.obj
 0001:00011bd0       ??$splat@$01@cloth@nv@@YA?AT__m128@@AEBT2@@Z 0000000180012bd0 f i CuSolver.obj
 0001:00011be0       ?update@?$IterationState@T__m128@@@cloth@nv@@QEAAXXZ 0000000180012be0 f i CuSolver.obj
 0001:00011cd0       ??$PxClamp@M@physx@@YAMMMM@Z 0000000180012cd0 f i CuSolver.obj
 0001:00011cf0       ?growAndPushBack@?$Array@PEAVCuCloth@cloth@nv@@VNonTrackingAllocator@23@@shdfnd@physx@@IEAAAEAPEAVCuCloth@cloth@nv@@AEBQEAV456@@Z 0000000180012cf0 f i CuSolver.obj
 0001:00011de0       ?resize@?$Array@UCuClothData@cloth@nv@@V?$CuHostAllocator@UCuClothData@cloth@nv@@$03@23@@shdfnd@physx@@QEAAXIAEBUCuClothData@cloth@nv@@@Z 0000000180012de0 f i CuSolver.obj
 0001:00011e40       ?resize@?$Array@UCuFrameData@cloth@nv@@V?$CuHostAllocator@UCuFrameData@cloth@nv@@$01@23@@shdfnd@physx@@QEAAXIAEBUCuFrameData@cloth@nv@@@Z 0000000180012e40 f i CuSolver.obj
 0001:00011ea0       ?growAndPushBack@?$Array@UCuFrameData@cloth@nv@@V?$CuHostAllocator@UCuFrameData@cloth@nv@@$01@23@@shdfnd@physx@@IEAAAEAUCuFrameData@cloth@nv@@AEBU456@@Z 0000000180012ea0 f i CuSolver.obj
 0001:00011ff0       ?resize@?$Array@UCuIterationData@cloth@nv@@V?$CuHostAllocator@UCuIterationData@cloth@nv@@$01@23@@shdfnd@physx@@QEAAXIAEBUCuIterationData@cloth@nv@@@Z 0000000180012ff0 f i CuSolver.obj
 0001:00012060       ?growAndPushBack@?$Array@UCuIterationData@cloth@nv@@V?$CuHostAllocator@UCuIterationData@cloth@nv@@$01@23@@shdfnd@physx@@IEAAAEAUCuIterationData@cloth@nv@@AEBU456@@Z 0000000180013060 f i CuSolver.obj
 0001:000121b0       ?resize@?$Array@USwInterCollisionData@cloth@nv@@VNonTrackingAllocator@23@@shdfnd@physx@@QEAAXIAEBUSwInterCollisionData@cloth@nv@@@Z 00000001800131b0 f i CuSolver.obj
 0001:000121e0       ?growAndPushBack@?$Array@USwInterCollisionData@cloth@nv@@VNonTrackingAllocator@23@@shdfnd@physx@@IEAAAEAUSwInterCollisionData@cloth@nv@@AEBU456@@Z 00000001800131e0 f i CuSolver.obj
 0001:00012350       ??$getDevicePointer@UCuFrameData@cloth@nv@@$01@cloth@nv@@YAPEAUCuFrameData@01@AEAV?$CuHostVectorImpl@UCuFrameData@cloth@nv@@$01@01@@Z 0000000180013350 f i CuSolver.obj
 0001:00012360       ??$?0VCuCloth@cloth@nv@@@IterationStateFactory@cloth@nv@@QEAA@AEAVCuCloth@12@M@Z 0000000180013360 f i CuSolver.obj
 0001:000126d0       ??$create@T__m128@@VCuCloth@cloth@nv@@@IterationStateFactory@cloth@nv@@QEBA?AU?$IterationState@T__m128@@@12@AEBVCuCloth@12@@Z 00000001800136d0 f i CuSolver.obj
 0001:00013310       ??$getDevicePointer@UCuIterationData@cloth@nv@@$01@cloth@nv@@YAPEAUCuIterationData@01@AEAV?$CuHostVectorImpl@UCuIterationData@cloth@nv@@$01@01@@Z 0000000180014310 f i CuSolver.obj
 0001:00013320       ??$PX_UNUSED@PEAUCUstream_st@@@@YAXAEBQEAUCUstream_st@@@Z 0000000180014320 f i CuSolver.obj
 0001:00013330       ??$PX_UNUSED@W4cudaError_enum@@@@YAXAEBW4cudaError_enum@@@Z 0000000180014330 f i CuSolver.obj
 0001:00013340       ??$PX_UNUSED@PEAX@@YAXAEBQEAX@Z 0000000180014340 f i CuSolver.obj
 0001:00013350       ??$swap@VPxVec3@physx@@$01@shdfnd@physx@@YAXAEAV?$CuHostVectorImpl@VPxVec3@physx@@$01@cloth@nv@@0@Z 0000000180014350 f i CuSolver.obj
 0001:00013390       ??$?0UCuClothData@cloth@nv@@@?$CuDevicePointer@UCuClothData@cloth@nv@@@cloth@nv@@QEAA@PEAUCuClothData@12@@Z 0000000180014390 f i CuSolver.obj
 0001:000133a0       ?swap@?$CuHostVectorImpl@VPxVec3@physx@@$01@cloth@nv@@QEAAXAEAV123@@Z 00000001800143a0 f i CuSolver.obj
 0001:000133e0       ?capacityIncrement@?$Array@USwInterCollisionData@cloth@nv@@VNonTrackingAllocator@23@@shdfnd@physx@@IEBAIXZ 00000001800143e0 f i CuSolver.obj
 0001:00013400       ?copy@?$Array@USwInterCollisionData@cloth@nv@@VNonTrackingAllocator@23@@shdfnd@physx@@KAXPEAUSwInterCollisionData@cloth@nv@@0PEBU456@@Z 0000000180014400 f i CuSolver.obj
 0001:000137e0       ?create@?$Array@USwInterCollisionData@cloth@nv@@VNonTrackingAllocator@23@@shdfnd@physx@@KAXPEAUSwInterCollisionData@cloth@nv@@0AEBU456@@Z 00000001800147e0 f i CuSolver.obj
 0001:00013b70       ?allocate@?$Array@USwInterCollisionData@cloth@nv@@VNonTrackingAllocator@23@@shdfnd@physx@@IEAAPEAUSwInterCollisionData@cloth@nv@@I@Z 0000000180014b70 f i CuSolver.obj
 0001:00013bc0       ?reserve@?$Array@USwInterCollisionData@cloth@nv@@VNonTrackingAllocator@23@@shdfnd@physx@@QEAAXI@Z 0000000180014bc0 f i CuSolver.obj
 0001:00013bd0       ?capacityIncrement@?$Array@UCuIterationData@cloth@nv@@V?$CuHostAllocator@UCuIterationData@cloth@nv@@$01@23@@shdfnd@physx@@IEBAIXZ 0000000180014bd0 f i CuSolver.obj
 0001:00013bf0       ?copy@?$Array@UCuIterationData@cloth@nv@@V?$CuHostAllocator@UCuIterationData@cloth@nv@@$01@23@@shdfnd@physx@@KAXPEAUCuIterationData@cloth@nv@@0PEBU456@@Z 0000000180014bf0 f i CuSolver.obj
 0001:00013c50       ?create@?$Array@UCuIterationData@cloth@nv@@V?$CuHostAllocator@UCuIterationData@cloth@nv@@$01@23@@shdfnd@physx@@KAXPEAUCuIterationData@cloth@nv@@0AEBU456@@Z 0000000180014c50 f i CuSolver.obj
 0001:00013cb0       ?allocate@?$Array@UCuIterationData@cloth@nv@@V?$CuHostAllocator@UCuIterationData@cloth@nv@@$01@23@@shdfnd@physx@@IEAAPEAUCuIterationData@cloth@nv@@I@Z 0000000180014cb0 f i CuSolver.obj
 0001:00013cd0       ?getAllocator@?$Array@UCuIterationData@cloth@nv@@V?$CuHostAllocator@UCuIterationData@cloth@nv@@$01@23@@shdfnd@physx@@QEAAAEAV?$CuHostAllocator@UCuIterationData@cloth@nv@@$01@cloth@nv@@XZ 0000000180014cd0 f i CuSolver.obj
 0001:00013ce0       ?reserve@?$Array@UCuIterationData@cloth@nv@@V?$CuHostAllocator@UCuIterationData@cloth@nv@@$01@23@@shdfnd@physx@@QEAAXI@Z 0000000180014ce0 f i CuSolver.obj
 0001:00013cf0       ?capacityIncrement@?$Array@UCuFrameData@cloth@nv@@V?$CuHostAllocator@UCuFrameData@cloth@nv@@$01@23@@shdfnd@physx@@IEBAIXZ 0000000180014cf0 f i CuSolver.obj
 0001:00013d10       ?copy@?$Array@UCuFrameData@cloth@nv@@V?$CuHostAllocator@UCuFrameData@cloth@nv@@$01@23@@shdfnd@physx@@KAXPEAUCuFrameData@cloth@nv@@0PEBU456@@Z 0000000180014d10 f i CuSolver.obj
 0001:00013de0       ?create@?$Array@UCuFrameData@cloth@nv@@V?$CuHostAllocator@UCuFrameData@cloth@nv@@$01@23@@shdfnd@physx@@KAXPEAUCuFrameData@cloth@nv@@0AEBU456@@Z 0000000180014de0 f i CuSolver.obj
 0001:00013eb0       ?allocate@?$Array@UCuFrameData@cloth@nv@@V?$CuHostAllocator@UCuFrameData@cloth@nv@@$01@23@@shdfnd@physx@@IEAAPEAUCuFrameData@cloth@nv@@I@Z 0000000180014eb0 f i CuSolver.obj
 0001:00013ed0       ?getAllocator@?$Array@UCuFrameData@cloth@nv@@V?$CuHostAllocator@UCuFrameData@cloth@nv@@$01@23@@shdfnd@physx@@QEAAAEAV?$CuHostAllocator@UCuFrameData@cloth@nv@@$01@cloth@nv@@XZ 0000000180014ed0 f i CuSolver.obj
 0001:00013ee0       ?reserve@?$Array@UCuFrameData@cloth@nv@@V?$CuHostAllocator@UCuFrameData@cloth@nv@@$01@23@@shdfnd@physx@@QEAAXI@Z 0000000180014ee0 f i CuSolver.obj
 0001:00013ef0       ?empty@?$Array@UCuFrameData@cloth@nv@@V?$CuHostAllocator@UCuFrameData@cloth@nv@@$01@23@@shdfnd@physx@@QEBA_NXZ 0000000180014ef0 f i CuSolver.obj
 0001:00013f00       ?create@?$Array@UCuClothData@cloth@nv@@V?$CuHostAllocator@UCuClothData@cloth@nv@@$03@23@@shdfnd@physx@@KAXPEAUCuClothData@cloth@nv@@0AEBU456@@Z 0000000180014f00 f i CuSolver.obj
 0001:00013fc0       ?reserve@?$Array@UCuClothData@cloth@nv@@V?$CuHostAllocator@UCuClothData@cloth@nv@@$03@23@@shdfnd@physx@@QEAAXI@Z 0000000180014fc0 f i CuSolver.obj
 0001:00013fd0       ?capacityIncrement@?$Array@PEAVCuCloth@cloth@nv@@VNonTrackingAllocator@23@@shdfnd@physx@@IEBAIXZ 0000000180014fd0 f i CuSolver.obj
 0001:00013ff0       ?copy@?$Array@PEAVCuCloth@cloth@nv@@VNonTrackingAllocator@23@@shdfnd@physx@@KAXPEAPEAVCuCloth@cloth@nv@@0PEBQEAV456@@Z 0000000180014ff0 f i CuSolver.obj
 0001:00014010       ?allocate@?$Array@PEAVCuCloth@cloth@nv@@VNonTrackingAllocator@23@@shdfnd@physx@@IEAAPEAPEAVCuCloth@cloth@nv@@I@Z 0000000180015010 f i CuSolver.obj
 0001:00014060       ?swap@?$Array@VPxVec3@physx@@V?$CuHostAllocator@VPxVec3@physx@@$01@cloth@nv@@@shdfnd@physx@@QEAAXAEAV123@@Z 0000000180015060 f i CuSolver.obj
 0001:00014090       ?grow@?$Array@USwInterCollisionData@cloth@nv@@VNonTrackingAllocator@23@@shdfnd@physx@@IEAAXI@Z 0000000180015090 f i CuSolver.obj
 0001:000140a0       ?grow@?$Array@UCuIterationData@cloth@nv@@V?$CuHostAllocator@UCuIterationData@cloth@nv@@$01@23@@shdfnd@physx@@IEAAXI@Z 00000001800150a0 f i CuSolver.obj
 0001:000140b0       ?allocate@?$CuHostAllocator@UCuIterationData@cloth@nv@@$01@cloth@nv@@QEAAPEAUCuIterationData@23@_KPEBDH@Z 00000001800150b0 f i CuSolver.obj
 0001:00014120       ?grow@?$Array@UCuFrameData@cloth@nv@@V?$CuHostAllocator@UCuFrameData@cloth@nv@@$01@23@@shdfnd@physx@@IEAAXI@Z 0000000180015120 f i CuSolver.obj
 0001:00014130       ?allocate@?$CuHostAllocator@UCuFrameData@cloth@nv@@$01@cloth@nv@@QEAAPEAUCuFrameData@23@_KPEBDH@Z 0000000180015130 f i CuSolver.obj
 0001:000141b0       ?grow@?$Array@UCuClothData@cloth@nv@@V?$CuHostAllocator@UCuClothData@cloth@nv@@$03@23@@shdfnd@physx@@IEAAXI@Z 00000001800151b0 f i CuSolver.obj
 0001:000141c0       ?recreate@?$Array@UCuClothData@cloth@nv@@V?$CuHostAllocator@UCuClothData@cloth@nv@@$03@23@@shdfnd@physx@@IEAAXI@Z 00000001800151c0 f i CuSolver.obj
 0001:00014260       ?recreate@?$Array@UCuFrameData@cloth@nv@@V?$CuHostAllocator@UCuFrameData@cloth@nv@@$01@23@@shdfnd@physx@@IEAAXI@Z 0000000180015260 f i CuSolver.obj
 0001:000142e0       ?recreate@?$Array@UCuIterationData@cloth@nv@@V?$CuHostAllocator@UCuIterationData@cloth@nv@@$01@23@@shdfnd@physx@@IEAAXI@Z 00000001800152e0 f i CuSolver.obj
 0001:00014380       ?recreate@?$Array@USwInterCollisionData@cloth@nv@@VNonTrackingAllocator@23@@shdfnd@physx@@IEAAXI@Z 0000000180015380 f i CuSolver.obj
 0001:000143d0       ??$transform@T__m128@@@cloth@nv@@YA?AT__m128@@AEAY02$$CBT2@AEBT2@@Z 00000001800153d0 f i CuSolver.obj
 0001:00014400       ??$sqr@M@cloth@nv@@YAMAEBM@Z 0000000180015400 f i CuSolver.obj
 0001:00014410       ??$assign@T__m128@@$02@cloth@nv@@YAXAEAY02T__m128@@AEBVPxMat44@physx@@@Z 0000000180015410 f i CuSolver.obj
 0001:00014440       ??$castToPxVec3@T__m128@@@IterationStateFactory@cloth@nv@@SA?AVPxVec3@physx@@AEBT__m128@@@Z 0000000180015440 f i CuSolver.obj
 0001:00014460       ??$lengthSqr@T__m128@@@IterationStateFactory@cloth@nv@@SA?AT__m128@@AEBT3@@Z 0000000180015460 f i CuSolver.obj
 0001:00014480       ??$swap@PEAVPxVec3@physx@@@shdfnd@physx@@YAXAEAPEAVPxVec3@1@0@Z 0000000180015480 f i CuSolver.obj
 0001:00014490       ?copy@?$Array@UCuClothData@cloth@nv@@V?$CuHostAllocator@UCuClothData@cloth@nv@@$03@23@@shdfnd@physx@@KAXPEAUCuClothData@cloth@nv@@0PEBU456@@Z 0000000180015490 f i CuSolver.obj
 0001:00014550       ?allocate@?$Array@UCuClothData@cloth@nv@@V?$CuHostAllocator@UCuClothData@cloth@nv@@$03@23@@shdfnd@physx@@IEAAPEAUCuClothData@cloth@nv@@I@Z 0000000180015550 f i CuSolver.obj
 0001:000145b0       ?allocate@?$CuHostAllocator@UCuClothData@cloth@nv@@$03@cloth@nv@@QEAAPEAUCuClothData@23@_KPEBDH@Z 00000001800155b0 f i CuSolver.obj
 0001:00014600       ??0CD3D11_BOX@@QEAA@JJJJJJ@Z 0000000180015600 f i DxCloth.obj
 0001:00014630       ??1CD3D11_BOX@@QEAA@XZ     0000000180015630 f i DxCloth.obj
 0001:00014640       ??0CD3D11_BUFFER_DESC@@QEAA@IIW4D3D11_USAGE@@III@Z 0000000180015640 f i DxCloth.obj
 0001:00014670       ??1CD3D11_BUFFER_DESC@@QEAA@XZ 0000000180015670 f i DxCloth.obj
 0001:00014680       ?isRawBuffer@DxBufferFlags@cloth@nv@@QEAA_NXZ 0000000180015680 f i DxCloth.obj
 0001:00014690       ??0DxConstraints@cloth@nv@@QEAA@AEAV?$DxBatchedStorage@VPxVec4@physx@@@12@@Z 0000000180015690 f i DxCloth.obj
 0001:00014760       ?pop@DxConstraints@cloth@nv@@QEAAXXZ 0000000180015760 f i DxCloth.obj
 0001:000147a0       ??_GDxCloth@cloth@nv@@UEAAPEAXI@Z 00000001800157a0 f i DxCloth.obj
 0001:000147a0       ??_EDxCloth@cloth@nv@@UEAAPEAXI@Z 00000001800157a0 f i * CIL library *:* CIL module *
 0001:00014800       ??1?$ClothImpl@VDxCloth@cloth@nv@@@cloth@nv@@UEAA@XZ 0000000180015800 f i DxCloth.obj
 0001:00014830       ??1DxConstraints@cloth@nv@@QEAA@XZ 0000000180015830 f i DxCloth.obj
 0001:00014880       ??0DxConstraints@cloth@nv@@QEAA@AEBU012@@Z 0000000180015880 f i DxCloth.obj
 0001:000148c0       ?reserve@?$Array@UDxPhaseConfig@cloth@nv@@VNonTrackingAllocator@23@@shdfnd@physx@@QEAAXI@Z 00000001800158c0 f i DxCloth.obj
 0001:000148d0       ?pushBack@?$Array@UDxPhaseConfig@cloth@nv@@VNonTrackingAllocator@23@@shdfnd@physx@@QEAAAEAUDxPhaseConfig@cloth@nv@@AEBU456@@Z 00000001800158d0 f i DxCloth.obj
 0001:00014930       ?size@?$Array@UDxPhaseConfig@cloth@nv@@VNonTrackingAllocator@23@@shdfnd@physx@@QEBAIXZ 0000000180015930 f i DxCloth.obj
 0001:00014940       ?begin@?$Array@UDxPhaseConfig@cloth@nv@@VNonTrackingAllocator@23@@shdfnd@physx@@QEAAPEAUDxPhaseConfig@cloth@nv@@XZ 0000000180015940 f i DxCloth.obj
 0001:00014950       ??1?$Array@UDxPhaseConfig@cloth@nv@@VNonTrackingAllocator@23@@shdfnd@physx@@QEAA@XZ 0000000180015950 f i DxCloth.obj
 0001:00014980       ??0?$Array@UDxPhaseConfig@cloth@nv@@VNonTrackingAllocator@23@@shdfnd@physx@@QEAA@AEBVNonTrackingAllocator@cloth@nv@@@Z 0000000180015980 f i DxCloth.obj
 0001:00014990       ??0?$ClothImpl@VDxCloth@cloth@nv@@@cloth@nv@@QEAA@XZ 0000000180015990 f i DxCloth.obj
 0001:000149f0       ?swap@?$Array@VPxVec4@physx@@VNonTrackingAllocator@cloth@nv@@@shdfnd@physx@@QEAAXAEAV123@@Z 00000001800159f0 f i DxCloth.obj
 0001:00014a20       ?end@?$Array@VPxVec4@physx@@VNonTrackingAllocator@cloth@nv@@@shdfnd@physx@@QEAAPEAVPxVec4@3@XZ 0000000180015a20 f i DxCloth.obj
 0001:00014a30       ??0?$Array@VPxVec4@physx@@VNonTrackingAllocator@cloth@nv@@@shdfnd@physx@@QEAA@AEBV012@AEBVNonTrackingAllocator@cloth@nv@@@Z 0000000180015a30 f i DxCloth.obj
 0001:00014a50       ?size@?$DxBatchedVector@U?$Vec4T@G@cloth@nv@@@cloth@nv@@QEBAIXZ 0000000180015a50 f i DxCloth.obj
 0001:00014a60       ??0?$DxBatchedVector@U?$Vec4T@G@cloth@nv@@@cloth@nv@@QEAA@AEBV012@@Z 0000000180015a60 f i DxCloth.obj
 0001:00014b70       ??1?$DxBatchedVector@U?$Vec4T@G@cloth@nv@@@cloth@nv@@QEAA@XZ 0000000180015b70 f i DxCloth.obj
 0001:00014b80       ??0?$DxBatchedVector@U?$Vec4T@G@cloth@nv@@@cloth@nv@@QEAA@AEAV?$DxBatchedStorage@U?$Vec4T@G@cloth@nv@@@12@@Z 0000000180015b80 f i DxCloth.obj
 0001:00014bf0       ?size@?$DxBatchedVector@VPxVec3@physx@@@cloth@nv@@QEBAIXZ 0000000180015bf0 f i DxCloth.obj
 0001:00014c00       ??0?$DxBatchedVector@VPxVec3@physx@@@cloth@nv@@QEAA@AEBV012@@Z 0000000180015c00 f i DxCloth.obj
 0001:00014d10       ??1?$DxBatchedVector@VPxVec3@physx@@@cloth@nv@@QEAA@XZ 0000000180015d10 f i DxCloth.obj
 0001:00014d20       ??0?$DxBatchedVector@VPxVec3@physx@@@cloth@nv@@QEAA@AEAV?$DxBatchedStorage@VPxVec3@physx@@@12@@Z 0000000180015d20 f i DxCloth.obj
 0001:00014d90       ?assign@?$DxBatchedVector@I@cloth@nv@@QEAAXPEBI0@Z 0000000180015d90 f i DxCloth.obj
 0001:00014db0       ?resize@?$DxBatchedVector@I@cloth@nv@@QEAAXI@Z 0000000180015db0 f i DxCloth.obj
 0001:00014dd0       ?size@?$DxBatchedVector@I@cloth@nv@@QEBAIXZ 0000000180015dd0 f i DxCloth.obj
 0001:00014de0       ?empty@?$DxBatchedVector@I@cloth@nv@@QEBA_NXZ 0000000180015de0 f i DxCloth.obj
 0001:00014df0       ??0?$DxBatchedVector@I@cloth@nv@@QEAA@AEBV012@@Z 0000000180015df0 f i DxCloth.obj
 0001:00014f00       ??1?$DxBatchedVector@I@cloth@nv@@QEAA@XZ 0000000180015f00 f i DxCloth.obj
 0001:00014f10       ??0?$DxBatchedVector@I@cloth@nv@@QEAA@AEAV?$DxBatchedStorage@I@12@@Z 0000000180015f10 f i DxCloth.obj
 0001:00014f80       ?size@?$DxBatchedVector@UIndexPair@cloth@nv@@@cloth@nv@@QEBAIXZ 0000000180015f80 f i DxCloth.obj
 0001:00014f90       ??0?$DxBatchedVector@UIndexPair@cloth@nv@@@cloth@nv@@QEAA@AEBV012@@Z 0000000180015f90 f i DxCloth.obj
 0001:000150a0       ??1?$DxBatchedVector@UIndexPair@cloth@nv@@@cloth@nv@@QEAA@XZ 00000001800160a0 f i DxCloth.obj
 0001:000150b0       ??0?$DxBatchedVector@UIndexPair@cloth@nv@@@cloth@nv@@QEAA@AEAV?$DxBatchedStorage@UIndexPair@cloth@nv@@@12@@Z 00000001800160b0 f i DxCloth.obj
 0001:00015120       ?assign@?$DxBatchedVector@UDxPhaseConfig@cloth@nv@@@cloth@nv@@QEAAXPEBUDxPhaseConfig@23@0@Z 0000000180016120 f i DxCloth.obj
 0001:00015150       ?size@?$DxBatchedVector@UDxPhaseConfig@cloth@nv@@@cloth@nv@@QEBAIXZ 0000000180016150 f i DxCloth.obj
 0001:00015160       ??0?$DxBatchedVector@UDxPhaseConfig@cloth@nv@@@cloth@nv@@QEAA@AEBV012@@Z 0000000180016160 f i DxCloth.obj
 0001:00015270       ??1?$DxBatchedVector@UDxPhaseConfig@cloth@nv@@@cloth@nv@@QEAA@XZ 0000000180016270 f i DxCloth.obj
 0001:00015280       ??0?$DxBatchedVector@UDxPhaseConfig@cloth@nv@@@cloth@nv@@QEAA@AEAV?$DxBatchedStorage@UDxPhaseConfig@cloth@nv@@@12@@Z 0000000180016280 f i DxCloth.obj
 0001:000152f0       ?clear@?$DxBatchedVector@VPxVec4@physx@@@cloth@nv@@QEAAXXZ 00000001800162f0 f i DxCloth.obj
 0001:00015390       ?swap@?$DxBatchedVector@VPxVec4@physx@@@cloth@nv@@QEAAXAEAV123@@Z 0000000180016390 f i DxCloth.obj
 0001:000153c0       ?unmap@?$DxBatchedVector@VPxVec4@physx@@@cloth@nv@@QEAAXXZ 00000001800163c0 f i DxCloth.obj
 0001:00015400       ?map@?$DxBatchedVector@VPxVec4@physx@@@cloth@nv@@QEAAPEAVPxVec4@physx@@W4D3D11_MAP@@@Z 0000000180016400 f i DxCloth.obj
 0001:00015460       ?buffer@?$DxBatchedVector@VPxVec4@physx@@@cloth@nv@@QEBAPEAUID3D11Buffer@@XZ 0000000180016460 f i DxCloth.obj
 0001:00015470       ?resize@?$DxBatchedVector@VPxVec4@physx@@@cloth@nv@@QEAAXI@Z 0000000180016470 f i DxCloth.obj
 0001:00015490       ?reserve@?$DxBatchedVector@VPxVec4@physx@@@cloth@nv@@QEAAXI@Z 0000000180016490 f i DxCloth.obj
 0001:000154a0       ?size@?$DxBatchedVector@VPxVec4@physx@@@cloth@nv@@QEBAIXZ 00000001800164a0 f i DxCloth.obj
 0001:000154b0       ?empty@?$DxBatchedVector@VPxVec4@physx@@@cloth@nv@@QEBA_NXZ 00000001800164b0 f i DxCloth.obj
 0001:000154c0       ?capacity@?$DxBatchedVector@VPxVec4@physx@@@cloth@nv@@QEBAIXZ 00000001800164c0 f i DxCloth.obj
 0001:000154d0       ??4?$DxBatchedVector@VPxVec4@physx@@@cloth@nv@@QEAAAEAV012@AEBV012@@Z 00000001800164d0 f i DxCloth.obj
 0001:00015580       ??0?$DxBatchedVector@VPxVec4@physx@@@cloth@nv@@QEAA@AEBV012@@Z 0000000180016580 f i DxCloth.obj
 0001:00015690       ??1?$DxBatchedVector@VPxVec4@physx@@@cloth@nv@@QEAA@XZ 0000000180016690 f i DxCloth.obj
 0001:000156a0       ??0?$DxBatchedVector@VPxVec4@physx@@@cloth@nv@@QEAA@AEAV?$DxBatchedStorage@VPxVec4@physx@@@12@@Z 00000001800166a0 f i DxCloth.obj
 0001:00015710       ??_E?$ClothImpl@VDxCloth@cloth@nv@@@cloth@nv@@UEAAPEAXI@Z 0000000180016710 f i * CIL library *:* CIL module *
 0001:00015710       ??_G?$ClothImpl@VDxCloth@cloth@nv@@@cloth@nv@@UEAAPEAXI@Z 0000000180016710 f i DxCloth.obj
 0001:00015790       ?grow@?$Array@UDxPhaseConfig@cloth@nv@@VNonTrackingAllocator@23@@shdfnd@physx@@IEAAXI@Z 0000000180016790 f i DxCloth.obj
 0001:000157a0       ?destroy@?$Array@UDxPhaseConfig@cloth@nv@@VNonTrackingAllocator@23@@shdfnd@physx@@KAXPEAUDxPhaseConfig@cloth@nv@@0@Z 00000001800167a0 f i DxCloth.obj
 0001:000157b0       ?deallocate@?$Array@UDxPhaseConfig@cloth@nv@@VNonTrackingAllocator@23@@shdfnd@physx@@IEAAXPEAX@Z 00000001800167b0 f i DxCloth.obj
 0001:000157d0       ?isInUserMemory@?$Array@UDxPhaseConfig@cloth@nv@@VNonTrackingAllocator@23@@shdfnd@physx@@QEBAIXZ 00000001800167d0 f i DxCloth.obj
 0001:000157e0       ?capacity@?$Array@UDxPhaseConfig@cloth@nv@@VNonTrackingAllocator@23@@shdfnd@physx@@QEBAIXZ 00000001800167e0 f i DxCloth.obj
 0001:000157f0       ?context@?$DxBuffer@U?$Vec4T@G@cloth@nv@@@cloth@nv@@QEBAPEAUID3D11DeviceContext@@XZ 00000001800167f0 f i DxCloth.obj
 0001:00015800       ?buffer@?$DxBatchedVector@U?$Vec4T@G@cloth@nv@@@cloth@nv@@QEBAPEAUID3D11Buffer@@XZ 0000000180016800 f i DxCloth.obj
 0001:00015810       ?remove@?$DxBatchedStorage@U?$Vec4T@G@cloth@nv@@@cloth@nv@@AEAAXPEAV?$DxBatchedVector@U?$Vec4T@G@cloth@nv@@@23@@Z 0000000180016810 f i DxCloth.obj
 0001:00015900       ?reserve@?$DxBatchedStorage@U?$Vec4T@G@cloth@nv@@@cloth@nv@@AEAAXPEAV?$DxBatchedVector@U?$Vec4T@G@cloth@nv@@@23@I@Z 0000000180016900 f i DxCloth.obj
 0001:000159a0       ?add@?$DxBatchedStorage@U?$Vec4T@G@cloth@nv@@@cloth@nv@@AEAAXPEAV?$DxBatchedVector@U?$Vec4T@G@cloth@nv@@@23@@Z 00000001800169a0 f i DxCloth.obj
 0001:00015a10       ?context@?$DxBuffer@VPxVec3@physx@@@cloth@nv@@QEBAPEAUID3D11DeviceContext@@XZ 0000000180016a10 f i DxCloth.obj
 0001:00015a20       ?buffer@?$DxBatchedVector@VPxVec3@physx@@@cloth@nv@@QEBAPEAUID3D11Buffer@@XZ 0000000180016a20 f i DxCloth.obj
 0001:00015a30       ?remove@?$DxBatchedStorage@VPxVec3@physx@@@cloth@nv@@AEAAXPEAV?$DxBatchedVector@VPxVec3@physx@@@23@@Z 0000000180016a30 f i DxCloth.obj
 0001:00015b20       ?reserve@?$DxBatchedStorage@VPxVec3@physx@@@cloth@nv@@AEAAXPEAV?$DxBatchedVector@VPxVec3@physx@@@23@I@Z 0000000180016b20 f i DxCloth.obj
 0001:00015bc0       ?add@?$DxBatchedStorage@VPxVec3@physx@@@cloth@nv@@AEAAXPEAV?$DxBatchedVector@VPxVec3@physx@@@23@@Z 0000000180016bc0 f i DxCloth.obj
 0001:00015c30       ?context@?$DxBuffer@I@cloth@nv@@QEBAPEAUID3D11DeviceContext@@XZ 0000000180016c30 f i DxCloth.obj
 0001:00015c40       ?buffer@?$DxBatchedVector@I@cloth@nv@@QEBAPEAUID3D11Buffer@@XZ 0000000180016c40 f i DxCloth.obj
 0001:00015c50       ?remove@?$DxBatchedStorage@I@cloth@nv@@AEAAXPEAV?$DxBatchedVector@I@23@@Z 0000000180016c50 f i DxCloth.obj
 0001:00015d40       ?assign@?$DxBatchedStorage@I@cloth@nv@@AEAAXPEAV?$DxBatchedVector@I@23@PEBII@Z 0000000180016d40 f i DxCloth.obj
 0001:00015df0       ?reserve@?$DxBatchedStorage@I@cloth@nv@@AEAAXPEAV?$DxBatchedVector@I@23@I@Z 0000000180016df0 f i DxCloth.obj
 0001:00015e90       ?add@?$DxBatchedStorage@I@cloth@nv@@AEAAXPEAV?$DxBatchedVector@I@23@@Z 0000000180016e90 f i DxCloth.obj
 0001:00015f00       ?context@?$DxBuffer@UIndexPair@cloth@nv@@@cloth@nv@@QEBAPEAUID3D11DeviceContext@@XZ 0000000180016f00 f i DxCloth.obj
 0001:00015f10       ?buffer@?$DxBatchedVector@UIndexPair@cloth@nv@@@cloth@nv@@QEBAPEAUID3D11Buffer@@XZ 0000000180016f10 f i DxCloth.obj
 0001:00015f20       ?remove@?$DxBatchedStorage@UIndexPair@cloth@nv@@@cloth@nv@@AEAAXPEAV?$DxBatchedVector@UIndexPair@cloth@nv@@@23@@Z 0000000180016f20 f i DxCloth.obj
 0001:00016010       ?reserve@?$DxBatchedStorage@UIndexPair@cloth@nv@@@cloth@nv@@AEAAXPEAV?$DxBatchedVector@UIndexPair@cloth@nv@@@23@I@Z 0000000180017010 f i DxCloth.obj
 0001:000160b0       ?add@?$DxBatchedStorage@UIndexPair@cloth@nv@@@cloth@nv@@AEAAXPEAV?$DxBatchedVector@UIndexPair@cloth@nv@@@23@@Z 00000001800170b0 f i DxCloth.obj
 0001:00016120       ?context@?$DxBuffer@UDxPhaseConfig@cloth@nv@@@cloth@nv@@QEBAPEAUID3D11DeviceContext@@XZ 0000000180017120 f i DxCloth.obj
 0001:00016130       ?buffer@?$DxBatchedVector@UDxPhaseConfig@cloth@nv@@@cloth@nv@@QEBAPEAUID3D11Buffer@@XZ 0000000180017130 f i DxCloth.obj
 0001:00016140       ?remove@?$DxBatchedStorage@UDxPhaseConfig@cloth@nv@@@cloth@nv@@AEAAXPEAV?$DxBatchedVector@UDxPhaseConfig@cloth@nv@@@23@@Z 0000000180017140 f i DxCloth.obj
 0001:00016230       ?assign@?$DxBatchedStorage@UDxPhaseConfig@cloth@nv@@@cloth@nv@@AEAAXPEAV?$DxBatchedVector@UDxPhaseConfig@cloth@nv@@@23@PEBUDxPhaseConfig@23@I@Z 0000000180017230 f i DxCloth.obj
 0001:000162e0       ?reserve@?$DxBatchedStorage@UDxPhaseConfig@cloth@nv@@@cloth@nv@@AEAAXPEAV?$DxBatchedVector@UDxPhaseConfig@cloth@nv@@@23@I@Z 00000001800172e0 f i DxCloth.obj
 0001:00016380       ?add@?$DxBatchedStorage@UDxPhaseConfig@cloth@nv@@@cloth@nv@@AEAAXPEAV?$DxBatchedVector@UDxPhaseConfig@cloth@nv@@@23@@Z 0000000180017380 f i DxCloth.obj
 0001:000163f0       ?context@?$DxBuffer@VPxVec4@physx@@@cloth@nv@@QEBAPEAUID3D11DeviceContext@@XZ 00000001800173f0 f i DxCloth.obj
 0001:00016400       ?unmap@?$DxBatchedStorage@VPxVec4@physx@@@cloth@nv@@AEAAXXZ 0000000180017400 f i DxCloth.obj
 0001:00016440       ?map@?$DxBatchedStorage@VPxVec4@physx@@@cloth@nv@@AEAAPEAVPxVec4@physx@@W4D3D11_MAP@@@Z 0000000180017440 f i DxCloth.obj
 0001:00016480       ?remove@?$DxBatchedStorage@VPxVec4@physx@@@cloth@nv@@AEAAXPEAV?$DxBatchedVector@VPxVec4@physx@@@23@@Z 0000000180017480 f i DxCloth.obj
 0001:00016570       ?assign@?$DxBatchedStorage@VPxVec4@physx@@@cloth@nv@@AEAAXPEAV?$DxBatchedVector@VPxVec4@physx@@@23@PEBVPxVec4@physx@@I@Z 0000000180017570 f i DxCloth.obj
 0001:00016620       ?reserve@?$DxBatchedStorage@VPxVec4@physx@@@cloth@nv@@AEAAXPEAV?$DxBatchedVector@VPxVec4@physx@@@23@I@Z 0000000180017620 f i DxCloth.obj
 0001:000166c0       ?add@?$DxBatchedStorage@VPxVec4@physx@@@cloth@nv@@AEAAXPEAV?$DxBatchedVector@VPxVec4@physx@@@23@@Z 00000001800176c0 f i DxCloth.obj
 0001:00016730       ?remove@?$Array@PEAV?$DxBatchedVector@U?$Vec4T@G@cloth@nv@@@cloth@nv@@VNonTrackingAllocator@23@@shdfnd@physx@@QEAAXI@Z 0000000180017730 f i DxCloth.obj
 0001:00016770       ?pushBack@?$Array@PEAV?$DxBatchedVector@U?$Vec4T@G@cloth@nv@@@cloth@nv@@VNonTrackingAllocator@23@@shdfnd@physx@@QEAAAEAPEAV?$DxBatchedVector@U?$Vec4T@G@cloth@nv@@@cloth@nv@@AEBQEAV456@@Z 0000000180017770 f i DxCloth.obj
 0001:000167b0       ?find@?$Array@PEAV?$DxBatchedVector@U?$Vec4T@G@cloth@nv@@@cloth@nv@@VNonTrackingAllocator@23@@shdfnd@physx@@QEAAPEAPEAV?$DxBatchedVector@U?$Vec4T@G@cloth@nv@@@cloth@nv@@AEBQEAV456@@Z 00000001800177b0 f i DxCloth.obj
 0001:000167e0       ?begin@?$Array@PEAV?$DxBatchedVector@U?$Vec4T@G@cloth@nv@@@cloth@nv@@VNonTrackingAllocator@23@@shdfnd@physx@@QEAAPEAPEAV?$DxBatchedVector@U?$Vec4T@G@cloth@nv@@@cloth@nv@@XZ 00000001800177e0 f i DxCloth.obj
 0001:000167f0       ?update@?$DxBatchedStorage@U?$Vec4T@G@cloth@nv@@@cloth@nv@@AEAAXPEAV?$DxBatchedVector@U?$Vec4T@G@cloth@nv@@@23@H@Z 00000001800177f0 f i DxCloth.obj
 0001:00016840       ?replace@?$DxBatchedStorage@U?$Vec4T@G@cloth@nv@@@cloth@nv@@AEAAXIIPEBU?$Vec4T@G@23@0@Z 0000000180017840 f i DxCloth.obj
 0001:00016b60       ?remove@?$Array@PEAV?$DxBatchedVector@VPxVec3@physx@@@cloth@nv@@VNonTrackingAllocator@23@@shdfnd@physx@@QEAAXI@Z 0000000180017b60 f i DxCloth.obj
 0001:00016ba0       ?pushBack@?$Array@PEAV?$DxBatchedVector@VPxVec3@physx@@@cloth@nv@@VNonTrackingAllocator@23@@shdfnd@physx@@QEAAAEAPEAV?$DxBatchedVector@VPxVec3@physx@@@cloth@nv@@AEBQEAV456@@Z 0000000180017ba0 f i DxCloth.obj
 0001:00016be0       ?find@?$Array@PEAV?$DxBatchedVector@VPxVec3@physx@@@cloth@nv@@VNonTrackingAllocator@23@@shdfnd@physx@@QEAAPEAPEAV?$DxBatchedVector@VPxVec3@physx@@@cloth@nv@@AEBQEAV456@@Z 0000000180017be0 f i DxCloth.obj
 0001:00016c10       ?begin@?$Array@PEAV?$DxBatchedVector@VPxVec3@physx@@@cloth@nv@@VNonTrackingAllocator@23@@shdfnd@physx@@QEAAPEAPEAV?$DxBatchedVector@VPxVec3@physx@@@cloth@nv@@XZ 0000000180017c10 f i DxCloth.obj
 0001:00016c20       ?update@?$DxBatchedStorage@VPxVec3@physx@@@cloth@nv@@AEAAXPEAV?$DxBatchedVector@VPxVec3@physx@@@23@H@Z 0000000180017c20 f i DxCloth.obj
 0001:00016c70       ?replace@?$DxBatchedStorage@VPxVec3@physx@@@cloth@nv@@AEAAXIIPEBVPxVec3@physx@@0@Z 0000000180017c70 f i DxCloth.obj
 0001:00016fb0       ?remove@?$Array@PEAV?$DxBatchedVector@I@cloth@nv@@VNonTrackingAllocator@23@@shdfnd@physx@@QEAAXI@Z 0000000180017fb0 f i DxCloth.obj
 0001:00016ff0       ?pushBack@?$Array@PEAV?$DxBatchedVector@I@cloth@nv@@VNonTrackingAllocator@23@@shdfnd@physx@@QEAAAEAPEAV?$DxBatchedVector@I@cloth@nv@@AEBQEAV456@@Z 0000000180017ff0 f i DxCloth.obj
 0001:00017030       ?find@?$Array@PEAV?$DxBatchedVector@I@cloth@nv@@VNonTrackingAllocator@23@@shdfnd@physx@@QEAAPEAPEAV?$DxBatchedVector@I@cloth@nv@@AEBQEAV456@@Z 0000000180018030 f i DxCloth.obj
 0001:00017060       ?begin@?$Array@PEAV?$DxBatchedVector@I@cloth@nv@@VNonTrackingAllocator@23@@shdfnd@physx@@QEAAPEAPEAV?$DxBatchedVector@I@cloth@nv@@XZ 0000000180018060 f i DxCloth.obj
 0001:00017070       ?update@?$DxBatchedStorage@I@cloth@nv@@AEAAXPEAV?$DxBatchedVector@I@23@H@Z 0000000180018070 f i DxCloth.obj
 0001:000170c0       ?replace@?$DxBatchedStorage@I@cloth@nv@@AEAAXIIPEBI0@Z 00000001800180c0 f i DxCloth.obj
 0001:000173e0       ?remove@?$Array@PEAV?$DxBatchedVector@UIndexPair@cloth@nv@@@cloth@nv@@VNonTrackingAllocator@23@@shdfnd@physx@@QEAAXI@Z 00000001800183e0 f i DxCloth.obj
 0001:00017420       ?pushBack@?$Array@PEAV?$DxBatchedVector@UIndexPair@cloth@nv@@@cloth@nv@@VNonTrackingAllocator@23@@shdfnd@physx@@QEAAAEAPEAV?$DxBatchedVector@UIndexPair@cloth@nv@@@cloth@nv@@AEBQEAV456@@Z 0000000180018420 f i DxCloth.obj
 0001:00017460       ?find@?$Array@PEAV?$DxBatchedVector@UIndexPair@cloth@nv@@@cloth@nv@@VNonTrackingAllocator@23@@shdfnd@physx@@QEAAPEAPEAV?$DxBatchedVector@UIndexPair@cloth@nv@@@cloth@nv@@AEBQEAV456@@Z 0000000180018460 f i DxCloth.obj
 0001:00017490       ?begin@?$Array@PEAV?$DxBatchedVector@UIndexPair@cloth@nv@@@cloth@nv@@VNonTrackingAllocator@23@@shdfnd@physx@@QEAAPEAPEAV?$DxBatchedVector@UIndexPair@cloth@nv@@@cloth@nv@@XZ 0000000180018490 f i DxCloth.obj
 0001:000174a0       ?update@?$DxBatchedStorage@UIndexPair@cloth@nv@@@cloth@nv@@AEAAXPEAV?$DxBatchedVector@UIndexPair@cloth@nv@@@23@H@Z 00000001800184a0 f i DxCloth.obj
 0001:000174f0       ?replace@?$DxBatchedStorage@UIndexPair@cloth@nv@@@cloth@nv@@AEAAXIIPEBUIndexPair@23@0@Z 00000001800184f0 f i DxCloth.obj
 0001:00017730       ?remove@?$Array@PEAV?$DxBatchedVector@UDxPhaseConfig@cloth@nv@@@cloth@nv@@VNonTrackingAllocator@23@@shdfnd@physx@@QEAAXI@Z 0000000180018730 f i DxCloth.obj
 0001:00017770       ?pushBack@?$Array@PEAV?$DxBatchedVector@UDxPhaseConfig@cloth@nv@@@cloth@nv@@VNonTrackingAllocator@23@@shdfnd@physx@@QEAAAEAPEAV?$DxBatchedVector@UDxPhaseConfig@cloth@nv@@@cloth@nv@@AEBQEAV456@@Z 0000000180018770 f i DxCloth.obj
 0001:000177b0       ?find@?$Array@PEAV?$DxBatchedVector@UDxPhaseConfig@cloth@nv@@@cloth@nv@@VNonTrackingAllocator@23@@shdfnd@physx@@QEAAPEAPEAV?$DxBatchedVector@UDxPhaseConfig@cloth@nv@@@cloth@nv@@AEBQEAV456@@Z 00000001800187b0 f i DxCloth.obj
 0001:000177e0       ?begin@?$Array@PEAV?$DxBatchedVector@UDxPhaseConfig@cloth@nv@@@cloth@nv@@VNonTrackingAllocator@23@@shdfnd@physx@@QEAAPEAPEAV?$DxBatchedVector@UDxPhaseConfig@cloth@nv@@@cloth@nv@@XZ 00000001800187e0 f i DxCloth.obj
 0001:000177f0       ?update@?$DxBatchedStorage@UDxPhaseConfig@cloth@nv@@@cloth@nv@@AEAAXPEAV?$DxBatchedVector@UDxPhaseConfig@cloth@nv@@@23@H@Z 00000001800187f0 f i DxCloth.obj
 0001:00017840       ?replace@?$DxBatchedStorage@UDxPhaseConfig@cloth@nv@@@cloth@nv@@AEAAXIIPEBUDxPhaseConfig@23@0@Z 0000000180018840 f i DxCloth.obj
 0001:00017b80       ?remove@?$Array@PEAV?$DxBatchedVector@VPxVec4@physx@@@cloth@nv@@VNonTrackingAllocator@23@@shdfnd@physx@@QEAAXI@Z 0000000180018b80 f i DxCloth.obj
 0001:00017bc0       ?pushBack@?$Array@PEAV?$DxBatchedVector@VPxVec4@physx@@@cloth@nv@@VNonTrackingAllocator@23@@shdfnd@physx@@QEAAAEAPEAV?$DxBatchedVector@VPxVec4@physx@@@cloth@nv@@AEBQEAV456@@Z 0000000180018bc0 f i DxCloth.obj
 0001:00017c00       ?find@?$Array@PEAV?$DxBatchedVector@VPxVec4@physx@@@cloth@nv@@VNonTrackingAllocator@23@@shdfnd@physx@@QEAAPEAPEAV?$DxBatchedVector@VPxVec4@physx@@@cloth@nv@@AEBQEAV456@@Z 0000000180018c00 f i DxCloth.obj
 0001:00017c30       ?begin@?$Array@PEAV?$DxBatchedVector@VPxVec4@physx@@@cloth@nv@@VNonTrackingAllocator@23@@shdfnd@physx@@QEAAPEAPEAV?$DxBatchedVector@VPxVec4@physx@@@cloth@nv@@XZ 0000000180018c30 f i DxCloth.obj
 0001:00017c40       ?unmap@?$DxBuffer@VPxVec4@physx@@@cloth@nv@@QEAAXXZ 0000000180018c40 f i DxCloth.obj
 0001:00017c70       ?map@?$DxBuffer@VPxVec4@physx@@@cloth@nv@@QEAAPEAVPxVec4@physx@@W4D3D11_MAP@@@Z 0000000180018c70 f i DxCloth.obj
 0001:00017d00       ?update@?$DxBatchedStorage@VPxVec4@physx@@@cloth@nv@@AEAAXPEAV?$DxBatchedVector@VPxVec4@physx@@@23@H@Z 0000000180018d00 f i DxCloth.obj
 0001:00017d50       ?replace@?$DxBatchedStorage@VPxVec4@physx@@@cloth@nv@@AEAAXIIPEBVPxVec4@physx@@0@Z 0000000180018d50 f i DxCloth.obj
 0001:00018060       ?capacity@?$Array@PEAV?$DxBatchedVector@U?$Vec4T@G@cloth@nv@@@cloth@nv@@VNonTrackingAllocator@23@@shdfnd@physx@@QEBAIXZ 0000000180019060 f i DxCloth.obj
 0001:00018070       ?size@?$Array@PEAV?$DxBatchedVector@U?$Vec4T@G@cloth@nv@@@cloth@nv@@VNonTrackingAllocator@23@@shdfnd@physx@@QEBAIXZ 0000000180019070 f i DxCloth.obj
 0001:00018080       ?reserve@?$DxBuffer@U?$Vec4T@G@cloth@nv@@@cloth@nv@@QEAAXI@Z 0000000180019080 f i DxCloth.obj
 0001:00018120       ??1?$DxBuffer@U?$Vec4T@G@cloth@nv@@@cloth@nv@@QEAA@XZ 0000000180019120 f i DxCloth.obj
 0001:00018180       ??0?$DxBuffer@U?$Vec4T@G@cloth@nv@@@cloth@nv@@QEAA@PEAVDxContextManagerCallback@12@AEBUDxBufferFlags@12@@Z 0000000180019180 f i DxCloth.obj
 0001:000181b0       ?unmap@?$DxBatchedStorage@U?$Vec4T@G@cloth@nv@@@cloth@nv@@AEAAXXZ 00000001800191b0 f i DxCloth.obj
 0001:000181f0       ?map@?$DxBatchedStorage@U?$Vec4T@G@cloth@nv@@@cloth@nv@@AEAAPEAU?$Vec4T@G@23@W4D3D11_MAP@@@Z 00000001800191f0 f i DxCloth.obj
 0001:00018230       ?capacity@?$Array@PEAV?$DxBatchedVector@VPxVec3@physx@@@cloth@nv@@VNonTrackingAllocator@23@@shdfnd@physx@@QEBAIXZ 0000000180019230 f i DxCloth.obj
 0001:00018240       ?size@?$Array@PEAV?$DxBatchedVector@VPxVec3@physx@@@cloth@nv@@VNonTrackingAllocator@23@@shdfnd@physx@@QEBAIXZ 0000000180019240 f i DxCloth.obj
 0001:00018250       ?reserve@?$DxBuffer@VPxVec3@physx@@@cloth@nv@@QEAAXI@Z 0000000180019250 f i DxCloth.obj
 0001:00018300       ??1?$DxBuffer@VPxVec3@physx@@@cloth@nv@@QEAA@XZ 0000000180019300 f i DxCloth.obj
 0001:00018360       ??0?$DxBuffer@VPxVec3@physx@@@cloth@nv@@QEAA@PEAVDxContextManagerCallback@12@AEBUDxBufferFlags@12@@Z 0000000180019360 f i DxCloth.obj
 0001:00018390       ?unmap@?$DxBatchedStorage@VPxVec3@physx@@@cloth@nv@@AEAAXXZ 0000000180019390 f i DxCloth.obj
 0001:000183d0       ?map@?$DxBatchedStorage@VPxVec3@physx@@@cloth@nv@@AEAAPEAVPxVec3@physx@@W4D3D11_MAP@@@Z 00000001800193d0 f i DxCloth.obj
 0001:00018410       ?capacity@?$Array@PEAV?$DxBatchedVector@I@cloth@nv@@VNonTrackingAllocator@23@@shdfnd@physx@@QEBAIXZ 0000000180019410 f i DxCloth.obj
 0001:00018420       ?size@?$Array@PEAV?$DxBatchedVector@I@cloth@nv@@VNonTrackingAllocator@23@@shdfnd@physx@@QEBAIXZ 0000000180019420 f i DxCloth.obj
 0001:00018430       ?reserve@?$DxBuffer@I@cloth@nv@@QEAAXI@Z 0000000180019430 f i DxCloth.obj
 0001:000184d0       ??1?$DxBuffer@I@cloth@nv@@QEAA@XZ 00000001800194d0 f i DxCloth.obj
 0001:00018530       ??0?$DxBuffer@I@cloth@nv@@QEAA@PEAVDxContextManagerCallback@12@AEBUDxBufferFlags@12@@Z 0000000180019530 f i DxCloth.obj
 0001:00018560       ?unmap@?$DxBatchedStorage@I@cloth@nv@@AEAAXXZ 0000000180019560 f i DxCloth.obj
 0001:000185a0       ?map@?$DxBatchedStorage@I@cloth@nv@@AEAAPEAIW4D3D11_MAP@@@Z 00000001800195a0 f i DxCloth.obj
 0001:000185e0       ?capacity@?$Array@PEAV?$DxBatchedVector@UIndexPair@cloth@nv@@@cloth@nv@@VNonTrackingAllocator@23@@shdfnd@physx@@QEBAIXZ 00000001800195e0 f i DxCloth.obj
 0001:000185f0       ?size@?$Array@PEAV?$DxBatchedVector@UIndexPair@cloth@nv@@@cloth@nv@@VNonTrackingAllocator@23@@shdfnd@physx@@QEBAIXZ 00000001800195f0 f i DxCloth.obj
 0001:00018600       ?reserve@?$DxBuffer@UIndexPair@cloth@nv@@@cloth@nv@@QEAAXI@Z 0000000180019600 f i DxCloth.obj
 0001:000186a0       ??1?$DxBuffer@UIndexPair@cloth@nv@@@cloth@nv@@QEAA@XZ 00000001800196a0 f i DxCloth.obj
 0001:00018700       ??0?$DxBuffer@UIndexPair@cloth@nv@@@cloth@nv@@QEAA@PEAVDxContextManagerCallback@12@AEBUDxBufferFlags@12@@Z 0000000180019700 f i DxCloth.obj
 0001:00018730       ?unmap@?$DxBatchedStorage@UIndexPair@cloth@nv@@@cloth@nv@@AEAAXXZ 0000000180019730 f i DxCloth.obj
 0001:00018770       ?map@?$DxBatchedStorage@UIndexPair@cloth@nv@@@cloth@nv@@AEAAPEAUIndexPair@23@W4D3D11_MAP@@@Z 0000000180019770 f i DxCloth.obj
 0001:000187b0       ?capacity@?$Array@PEAV?$DxBatchedVector@UDxPhaseConfig@cloth@nv@@@cloth@nv@@VNonTrackingAllocator@23@@shdfnd@physx@@QEBAIXZ 00000001800197b0 f i DxCloth.obj
 0001:000187c0       ?size@?$Array@PEAV?$DxBatchedVector@UDxPhaseConfig@cloth@nv@@@cloth@nv@@VNonTrackingAllocator@23@@shdfnd@physx@@QEBAIXZ 00000001800197c0 f i DxCloth.obj
 0001:000187d0       ?reserve@?$DxBuffer@UDxPhaseConfig@cloth@nv@@@cloth@nv@@QEAAXI@Z 00000001800197d0 f i DxCloth.obj
 0001:00018880       ??1?$DxBuffer@UDxPhaseConfig@cloth@nv@@@cloth@nv@@QEAA@XZ 0000000180019880 f i DxCloth.obj
 0001:000188e0       ??0?$DxBuffer@UDxPhaseConfig@cloth@nv@@@cloth@nv@@QEAA@PEAVDxContextManagerCallback@12@AEBUDxBufferFlags@12@@Z 00000001800198e0 f i DxCloth.obj
 0001:00018910       ?unmap@?$DxBatchedStorage@UDxPhaseConfig@cloth@nv@@@cloth@nv@@AEAAXXZ 0000000180019910 f i DxCloth.obj
 0001:00018950       ?map@?$DxBatchedStorage@UDxPhaseConfig@cloth@nv@@@cloth@nv@@AEAAPEAUDxPhaseConfig@23@W4D3D11_MAP@@@Z 0000000180019950 f i DxCloth.obj
 0001:00018980       ?capacity@?$Array@PEAV?$DxBatchedVector@VPxVec4@physx@@@cloth@nv@@VNonTrackingAllocator@23@@shdfnd@physx@@QEBAIXZ 0000000180019980 f i DxCloth.obj
 0001:00018990       ?size@?$Array@PEAV?$DxBatchedVector@VPxVec4@physx@@@cloth@nv@@VNonTrackingAllocator@23@@shdfnd@physx@@QEBAIXZ 0000000180019990 f i DxCloth.obj
 0001:000189a0       ?reserve@?$DxBuffer@VPxVec4@physx@@@cloth@nv@@QEAAXI@Z 00000001800199a0 f i DxCloth.obj
 0001:00018a40       ??1?$DxBuffer@VPxVec4@physx@@@cloth@nv@@QEAA@XZ 0000000180019a40 f i DxCloth.obj
 0001:00018aa0       ??0?$DxBuffer@VPxVec4@physx@@@cloth@nv@@QEAA@PEAVDxContextManagerCallback@12@AEBUDxBufferFlags@12@@Z 0000000180019aa0 f i DxCloth.obj
 0001:00018ad0       ?create@?$DxBuffer@U?$Vec4T@G@cloth@nv@@@cloth@nv@@AEAAXIPEAUD3D11_SUBRESOURCE_DATA@@@Z 0000000180019ad0 f i DxCloth.obj
 0001:00018bb0       ?unmap@?$DxBuffer@U?$Vec4T@G@cloth@nv@@@cloth@nv@@QEAAXXZ 0000000180019bb0 f i DxCloth.obj
 0001:00018be0       ?map@?$DxBuffer@U?$Vec4T@G@cloth@nv@@@cloth@nv@@QEAAPEAU?$Vec4T@G@23@W4D3D11_MAP@@@Z 0000000180019be0 f i DxCloth.obj
 0001:00018c70       ?create@?$DxBuffer@VPxVec3@physx@@@cloth@nv@@AEAAXIPEAUD3D11_SUBRESOURCE_DATA@@@Z 0000000180019c70 f i DxCloth.obj
 0001:00018d60       ?unmap@?$DxBuffer@VPxVec3@physx@@@cloth@nv@@QEAAXXZ 0000000180019d60 f i DxCloth.obj
 0001:00018d90       ?map@?$DxBuffer@VPxVec3@physx@@@cloth@nv@@QEAAPEAVPxVec3@physx@@W4D3D11_MAP@@@Z 0000000180019d90 f i DxCloth.obj
 0001:00018e20       ?create@?$DxBuffer@I@cloth@nv@@AEAAXIPEAUD3D11_SUBRESOURCE_DATA@@@Z 0000000180019e20 f i DxCloth.obj
 0001:00018f00       ?unmap@?$DxBuffer@I@cloth@nv@@QEAAXXZ 0000000180019f00 f i DxCloth.obj
 0001:00018f30       ?map@?$DxBuffer@I@cloth@nv@@QEAAPEAIW4D3D11_MAP@@@Z 0000000180019f30 f i DxCloth.obj
 0001:00018fc0       ?create@?$DxBuffer@UIndexPair@cloth@nv@@@cloth@nv@@AEAAXIPEAUD3D11_SUBRESOURCE_DATA@@@Z 0000000180019fc0 f i DxCloth.obj
 0001:000190a0       ?unmap@?$DxBuffer@UIndexPair@cloth@nv@@@cloth@nv@@QEAAXXZ 000000018001a0a0 f i DxCloth.obj
 0001:000190d0       ?map@?$DxBuffer@UIndexPair@cloth@nv@@@cloth@nv@@QEAAPEAUIndexPair@23@W4D3D11_MAP@@@Z 000000018001a0d0 f i DxCloth.obj
 0001:00019160       ?create@?$DxBuffer@UDxPhaseConfig@cloth@nv@@@cloth@nv@@AEAAXIPEAUD3D11_SUBRESOURCE_DATA@@@Z 000000018001a160 f i DxCloth.obj
 0001:00019250       ?unmap@?$DxBuffer@UDxPhaseConfig@cloth@nv@@@cloth@nv@@QEAAXXZ 000000018001a250 f i DxCloth.obj
 0001:00019280       ?map@?$DxBuffer@UDxPhaseConfig@cloth@nv@@@cloth@nv@@QEAAPEAUDxPhaseConfig@23@W4D3D11_MAP@@@Z 000000018001a280 f i DxCloth.obj
 0001:00019300       ?create@?$DxBuffer@VPxVec4@physx@@@cloth@nv@@AEAAXIPEAUD3D11_SUBRESOURCE_DATA@@@Z 000000018001a300 f i DxCloth.obj
 0001:000193e0       ?growAndPushBack@?$Array@PEAV?$DxBatchedVector@VPxVec4@physx@@@cloth@nv@@VNonTrackingAllocator@23@@shdfnd@physx@@IEAAAEAPEAV?$DxBatchedVector@VPxVec4@physx@@@cloth@nv@@AEBQEAV456@@Z 000000018001a3e0 f i DxCloth.obj
 0001:000194d0       ?growAndPushBack@?$Array@PEAV?$DxBatchedVector@UDxPhaseConfig@cloth@nv@@@cloth@nv@@VNonTrackingAllocator@23@@shdfnd@physx@@IEAAAEAPEAV?$DxBatchedVector@UDxPhaseConfig@cloth@nv@@@cloth@nv@@AEBQEAV456@@Z 000000018001a4d0 f i DxCloth.obj
 0001:000195c0       ?growAndPushBack@?$Array@PEAV?$DxBatchedVector@UIndexPair@cloth@nv@@@cloth@nv@@VNonTrackingAllocator@23@@shdfnd@physx@@IEAAAEAPEAV?$DxBatchedVector@UIndexPair@cloth@nv@@@cloth@nv@@AEBQEAV456@@Z 000000018001a5c0 f i DxCloth.obj
 0001:000196b0       ?growAndPushBack@?$Array@PEAV?$DxBatchedVector@I@cloth@nv@@VNonTrackingAllocator@23@@shdfnd@physx@@IEAAAEAPEAV?$DxBatchedVector@I@cloth@nv@@AEBQEAV456@@Z 000000018001a6b0 f i DxCloth.obj
 0001:000197a0       ?growAndPushBack@?$Array@PEAV?$DxBatchedVector@VPxVec3@physx@@@cloth@nv@@VNonTrackingAllocator@23@@shdfnd@physx@@IEAAAEAPEAV?$DxBatchedVector@VPxVec3@physx@@@cloth@nv@@AEBQEAV456@@Z 000000018001a7a0 f i DxCloth.obj
 0001:00019890       ?growAndPushBack@?$Array@PEAV?$DxBatchedVector@U?$Vec4T@G@cloth@nv@@@cloth@nv@@VNonTrackingAllocator@23@@shdfnd@physx@@IEAAAEAPEAV?$DxBatchedVector@U?$Vec4T@G@cloth@nv@@@cloth@nv@@AEBQEAV456@@Z 000000018001a890 f i DxCloth.obj
 0001:00019980       ?resizeUninitialized@?$Array@VPxVec4@physx@@VNonTrackingAllocator@cloth@nv@@@shdfnd@physx@@QEAAXI@Z 000000018001a980 f i DxCloth.obj
 0001:000199c0       ?getFabric@?$ClothImpl@VDxCloth@cloth@nv@@@cloth@nv@@UEBAAEAVFabric@23@XZ 000000018001a9c0 f i DxCloth.obj
 0001:000199d0       ?getFactory@?$ClothImpl@VDxCloth@cloth@nv@@@cloth@nv@@UEBAAEAVFactory@23@XZ 000000018001a9d0 f i DxCloth.obj
 0001:000199e0       ?setTranslation@?$ClothImpl@VDxCloth@cloth@nv@@@cloth@nv@@UEAAXAEBVPxVec3@physx@@@Z 000000018001a9e0 f i DxCloth.obj
 0001:00019a50       ?setRotation@?$ClothImpl@VDxCloth@cloth@nv@@@cloth@nv@@UEAAXAEBVPxQuat@physx@@@Z 000000018001aa50 f i DxCloth.obj
 0001:00019b00       ?getTranslation@?$ClothImpl@VDxCloth@cloth@nv@@@cloth@nv@@UEBAAEBVPxVec3@physx@@XZ 000000018001ab00 f i DxCloth.obj
 0001:00019b10       ?getRotation@?$ClothImpl@VDxCloth@cloth@nv@@@cloth@nv@@UEBAAEBVPxQuat@physx@@XZ 000000018001ab10 f i DxCloth.obj
 0001:00019b20       ?clearInertia@?$ClothImpl@VDxCloth@cloth@nv@@@cloth@nv@@UEAAXXZ 000000018001ab20 f i DxCloth.obj
 0001:00019bc0       ?teleport@?$ClothImpl@VDxCloth@cloth@nv@@@cloth@nv@@UEAAXAEBVPxVec3@physx@@@Z 000000018001abc0 f i DxCloth.obj
 0001:00019c40       ?teleportToLocation@?$ClothImpl@VDxCloth@cloth@nv@@@cloth@nv@@UEAAXAEBVPxVec3@physx@@AEBVPxQuat@5@@Z 000000018001ac40 f i DxCloth.obj
 0001:00019cc0       ?ignoreVelocityDiscontinuity@?$ClothImpl@VDxCloth@cloth@nv@@@cloth@nv@@UEAAXXZ 000000018001acc0 f i DxCloth.obj
 0001:00019cd0       ?getPreviousIterationDt@?$ClothImpl@VDxCloth@cloth@nv@@@cloth@nv@@UEBAMXZ 000000018001acd0 f i DxCloth.obj
 0001:00019ce0       ?setGravity@?$ClothImpl@VDxCloth@cloth@nv@@@cloth@nv@@UEAAXAEBVPxVec3@physx@@@Z 000000018001ace0 f i DxCloth.obj
 0001:00019d40       ?getGravity@?$ClothImpl@VDxCloth@cloth@nv@@@cloth@nv@@UEBA?AVPxVec3@physx@@XZ 000000018001ad40 f i DxCloth.obj
 0001:00019d60       ?setDamping@?$ClothImpl@VDxCloth@cloth@nv@@@cloth@nv@@UEAAXAEBVPxVec3@physx@@@Z 000000018001ad60 f i DxCloth.obj
 0001:00019e70       ?getDamping@?$ClothImpl@VDxCloth@cloth@nv@@@cloth@nv@@UEBA?AVPxVec3@physx@@XZ 000000018001ae70 f i DxCloth.obj
 0001:00019ec0       ?setLinearDrag@?$ClothImpl@VDxCloth@cloth@nv@@@cloth@nv@@UEAAXAEBVPxVec3@physx@@@Z 000000018001aec0 f i DxCloth.obj
 0001:00019fd0       ?getLinearDrag@?$ClothImpl@VDxCloth@cloth@nv@@@cloth@nv@@UEBA?AVPxVec3@physx@@XZ 000000018001afd0 f i DxCloth.obj
 0001:0001a020       ?setAngularDrag@?$ClothImpl@VDxCloth@cloth@nv@@@cloth@nv@@UEAAXAEBVPxVec3@physx@@@Z 000000018001b020 f i DxCloth.obj
 0001:0001a130       ?getAngularDrag@?$ClothImpl@VDxCloth@cloth@nv@@@cloth@nv@@UEBA?AVPxVec3@physx@@XZ 000000018001b130 f i DxCloth.obj
 0001:0001a180       ?setLinearInertia@?$ClothImpl@VDxCloth@cloth@nv@@@cloth@nv@@UEAAXAEBVPxVec3@physx@@@Z 000000018001b180 f i DxCloth.obj
 0001:0001a1e0       ?getLinearInertia@?$ClothImpl@VDxCloth@cloth@nv@@@cloth@nv@@UEBA?AVPxVec3@physx@@XZ 000000018001b1e0 f i DxCloth.obj
 0001:0001a200       ?setAngularInertia@?$ClothImpl@VDxCloth@cloth@nv@@@cloth@nv@@UEAAXAEBVPxVec3@physx@@@Z 000000018001b200 f i DxCloth.obj
 0001:0001a260       ?getAngularInertia@?$ClothImpl@VDxCloth@cloth@nv@@@cloth@nv@@UEBA?AVPxVec3@physx@@XZ 000000018001b260 f i DxCloth.obj
 0001:0001a280       ?setCentrifugalInertia@?$ClothImpl@VDxCloth@cloth@nv@@@cloth@nv@@UEAAXAEBVPxVec3@physx@@@Z 000000018001b280 f i DxCloth.obj
 0001:0001a2e0       ?getCentrifugalInertia@?$ClothImpl@VDxCloth@cloth@nv@@@cloth@nv@@UEBA?AVPxVec3@physx@@XZ 000000018001b2e0 f i DxCloth.obj
 0001:0001a300       ?setSolverFrequency@?$ClothImpl@VDxCloth@cloth@nv@@@cloth@nv@@UEAAXM@Z 000000018001b300 f i DxCloth.obj
 0001:0001a350       ?getSolverFrequency@?$ClothImpl@VDxCloth@cloth@nv@@@cloth@nv@@UEBAMXZ 000000018001b350 f i DxCloth.obj
 0001:0001a360       ?setStiffnessFrequency@?$ClothImpl@VDxCloth@cloth@nv@@@cloth@nv@@UEAAXM@Z 000000018001b360 f i DxCloth.obj
 0001:0001a3a0       ?getStiffnessFrequency@?$ClothImpl@VDxCloth@cloth@nv@@@cloth@nv@@UEBAMXZ 000000018001b3a0 f i DxCloth.obj
 0001:0001a3b0       ?setAcceleationFilterWidth@?$ClothImpl@VDxCloth@cloth@nv@@@cloth@nv@@UEAAXI@Z 000000018001b3b0 f i DxCloth.obj
 0001:0001a3c0       ?getAccelerationFilterWidth@?$ClothImpl@VDxCloth@cloth@nv@@@cloth@nv@@UEBAIXZ 000000018001b3c0 f i DxCloth.obj
 0001:0001a3d0       ?setSpheres@?$ClothImpl@VDxCloth@cloth@nv@@@cloth@nv@@UEAAXU?$Range@$$CBVPxVec4@physx@@@23@II@Z 000000018001b3d0 f i DxCloth.obj
 0001:0001ab00       ?getNumSpheres@?$ClothImpl@VDxCloth@cloth@nv@@@cloth@nv@@UEBAIXZ 000000018001bb00 f i DxCloth.obj
 0001:0001ab10       ?setCapsules@?$ClothImpl@VDxCloth@cloth@nv@@@cloth@nv@@UEAAXU?$Range@$$CBI@23@II@Z 000000018001bb10 f i DxCloth.obj
 0001:0001ad70       ?getNumCapsules@?$ClothImpl@VDxCloth@cloth@nv@@@cloth@nv@@UEBAIXZ 000000018001bd70 f i DxCloth.obj
 0001:0001ad80       ?setPlanes@?$ClothImpl@VDxCloth@cloth@nv@@@cloth@nv@@UEAAXU?$Range@$$CBVPxVec4@physx@@@23@II@Z 000000018001bd80 f i DxCloth.obj
 0001:0001b500       ?getNumPlanes@?$ClothImpl@VDxCloth@cloth@nv@@@cloth@nv@@UEBAIXZ 000000018001c500 f i DxCloth.obj
 0001:0001b510       ?setConvexes@?$ClothImpl@VDxCloth@cloth@nv@@@cloth@nv@@UEAAXU?$Range@$$CBI@23@II@Z 000000018001c510 f i DxCloth.obj
 0001:0001b700       ?getNumConvexes@?$ClothImpl@VDxCloth@cloth@nv@@@cloth@nv@@UEBAIXZ 000000018001c700 f i DxCloth.obj
 0001:0001b710       ?setTriangles@?$ClothImpl@VDxCloth@cloth@nv@@@cloth@nv@@UEAAXU?$Range@$$CBVPxVec3@physx@@@23@0I@Z 000000018001c710 f i DxCloth.obj
 0001:0001b9f0       ?setTriangles@?$ClothImpl@VDxCloth@cloth@nv@@@cloth@nv@@UEAAXU?$Range@$$CBVPxVec3@physx@@@23@II@Z 000000018001c9f0 f i DxCloth.obj
 0001:0001c0c0       ?getNumTriangles@?$ClothImpl@VDxCloth@cloth@nv@@@cloth@nv@@UEBAIXZ 000000018001d0c0 f i DxCloth.obj
 0001:0001c0d0       ?isContinuousCollisionEnabled@?$ClothImpl@VDxCloth@cloth@nv@@@cloth@nv@@UEBA_NXZ 000000018001d0d0 f i DxCloth.obj
 0001:0001c0e0       ?enableContinuousCollision@?$ClothImpl@VDxCloth@cloth@nv@@@cloth@nv@@UEAAX_N@Z 000000018001d0e0 f i DxCloth.obj
 0001:0001c130       ?getCollisionMassScale@?$ClothImpl@VDxCloth@cloth@nv@@@cloth@nv@@UEBAMXZ 000000018001d130 f i DxCloth.obj
 0001:0001c140       ?setCollisionMassScale@?$ClothImpl@VDxCloth@cloth@nv@@@cloth@nv@@UEAAXM@Z 000000018001d140 f i DxCloth.obj
 0001:0001c190       ?setFriction@?$ClothImpl@VDxCloth@cloth@nv@@@cloth@nv@@UEAAXM@Z 000000018001d190 f i DxCloth.obj
 0001:0001c1a0       ?getFriction@?$ClothImpl@VDxCloth@cloth@nv@@@cloth@nv@@UEBAMXZ 000000018001d1a0 f i DxCloth.obj
 0001:0001c1b0       ?getNumVirtualParticleWeights@?$ClothImpl@VDxCloth@cloth@nv@@@cloth@nv@@UEBAIXZ 000000018001d1b0 f i DxCloth.obj
 0001:0001c1c0       ?setTetherConstraintScale@?$ClothImpl@VDxCloth@cloth@nv@@@cloth@nv@@UEAAXM@Z 000000018001d1c0 f i DxCloth.obj
 0001:0001c210       ?getTetherConstraintScale@?$ClothImpl@VDxCloth@cloth@nv@@@cloth@nv@@UEBAMXZ 000000018001d210 f i DxCloth.obj
 0001:0001c220       ?setTetherConstraintStiffness@?$ClothImpl@VDxCloth@cloth@nv@@@cloth@nv@@UEAAXM@Z 000000018001d220 f i DxCloth.obj
 0001:0001c2a0       ?getTetherConstraintStiffness@?$ClothImpl@VDxCloth@cloth@nv@@@cloth@nv@@UEBAMXZ 000000018001d2a0 f i DxCloth.obj
 0001:0001c2f0       ?getMotionConstraints@?$ClothImpl@VDxCloth@cloth@nv@@@cloth@nv@@UEAA?AU?$Range@VPxVec4@physx@@@23@XZ 000000018001d2f0 f i DxCloth.obj
 0001:0001c350       ?clearMotionConstraints@?$ClothImpl@VDxCloth@cloth@nv@@@cloth@nv@@UEAAXXZ 000000018001d350 f i DxCloth.obj
 0001:0001c3e0       ?getNumMotionConstraints@?$ClothImpl@VDxCloth@cloth@nv@@@cloth@nv@@UEBAIXZ 000000018001d3e0 f i DxCloth.obj
 0001:0001c3f0       ?setMotionConstraintScaleBias@?$ClothImpl@VDxCloth@cloth@nv@@@cloth@nv@@UEAAXMM@Z 000000018001d3f0 f i DxCloth.obj
 0001:0001c450       ?getMotionConstraintScale@?$ClothImpl@VDxCloth@cloth@nv@@@cloth@nv@@UEBAMXZ 000000018001d450 f i DxCloth.obj
 0001:0001c460       ?getMotionConstraintBias@?$ClothImpl@VDxCloth@cloth@nv@@@cloth@nv@@UEBAMXZ 000000018001d460 f i DxCloth.obj
 0001:0001c470       ?setMotionConstraintStiffness@?$ClothImpl@VDxCloth@cloth@nv@@@cloth@nv@@UEAAXM@Z 000000018001d470 f i DxCloth.obj
 0001:0001c4f0       ?getMotionConstraintStiffness@?$ClothImpl@VDxCloth@cloth@nv@@@cloth@nv@@UEBAMXZ 000000018001d4f0 f i DxCloth.obj
 0001:0001c540       ?getSeparationConstraints@?$ClothImpl@VDxCloth@cloth@nv@@@cloth@nv@@UEAA?AU?$Range@VPxVec4@physx@@@23@XZ 000000018001d540 f i DxCloth.obj
 0001:0001c5a0       ?clearSeparationConstraints@?$ClothImpl@VDxCloth@cloth@nv@@@cloth@nv@@UEAAXXZ 000000018001d5a0 f i DxCloth.obj
 0001:0001c630       ?getNumSeparationConstraints@?$ClothImpl@VDxCloth@cloth@nv@@@cloth@nv@@UEBAIXZ 000000018001d630 f i DxCloth.obj
 0001:0001c640       ?clearInterpolation@?$ClothImpl@VDxCloth@cloth@nv@@@cloth@nv@@UEAAXXZ 000000018001d640 f i DxCloth.obj
 0001:0001c7c0       ?getNumParticleAccelerations@?$ClothImpl@VDxCloth@cloth@nv@@@cloth@nv@@UEBAIXZ 000000018001d7c0 f i DxCloth.obj
 0001:0001c7d0       ?setWindVelocity@?$ClothImpl@VDxCloth@cloth@nv@@@cloth@nv@@UEAAXVPxVec3@physx@@@Z 000000018001d7d0 f i DxCloth.obj
 0001:0001c850       ?getWindVelocity@?$ClothImpl@VDxCloth@cloth@nv@@@cloth@nv@@UEBA?AVPxVec3@physx@@XZ 000000018001d850 f i DxCloth.obj
 0001:0001c870       ?setDragCoefficient@?$ClothImpl@VDxCloth@cloth@nv@@@cloth@nv@@UEAAXM@Z 000000018001d870 f i DxCloth.obj
 0001:0001c8f0       ?getDragCoefficient@?$ClothImpl@VDxCloth@cloth@nv@@@cloth@nv@@UEBAMXZ 000000018001d8f0 f i DxCloth.obj
 0001:0001c940       ?setLiftCoefficient@?$ClothImpl@VDxCloth@cloth@nv@@@cloth@nv@@UEAAXM@Z 000000018001d940 f i DxCloth.obj
 0001:0001c9c0       ?getLiftCoefficient@?$ClothImpl@VDxCloth@cloth@nv@@@cloth@nv@@UEBAMXZ 000000018001d9c0 f i DxCloth.obj
 0001:0001ca10       ?setFluidDensity@?$ClothImpl@VDxCloth@cloth@nv@@@cloth@nv@@UEAAXM@Z 000000018001da10 f i DxCloth.obj
 0001:0001ca60       ?getFluidDensity@?$ClothImpl@VDxCloth@cloth@nv@@@cloth@nv@@UEBAMXZ 000000018001da60 f i DxCloth.obj
 0001:0001ca70       ?setSelfCollisionDistance@?$ClothImpl@VDxCloth@cloth@nv@@@cloth@nv@@UEAAXM@Z 000000018001da70 f i DxCloth.obj
 0001:0001cac0       ?getSelfCollisionDistance@?$ClothImpl@VDxCloth@cloth@nv@@@cloth@nv@@UEBAMXZ 000000018001dac0 f i DxCloth.obj
 0001:0001cad0       ?setSelfCollisionStiffness@?$ClothImpl@VDxCloth@cloth@nv@@@cloth@nv@@UEAAXM@Z 000000018001dad0 f i DxCloth.obj
 0001:0001cb50       ?getSelfCollisionStiffness@?$ClothImpl@VDxCloth@cloth@nv@@@cloth@nv@@UEBAMXZ 000000018001db50 f i DxCloth.obj
 0001:0001cba0       ?getNumSelfCollisionIndices@?$ClothImpl@VDxCloth@cloth@nv@@@cloth@nv@@UEBAIXZ 000000018001dba0 f i DxCloth.obj
 0001:0001cbb0       ?setRestPositions@?$ClothImpl@VDxCloth@cloth@nv@@@cloth@nv@@UEAAXU?$Range@$$CBVPxVec4@physx@@@23@@Z 000000018001dbb0 f i DxCloth.obj
 0001:0001cc40       ?getNumRestPositions@?$ClothImpl@VDxCloth@cloth@nv@@@cloth@nv@@UEBAIXZ 000000018001dc40 f i DxCloth.obj
 0001:0001cc50       ?getBoundingBoxCenter@?$ClothImpl@VDxCloth@cloth@nv@@@cloth@nv@@UEBAAEBVPxVec3@physx@@XZ 000000018001dc50 f i DxCloth.obj
 0001:0001cc60       ?getBoundingBoxScale@?$ClothImpl@VDxCloth@cloth@nv@@@cloth@nv@@UEBAAEBVPxVec3@physx@@XZ 000000018001dc60 f i DxCloth.obj
 0001:0001cc70       ?setSleepThreshold@?$ClothImpl@VDxCloth@cloth@nv@@@cloth@nv@@UEAAXM@Z 000000018001dc70 f i DxCloth.obj
 0001:0001ccc0       ?getSleepThreshold@?$ClothImpl@VDxCloth@cloth@nv@@@cloth@nv@@UEBAMXZ 000000018001dcc0 f i DxCloth.obj
 0001:0001ccd0       ?setSleepTestInterval@?$ClothImpl@VDxCloth@cloth@nv@@@cloth@nv@@UEAAXI@Z 000000018001dcd0 f i DxCloth.obj
 0001:0001cd20       ?getSleepTestInterval@?$ClothImpl@VDxCloth@cloth@nv@@@cloth@nv@@UEBAIXZ 000000018001dd20 f i DxCloth.obj
 0001:0001cd30       ?setSleepAfterCount@?$ClothImpl@VDxCloth@cloth@nv@@@cloth@nv@@UEAAXI@Z 000000018001dd30 f i DxCloth.obj
 0001:0001cd80       ?getSleepAfterCount@?$ClothImpl@VDxCloth@cloth@nv@@@cloth@nv@@UEBAIXZ 000000018001dd80 f i DxCloth.obj
 0001:0001cd90       ?getSleepPassCount@?$ClothImpl@VDxCloth@cloth@nv@@@cloth@nv@@UEBAIXZ 000000018001dd90 f i DxCloth.obj
 0001:0001cda0       ?isAsleep@?$ClothImpl@VDxCloth@cloth@nv@@@cloth@nv@@UEBA_NXZ 000000018001dda0 f i DxCloth.obj
 0001:0001cde0       ?putToSleep@?$ClothImpl@VDxCloth@cloth@nv@@@cloth@nv@@UEAAXXZ 000000018001dde0 f i DxCloth.obj
 0001:0001cdf0       ?isSleeping@?$ClothImpl@VDxCloth@cloth@nv@@@cloth@nv@@UEBA_NXZ 000000018001ddf0 f i DxCloth.obj
 0001:0001ce00       ?wakeUp@?$ClothImpl@VDxCloth@cloth@nv@@@cloth@nv@@UEAAXXZ 000000018001de00 f i DxCloth.obj
 0001:0001ce10       ?setUserData@?$ClothImpl@VDxCloth@cloth@nv@@@cloth@nv@@UEAAXPEAX@Z 000000018001de10 f i DxCloth.obj
 0001:0001ce20       ?getUserData@?$ClothImpl@VDxCloth@cloth@nv@@@cloth@nv@@UEBAPEAXXZ 000000018001de20 f i DxCloth.obj
 0001:0001ce30       ??$initialize@VDxCloth@cloth@nv@@@cloth@nv@@YAXAEAVDxCloth@01@PEBVPxVec4@physx@@1@Z 000000018001de30 f i DxCloth.obj
 0001:0001d1e0       ??$copy@VDxCloth@cloth@nv@@V123@@cloth@nv@@YAXAEAVDxCloth@01@AEBV201@@Z 000000018001e1e0 f i DxCloth.obj
 0001:0001d4c0       ?growAndPushBack@?$Array@UDxPhaseConfig@cloth@nv@@VNonTrackingAllocator@23@@shdfnd@physx@@IEAAAEAUDxPhaseConfig@cloth@nv@@AEBU456@@Z 000000018001e4c0 f i DxCloth.obj
 0001:0001d5d0       ?recreate@?$Array@UDxPhaseConfig@cloth@nv@@VNonTrackingAllocator@23@@shdfnd@physx@@IEAAXI@Z 000000018001e5d0 f i DxCloth.obj
 0001:0001d690       ??$getMappedParticles@VPxVec4@physx@@@?$ClothImpl@VDxCloth@cloth@nv@@@cloth@nv@@QEBA?AU?$MappedRange@VPxVec4@physx@@@12@PEAVPxVec4@physx@@@Z 000000018001e690 f i DxCloth.obj
 0001:0001d720       ??$getMappedParticles@$$CBVPxVec4@physx@@@?$ClothImpl@VDxCloth@cloth@nv@@@cloth@nv@@QEBA?AU?$MappedRange@$$CBVPxVec4@physx@@@12@PEBVPxVec4@physx@@@Z 000000018001e720 f i DxCloth.obj
 0001:0001d7b0       ??$?4VNonTrackingAllocator@cloth@nv@@@?$DxBatchedVector@U?$Vec4T@G@cloth@nv@@@cloth@nv@@QEAAAEAV012@AEBV?$Array@U?$Vec4T@G@cloth@nv@@VNonTrackingAllocator@23@@shdfnd@physx@@@Z 000000018001e7b0 f i DxCloth.obj
 0001:0001d7e0       ??$?4VNonTrackingAllocator@cloth@nv@@@?$DxBatchedVector@I@cloth@nv@@QEAAAEAV012@AEBV?$Array@IVNonTrackingAllocator@cloth@nv@@@shdfnd@physx@@@Z 000000018001e7e0 f i DxCloth.obj
 0001:0001d810       ??$?4VNonTrackingAllocator@cloth@nv@@@?$DxBatchedVector@VPxVec4@physx@@@cloth@nv@@QEAAAEAV012@AEBV?$Array@VPxVec4@physx@@VNonTrackingAllocator@cloth@nv@@@shdfnd@physx@@@Z 000000018001e810 f i DxCloth.obj
 0001:0001d840       ??$copy@VNonTrackingAllocator@cloth@nv@@@?$Array@VPxVec4@physx@@VNonTrackingAllocator@cloth@nv@@@shdfnd@physx@@IEAAXAEBV012@@Z 000000018001e840 f i DxCloth.obj
 0001:0001d8d0       ??$swap@U?$Vec4T@G@cloth@nv@@@shdfnd@physx@@YAXAEAV?$DxBuffer@U?$Vec4T@G@cloth@nv@@@cloth@nv@@0@Z 000000018001e8d0 f i DxCloth.obj
 0001:0001d940       ??$swap@VPxVec3@physx@@@shdfnd@physx@@YAXAEAV?$DxBuffer@VPxVec3@physx@@@cloth@nv@@0@Z 000000018001e940 f i DxCloth.obj
 0001:0001d9b0       ??$swap@I@shdfnd@physx@@YAXAEAV?$DxBuffer@I@cloth@nv@@0@Z 000000018001e9b0 f i DxCloth.obj
 0001:0001da20       ??$swap@UIndexPair@cloth@nv@@@shdfnd@physx@@YAXAEAV?$DxBuffer@UIndexPair@cloth@nv@@@cloth@nv@@0@Z 000000018001ea20 f i DxCloth.obj
 0001:0001da90       ??$swap@UDxPhaseConfig@cloth@nv@@@shdfnd@physx@@YAXAEAV?$DxBuffer@UDxPhaseConfig@cloth@nv@@@cloth@nv@@0@Z 000000018001ea90 f i DxCloth.obj
 0001:0001db00       ??$swap@VPxVec4@physx@@@shdfnd@physx@@YAXAEAV?$DxBuffer@VPxVec4@physx@@@cloth@nv@@0@Z 000000018001eb00 f i DxCloth.obj
 0001:0001db70       ?capacityIncrement@?$Array@UDxPhaseConfig@cloth@nv@@VNonTrackingAllocator@23@@shdfnd@physx@@IEBAIXZ 000000018001eb70 f i DxCloth.obj
 0001:0001db90       ?copy@?$Array@UDxPhaseConfig@cloth@nv@@VNonTrackingAllocator@23@@shdfnd@physx@@KAXPEAUDxPhaseConfig@cloth@nv@@0PEBU456@@Z 000000018001eb90 f i DxCloth.obj
 0001:0001dbc0       ?allocate@?$Array@UDxPhaseConfig@cloth@nv@@VNonTrackingAllocator@23@@shdfnd@physx@@IEAAPEAUDxPhaseConfig@cloth@nv@@I@Z 000000018001ebc0 f i DxCloth.obj
 0001:0001dc10       ?end@?$Array@U?$Vec4T@G@cloth@nv@@VNonTrackingAllocator@23@@shdfnd@physx@@QEBAPEBU?$Vec4T@G@cloth@nv@@XZ 000000018001ec10 f i DxCloth.obj
 0001:0001dc20       ?begin@?$Array@U?$Vec4T@G@cloth@nv@@VNonTrackingAllocator@23@@shdfnd@physx@@QEBAPEBU?$Vec4T@G@cloth@nv@@XZ 000000018001ec20 f i DxCloth.obj
 0001:0001dc30       ?replaceWithLast@?$DxVectorMap@V?$DxBatchedVector@I@cloth@nv@@@cloth@nv@@QEAAXPEAI@Z 000000018001ec30 f i DxCloth.obj
 0001:0001dc50       ??A?$DxVectorMap@V?$DxBatchedVector@I@cloth@nv@@@cloth@nv@@QEAAAEAII@Z 000000018001ec50 f i DxCloth.obj
 0001:0001dc60       ?end@?$DxVectorMap@V?$DxBatchedVector@I@cloth@nv@@@cloth@nv@@QEAAPEAIXZ 000000018001ec60 f i DxCloth.obj
 0001:0001dc70       ?begin@?$DxVectorMap@V?$DxBatchedVector@I@cloth@nv@@@cloth@nv@@QEAAPEAIXZ 000000018001ec70 f i DxCloth.obj
 0001:0001dc80       ?resize@?$DxVectorMap@V?$DxBatchedVector@I@cloth@nv@@@cloth@nv@@QEAAXIAEBI@Z 000000018001ec80 f i DxCloth.obj
 0001:0001dca0       ??1?$DxVectorMap@V?$DxBatchedVector@I@cloth@nv@@@cloth@nv@@QEAA@XZ 000000018001eca0 f i DxCloth.obj
 0001:0001dd00       ??0?$DxVectorMap@V?$DxBatchedVector@I@cloth@nv@@@cloth@nv@@QEAA@AEAV?$DxBatchedVector@I@12@W4D3D11_MAP@@@Z 000000018001ed00 f i DxCloth.obj
 0001:0001dd90       ?replaceWithLast@?$DxVectorMap@V?$DxBatchedVector@UIndexPair@cloth@nv@@@cloth@nv@@@cloth@nv@@QEAAXPEAUIndexPair@23@@Z 000000018001ed90 f i DxCloth.obj
 0001:0001ddb0       ??A?$DxVectorMap@V?$DxBatchedVector@UIndexPair@cloth@nv@@@cloth@nv@@@cloth@nv@@QEAAAEAUIndexPair@12@I@Z 000000018001edb0 f i DxCloth.obj
 0001:0001ddc0       ?end@?$DxVectorMap@V?$DxBatchedVector@UIndexPair@cloth@nv@@@cloth@nv@@@cloth@nv@@QEAAPEAUIndexPair@23@XZ 000000018001edc0 f i DxCloth.obj
 0001:0001ddd0       ?begin@?$DxVectorMap@V?$DxBatchedVector@UIndexPair@cloth@nv@@@cloth@nv@@@cloth@nv@@QEAAPEAUIndexPair@23@XZ 000000018001edd0 f i DxCloth.obj
 0001:0001dde0       ?resize@?$DxVectorMap@V?$DxBatchedVector@UIndexPair@cloth@nv@@@cloth@nv@@@cloth@nv@@QEAAXIAEBUIndexPair@23@@Z 000000018001ede0 f i DxCloth.obj
 0001:0001de00       ??1?$DxVectorMap@V?$DxBatchedVector@UIndexPair@cloth@nv@@@cloth@nv@@@cloth@nv@@QEAA@XZ 000000018001ee00 f i DxCloth.obj
 0001:0001de60       ??0?$DxVectorMap@V?$DxBatchedVector@UIndexPair@cloth@nv@@@cloth@nv@@@cloth@nv@@QEAA@AEAV?$DxBatchedVector@UIndexPair@cloth@nv@@@12@W4D3D11_MAP@@@Z 000000018001ee60 f i DxCloth.obj
 0001:0001def0       ?pushBack@?$DxVectorMap@V?$DxBatchedVector@VPxVec4@physx@@@cloth@nv@@@cloth@nv@@QEAAXAEBVPxVec4@physx@@@Z 000000018001eef0 f i DxCloth.obj
 0001:0001df30       ??A?$DxVectorMap@V?$DxBatchedVector@VPxVec4@physx@@@cloth@nv@@@cloth@nv@@QEAAAEAVPxVec4@physx@@I@Z 000000018001ef30 f i DxCloth.obj
 0001:0001df40       ?begin@?$DxVectorMap@V?$DxBatchedVector@VPxVec4@physx@@@cloth@nv@@@cloth@nv@@QEAAPEAVPxVec4@physx@@XZ 000000018001ef40 f i DxCloth.obj
 0001:0001df50       ?size@?$DxVectorMap@V?$DxBatchedVector@VPxVec4@physx@@@cloth@nv@@@cloth@nv@@QEBAIXZ 000000018001ef50 f i DxCloth.obj
 0001:0001df60       ?resize@?$DxVectorMap@V?$DxBatchedVector@VPxVec4@physx@@@cloth@nv@@@cloth@nv@@QEAAXIAEBVPxVec4@physx@@@Z 000000018001ef60 f i DxCloth.obj
 0001:0001df80       ??1?$DxVectorMap@V?$DxBatchedVector@VPxVec4@physx@@@cloth@nv@@@cloth@nv@@QEAA@XZ 000000018001ef80 f i DxCloth.obj
 0001:0001dfe0       ??0?$DxVectorMap@V?$DxBatchedVector@VPxVec4@physx@@@cloth@nv@@@cloth@nv@@QEAA@AEAV?$DxBatchedVector@VPxVec4@physx@@@12@W4D3D11_MAP@@@Z 000000018001efe0 f i DxCloth.obj
 0001:0001e070       ?pushBack@?$DxVectorMap@V?$DxBatchedVector@VPxVec3@physx@@@cloth@nv@@@cloth@nv@@QEAAXAEBVPxVec3@physx@@@Z 000000018001f070 f i DxCloth.obj
 0001:0001e0a0       ??A?$DxVectorMap@V?$DxBatchedVector@VPxVec3@physx@@@cloth@nv@@@cloth@nv@@QEAAAEAVPxVec3@physx@@I@Z 000000018001f0a0 f i DxCloth.obj
 0001:0001e0b0       ?begin@?$DxVectorMap@V?$DxBatchedVector@VPxVec3@physx@@@cloth@nv@@@cloth@nv@@QEAAPEAVPxVec3@physx@@XZ 000000018001f0b0 f i DxCloth.obj
 0001:0001e0c0       ?size@?$DxVectorMap@V?$DxBatchedVector@VPxVec3@physx@@@cloth@nv@@@cloth@nv@@QEBAIXZ 000000018001f0c0 f i DxCloth.obj
 0001:0001e0d0       ?resize@?$DxVectorMap@V?$DxBatchedVector@VPxVec3@physx@@@cloth@nv@@@cloth@nv@@QEAAXIAEBVPxVec3@physx@@@Z 000000018001f0d0 f i DxCloth.obj
 0001:0001e0f0       ??1?$DxVectorMap@V?$DxBatchedVector@VPxVec3@physx@@@cloth@nv@@@cloth@nv@@QEAA@XZ 000000018001f0f0 f i DxCloth.obj
 0001:0001e150       ??0?$DxVectorMap@V?$DxBatchedVector@VPxVec3@physx@@@cloth@nv@@@cloth@nv@@QEAA@AEAV?$DxBatchedVector@VPxVec3@physx@@@12@W4D3D11_MAP@@@Z 000000018001f150 f i DxCloth.obj
 0001:0001e1e0       ?getChildCloth@?$ClothImpl@VDxCloth@cloth@nv@@@cloth@nv@@QEBAPEBVDxCloth@23@XZ 000000018001f1e0 f i DxCloth.obj
 0001:0001e1f0       ?getChildCloth@?$ClothImpl@VDxCloth@cloth@nv@@@cloth@nv@@QEAAPEAVDxCloth@23@XZ 000000018001f1f0 f i DxCloth.obj
 0001:0001e200       ?end@?$Array@VPxVec4@physx@@VNonTrackingAllocator@cloth@nv@@@shdfnd@physx@@QEBAPEBVPxVec4@3@XZ 000000018001f200 f i DxCloth.obj
 0001:0001e210       ?capacityIncrement@?$Array@PEAV?$DxBatchedVector@U?$Vec4T@G@cloth@nv@@@cloth@nv@@VNonTrackingAllocator@23@@shdfnd@physx@@IEBAIXZ 000000018001f210 f i DxCloth.obj
 0001:0001e230       ?destroy@?$Array@PEAV?$DxBatchedVector@U?$Vec4T@G@cloth@nv@@@cloth@nv@@VNonTrackingAllocator@23@@shdfnd@physx@@KAXPEAPEAV?$DxBatchedVector@U?$Vec4T@G@cloth@nv@@@cloth@nv@@0@Z 000000018001f230 f i DxCloth.obj
 0001:0001e240       ?copy@?$Array@PEAV?$DxBatchedVector@U?$Vec4T@G@cloth@nv@@@cloth@nv@@VNonTrackingAllocator@23@@shdfnd@physx@@KAXPEAPEAV?$DxBatchedVector@U?$Vec4T@G@cloth@nv@@@cloth@nv@@0PEBQEAV456@@Z 000000018001f240 f i DxCloth.obj
 0001:0001e260       ?deallocate@?$Array@PEAV?$DxBatchedVector@U?$Vec4T@G@cloth@nv@@@cloth@nv@@VNonTrackingAllocator@23@@shdfnd@physx@@IEAAXPEAX@Z 000000018001f260 f i DxCloth.obj
 0001:0001e280       ?allocate@?$Array@PEAV?$DxBatchedVector@U?$Vec4T@G@cloth@nv@@@cloth@nv@@VNonTrackingAllocator@23@@shdfnd@physx@@IEAAPEAPEAV?$DxBatchedVector@U?$Vec4T@G@cloth@nv@@@cloth@nv@@I@Z 000000018001f280 f i DxCloth.obj
 0001:0001e2d0       ?isInUserMemory@?$Array@PEAV?$DxBatchedVector@U?$Vec4T@G@cloth@nv@@@cloth@nv@@VNonTrackingAllocator@23@@shdfnd@physx@@QEBAIXZ 000000018001f2d0 f i DxCloth.obj
 0001:0001e2e0       ?assign@?$DxBatchedVector@U?$Vec4T@G@cloth@nv@@@cloth@nv@@QEAAXPEBU?$Vec4T@G@23@0@Z 000000018001f2e0 f i DxCloth.obj
 0001:0001e300       ?capacityIncrement@?$Array@PEAV?$DxBatchedVector@VPxVec3@physx@@@cloth@nv@@VNonTrackingAllocator@23@@shdfnd@physx@@IEBAIXZ 000000018001f300 f i DxCloth.obj
 0001:0001e320       ?destroy@?$Array@PEAV?$DxBatchedVector@VPxVec3@physx@@@cloth@nv@@VNonTrackingAllocator@23@@shdfnd@physx@@KAXPEAPEAV?$DxBatchedVector@VPxVec3@physx@@@cloth@nv@@0@Z 000000018001f320 f i DxCloth.obj
 0001:0001e330       ?copy@?$Array@PEAV?$DxBatchedVector@VPxVec3@physx@@@cloth@nv@@VNonTrackingAllocator@23@@shdfnd@physx@@KAXPEAPEAV?$DxBatchedVector@VPxVec3@physx@@@cloth@nv@@0PEBQEAV456@@Z 000000018001f330 f i DxCloth.obj
 0001:0001e350       ?deallocate@?$Array@PEAV?$DxBatchedVector@VPxVec3@physx@@@cloth@nv@@VNonTrackingAllocator@23@@shdfnd@physx@@IEAAXPEAX@Z 000000018001f350 f i DxCloth.obj
 0001:0001e370       ?allocate@?$Array@PEAV?$DxBatchedVector@VPxVec3@physx@@@cloth@nv@@VNonTrackingAllocator@23@@shdfnd@physx@@IEAAPEAPEAV?$DxBatchedVector@VPxVec3@physx@@@cloth@nv@@I@Z 000000018001f370 f i DxCloth.obj
 0001:0001e3c0       ?isInUserMemory@?$Array@PEAV?$DxBatchedVector@VPxVec3@physx@@@cloth@nv@@VNonTrackingAllocator@23@@shdfnd@physx@@QEBAIXZ 000000018001f3c0 f i DxCloth.obj
 0001:0001e3d0       ?assign@?$DxBatchedVector@VPxVec3@physx@@@cloth@nv@@QEAAXPEBVPxVec3@physx@@0@Z 000000018001f3d0 f i DxCloth.obj
 0001:0001e400       ?resize@?$DxBatchedVector@VPxVec3@physx@@@cloth@nv@@QEAAXI@Z 000000018001f400 f i DxCloth.obj
 0001:0001e420       ?reserve@?$DxBatchedVector@VPxVec3@physx@@@cloth@nv@@QEAAXI@Z 000000018001f420 f i DxCloth.obj
 0001:0001e430       ?capacity@?$DxBatchedVector@VPxVec3@physx@@@cloth@nv@@QEBAIXZ 000000018001f430 f i DxCloth.obj
 0001:0001e440       ?capacityIncrement@?$Array@PEAV?$DxBatchedVector@I@cloth@nv@@VNonTrackingAllocator@23@@shdfnd@physx@@IEBAIXZ 000000018001f440 f i DxCloth.obj
 0001:0001e460       ?destroy@?$Array@PEAV?$DxBatchedVector@I@cloth@nv@@VNonTrackingAllocator@23@@shdfnd@physx@@KAXPEAPEAV?$DxBatchedVector@I@cloth@nv@@0@Z 000000018001f460 f i DxCloth.obj
 0001:0001e470       ?copy@?$Array@PEAV?$DxBatchedVector@I@cloth@nv@@VNonTrackingAllocator@23@@shdfnd@physx@@KAXPEAPEAV?$DxBatchedVector@I@cloth@nv@@0PEBQEAV456@@Z 000000018001f470 f i DxCloth.obj
 0001:0001e490       ?deallocate@?$Array@PEAV?$DxBatchedVector@I@cloth@nv@@VNonTrackingAllocator@23@@shdfnd@physx@@IEAAXPEAX@Z 000000018001f490 f i DxCloth.obj
 0001:0001e4b0       ?allocate@?$Array@PEAV?$DxBatchedVector@I@cloth@nv@@VNonTrackingAllocator@23@@shdfnd@physx@@IEAAPEAPEAV?$DxBatchedVector@I@cloth@nv@@I@Z 000000018001f4b0 f i DxCloth.obj
 0001:0001e500       ?isInUserMemory@?$Array@PEAV?$DxBatchedVector@I@cloth@nv@@VNonTrackingAllocator@23@@shdfnd@physx@@QEBAIXZ 000000018001f500 f i DxCloth.obj
 0001:0001e510       ?reserve@?$DxBatchedVector@I@cloth@nv@@QEAAXI@Z 000000018001f510 f i DxCloth.obj
 0001:0001e520       ?capacity@?$DxBatchedVector@I@cloth@nv@@QEBAIXZ 000000018001f520 f i DxCloth.obj
 0001:0001e530       ?capacityIncrement@?$Array@PEAV?$DxBatchedVector@UIndexPair@cloth@nv@@@cloth@nv@@VNonTrackingAllocator@23@@shdfnd@physx@@IEBAIXZ 000000018001f530 f i DxCloth.obj
 0001:0001e550       ?destroy@?$Array@PEAV?$DxBatchedVector@UIndexPair@cloth@nv@@@cloth@nv@@VNonTrackingAllocator@23@@shdfnd@physx@@KAXPEAPEAV?$DxBatchedVector@UIndexPair@cloth@nv@@@cloth@nv@@0@Z 000000018001f550 f i DxCloth.obj
 0001:0001e560       ?copy@?$Array@PEAV?$DxBatchedVector@UIndexPair@cloth@nv@@@cloth@nv@@VNonTrackingAllocator@23@@shdfnd@physx@@KAXPEAPEAV?$DxBatchedVector@UIndexPair@cloth@nv@@@cloth@nv@@0PEBQEAV456@@Z 000000018001f560 f i DxCloth.obj
 0001:0001e580       ?deallocate@?$Array@PEAV?$DxBatchedVector@UIndexPair@cloth@nv@@@cloth@nv@@VNonTrackingAllocator@23@@shdfnd@physx@@IEAAXPEAX@Z 000000018001f580 f i DxCloth.obj
 0001:0001e5a0       ?allocate@?$Array@PEAV?$DxBatchedVector@UIndexPair@cloth@nv@@@cloth@nv@@VNonTrackingAllocator@23@@shdfnd@physx@@IEAAPEAPEAV?$DxBatchedVector@UIndexPair@cloth@nv@@@cloth@nv@@I@Z 000000018001f5a0 f i DxCloth.obj
 0001:0001e5f0       ?isInUserMemory@?$Array@PEAV?$DxBatchedVector@UIndexPair@cloth@nv@@@cloth@nv@@VNonTrackingAllocator@23@@shdfnd@physx@@QEBAIXZ 000000018001f5f0 f i DxCloth.obj
 0001:0001e600       ?resize@?$DxBatchedVector@UIndexPair@cloth@nv@@@cloth@nv@@QEAAXI@Z 000000018001f600 f i DxCloth.obj
 0001:0001e610       ?reserve@?$DxBatchedVector@UIndexPair@cloth@nv@@@cloth@nv@@QEAAXI@Z 000000018001f610 f i DxCloth.obj
 0001:0001e620       ?capacity@?$DxBatchedVector@UIndexPair@cloth@nv@@@cloth@nv@@QEBAIXZ 000000018001f620 f i DxCloth.obj
 0001:0001e630       ?capacityIncrement@?$Array@PEAV?$DxBatchedVector@UDxPhaseConfig@cloth@nv@@@cloth@nv@@VNonTrackingAllocator@23@@shdfnd@physx@@IEBAIXZ 000000018001f630 f i DxCloth.obj
 0001:0001e650       ?destroy@?$Array@PEAV?$DxBatchedVector@UDxPhaseConfig@cloth@nv@@@cloth@nv@@VNonTrackingAllocator@23@@shdfnd@physx@@KAXPEAPEAV?$DxBatchedVector@UDxPhaseConfig@cloth@nv@@@cloth@nv@@0@Z 000000018001f650 f i DxCloth.obj
 0001:0001e660       ?copy@?$Array@PEAV?$DxBatchedVector@UDxPhaseConfig@cloth@nv@@@cloth@nv@@VNonTrackingAllocator@23@@shdfnd@physx@@KAXPEAPEAV?$DxBatchedVector@UDxPhaseConfig@cloth@nv@@@cloth@nv@@0PEBQEAV456@@Z 000000018001f660 f i DxCloth.obj
 0001:0001e680       ?deallocate@?$Array@PEAV?$DxBatchedVector@UDxPhaseConfig@cloth@nv@@@cloth@nv@@VNonTrackingAllocator@23@@shdfnd@physx@@IEAAXPEAX@Z 000000018001f680 f i DxCloth.obj
 0001:0001e6a0       ?allocate@?$Array@PEAV?$DxBatchedVector@UDxPhaseConfig@cloth@nv@@@cloth@nv@@VNonTrackingAllocator@23@@shdfnd@physx@@IEAAPEAPEAV?$DxBatchedVector@UDxPhaseConfig@cloth@nv@@@cloth@nv@@I@Z 000000018001f6a0 f i DxCloth.obj
 0001:0001e6f0       ?isInUserMemory@?$Array@PEAV?$DxBatchedVector@UDxPhaseConfig@cloth@nv@@@cloth@nv@@VNonTrackingAllocator@23@@shdfnd@physx@@QEBAIXZ 000000018001f6f0 f i DxCloth.obj
 0001:0001e700       ?capacityIncrement@?$Array@PEAV?$DxBatchedVector@VPxVec4@physx@@@cloth@nv@@VNonTrackingAllocator@23@@shdfnd@physx@@IEBAIXZ 000000018001f700 f i DxCloth.obj
 0001:0001e720       ?destroy@?$Array@PEAV?$DxBatchedVector@VPxVec4@physx@@@cloth@nv@@VNonTrackingAllocator@23@@shdfnd@physx@@KAXPEAPEAV?$DxBatchedVector@VPxVec4@physx@@@cloth@nv@@0@Z 000000018001f720 f i DxCloth.obj
 0001:0001e730       ?copy@?$Array@PEAV?$DxBatchedVector@VPxVec4@physx@@@cloth@nv@@VNonTrackingAllocator@23@@shdfnd@physx@@KAXPEAPEAV?$DxBatchedVector@VPxVec4@physx@@@cloth@nv@@0PEBQEAV456@@Z 000000018001f730 f i DxCloth.obj
 0001:0001e750       ?deallocate@?$Array@PEAV?$DxBatchedVector@VPxVec4@physx@@@cloth@nv@@VNonTrackingAllocator@23@@shdfnd@physx@@IEAAXPEAX@Z 000000018001f750 f i DxCloth.obj
 0001:0001e770       ?allocate@?$Array@PEAV?$DxBatchedVector@VPxVec4@physx@@@cloth@nv@@VNonTrackingAllocator@23@@shdfnd@physx@@IEAAPEAPEAV?$DxBatchedVector@VPxVec4@physx@@@cloth@nv@@I@Z 000000018001f770 f i DxCloth.obj
 0001:0001e7c0       ?isInUserMemory@?$Array@PEAV?$DxBatchedVector@VPxVec4@physx@@@cloth@nv@@VNonTrackingAllocator@23@@shdfnd@physx@@QEBAIXZ 000000018001f7c0 f i DxCloth.obj
 0001:0001e7d0       ?assign@?$DxBatchedVector@VPxVec4@physx@@@cloth@nv@@QEAAXPEBVPxVec4@physx@@0@Z 000000018001f7d0 f i DxCloth.obj
 0001:0001e7f0       ?assign@?$DxBatchedStorage@U?$Vec4T@G@cloth@nv@@@cloth@nv@@AEAAXPEAV?$DxBatchedVector@U?$Vec4T@G@cloth@nv@@@23@PEBU?$Vec4T@G@23@I@Z 000000018001f7f0 f i DxCloth.obj
 0001:0001e8a0       ?manager@?$DxBatchedVector@VPxVec3@physx@@@cloth@nv@@QEBAPEAVDxContextManagerCallback@23@XZ 000000018001f8a0 f i DxCloth.obj
 0001:0001e8b0       ?unmap@?$DxBatchedVector@VPxVec3@physx@@@cloth@nv@@QEAAXXZ 000000018001f8b0 f i DxCloth.obj
 0001:0001e8f0       ?map@?$DxBatchedVector@VPxVec3@physx@@@cloth@nv@@QEAAPEAVPxVec3@physx@@W4D3D11_MAP@@@Z 000000018001f8f0 f i DxCloth.obj
 0001:0001e950       ?assign@?$DxBatchedStorage@VPxVec3@physx@@@cloth@nv@@AEAAXPEAV?$DxBatchedVector@VPxVec3@physx@@@23@PEBVPxVec3@physx@@I@Z 000000018001f950 f i DxCloth.obj
 0001:0001ea00       ?manager@?$DxBatchedVector@I@cloth@nv@@QEBAPEAVDxContextManagerCallback@23@XZ 000000018001fa00 f i DxCloth.obj
 0001:0001ea10       ?unmap@?$DxBatchedVector@I@cloth@nv@@QEAAXXZ 000000018001fa10 f i DxCloth.obj
 0001:0001ea50       ?map@?$DxBatchedVector@I@cloth@nv@@QEAAPEAIW4D3D11_MAP@@@Z 000000018001fa50 f i DxCloth.obj
 0001:0001eab0       ?manager@?$DxBatchedVector@UIndexPair@cloth@nv@@@cloth@nv@@QEBAPEAVDxContextManagerCallback@23@XZ 000000018001fab0 f i DxCloth.obj
 0001:0001eac0       ?unmap@?$DxBatchedVector@UIndexPair@cloth@nv@@@cloth@nv@@QEAAXXZ 000000018001fac0 f i DxCloth.obj
 0001:0001eb00       ?map@?$DxBatchedVector@UIndexPair@cloth@nv@@@cloth@nv@@QEAAPEAUIndexPair@23@W4D3D11_MAP@@@Z 000000018001fb00 f i DxCloth.obj
 0001:0001eb60       ?assign@?$DxBatchedStorage@UIndexPair@cloth@nv@@@cloth@nv@@AEAAXPEAV?$DxBatchedVector@UIndexPair@cloth@nv@@@23@PEBUIndexPair@23@I@Z 000000018001fb60 f i DxCloth.obj
 0001:0001ec10       ?manager@?$DxBatchedVector@VPxVec4@physx@@@cloth@nv@@QEBAPEAVDxContextManagerCallback@23@XZ 000000018001fc10 f i DxCloth.obj
 0001:0001ec20       ??$swap@VPxVec4@physx@@@shdfnd@physx@@YAXAEAV?$DxBatchedVector@VPxVec4@physx@@@cloth@nv@@0@Z 000000018001fc20 f i DxCloth.obj
 0001:0001ec50       ??$swap@PEAUID3D11Buffer@@@shdfnd@physx@@YAXAEAPEAUID3D11Buffer@@0@Z 000000018001fc50 f i DxCloth.obj
 0001:0001ec60       ??$swap@PEAVDxContextManagerCallback@cloth@nv@@@shdfnd@physx@@YAXAEAPEAVDxContextManagerCallback@cloth@nv@@0@Z 000000018001fc60 f i DxCloth.obj
 0001:0001ec70       ??$swap@PEAUID3D11ShaderResourceView@@@shdfnd@physx@@YAXAEAPEAUID3D11ShaderResourceView@@0@Z 000000018001fc70 f i DxCloth.obj
 0001:0001ec80       ??$swap@PEAUID3D11UnorderedAccessView@@@shdfnd@physx@@YAXAEAPEAUID3D11UnorderedAccessView@@0@Z 000000018001fc80 f i DxCloth.obj
 0001:0001ec90       ??$convertCloth@VSwFactory@cloth@nv@@VDxCloth@23@@cloth@nv@@YAPEAVSwCloth@01@AEAVSwFactory@01@AEBVDxCloth@01@@Z 000000018001fc90 f i DxClothClone.obj
 0001:0001f750       ??$convertCloth@VDxFactory@cloth@nv@@VDxCloth@23@@cloth@nv@@YAPEAVDxCloth@01@AEAVDxFactory@01@AEBV201@@Z 0000000180020750 f i DxClothClone.obj
 0001:000201c0       ??$convertCloth@VDxFactory@cloth@nv@@VSwCloth@23@@cloth@nv@@YAPEAVDxCloth@01@AEAVDxFactory@01@AEBVSwCloth@01@@Z 00000001800211c0 f i DxClothClone.obj
 0001:00020bf0       ??$convertFabric@VDxFabric@cloth@nv@@VSwFactory@23@@cloth@nv@@YAPEAVSwFabric@01@AEBVDxFabric@01@AEAVSwFactory@01@@Z 0000000180021bf0 f i DxClothClone.obj
 0001:00021290       ??$copy@VSwCloth@cloth@nv@@VDxCloth@23@@cloth@nv@@YAXAEAVSwCloth@01@AEBVDxCloth@01@@Z 0000000180022290 f i DxClothClone.obj
 0001:00021570       ??$convertFabric@VDxFabric@cloth@nv@@VDxFactory@23@@cloth@nv@@YAPEAVDxFabric@01@AEBV201@AEAVDxFactory@01@@Z 0000000180022570 f i DxClothClone.obj
 0001:00021c10       ??$convertFabric@VSwFabric@cloth@nv@@VDxFactory@23@@cloth@nv@@YAPEAVDxFabric@01@AEBVSwFabric@01@AEAVDxFactory@01@@Z 0000000180022c10 f i DxClothClone.obj
 0001:000222c0       ??$copy@VDxCloth@cloth@nv@@VSwCloth@23@@cloth@nv@@YAXAEAVDxCloth@01@AEBVSwCloth@01@@Z 00000001800232c0 f i DxClothClone.obj
 0001:000225a0       ?end@?$Array@PEAVDxFabric@cloth@nv@@VNonTrackingAllocator@23@@shdfnd@physx@@QEAAPEAPEAVDxFabric@cloth@nv@@XZ 00000001800235a0 f i DxClothClone.obj
 0001:000225b0       ?begin@?$Array@PEAVDxFabric@cloth@nv@@VNonTrackingAllocator@23@@shdfnd@physx@@QEAAPEAPEAVDxFabric@cloth@nv@@XZ 00000001800235b0 f i DxClothClone.obj
 0001:000225c0       ?empty@?$DxBatchedVector@VPxVec3@physx@@@cloth@nv@@QEBA_NXZ 00000001800235c0 f i DxClothData.obj
 0001:000225d0       ?size@?$DxBatchedVector@UDxTether@cloth@nv@@@cloth@nv@@QEBAIXZ 00000001800235d0 f i DxClothData.obj
 0001:000225e0       ?empty@?$DxBatchedVector@M@cloth@nv@@QEBA_NXZ 00000001800235e0 f i DxClothData.obj
 0001:000225f0       ??_EDxFabric@cloth@nv@@UEAAPEAXI@Z 00000001800235f0 f i * CIL library *:* CIL module *
 0001:000225f0       ??_GDxFabric@cloth@nv@@UEAAPEAXI@Z 00000001800235f0 f i DxFabric.obj
 0001:00022650       ?reserve@?$Array@UDxTether@cloth@nv@@VNonTrackingAllocator@23@@shdfnd@physx@@QEAAXI@Z 0000000180023650 f i DxFabric.obj
 0001:00022660       ?pushBack@?$Array@UDxTether@cloth@nv@@VNonTrackingAllocator@23@@shdfnd@physx@@QEAAAEAUDxTether@cloth@nv@@AEBU456@@Z 0000000180023660 f i DxFabric.obj
 0001:000226a0       ?end@?$Array@UDxTether@cloth@nv@@VNonTrackingAllocator@23@@shdfnd@physx@@QEAAPEAUDxTether@cloth@nv@@XZ 00000001800236a0 f i DxFabric.obj
 0001:000226b0       ?begin@?$Array@UDxTether@cloth@nv@@VNonTrackingAllocator@23@@shdfnd@physx@@QEAAPEAUDxTether@cloth@nv@@XZ 00000001800236b0 f i DxFabric.obj
 0001:000226c0       ??1?$Array@UDxTether@cloth@nv@@VNonTrackingAllocator@23@@shdfnd@physx@@QEAA@XZ 00000001800236c0 f i DxFabric.obj
 0001:000226f0       ??0?$Array@UDxTether@cloth@nv@@VNonTrackingAllocator@23@@shdfnd@physx@@QEAA@AEBVNonTrackingAllocator@cloth@nv@@@Z 00000001800236f0 f i DxFabric.obj
 0001:00022700       ?size@?$Array@UDxConstraint@cloth@nv@@VNonTrackingAllocator@23@@shdfnd@physx@@QEBAIXZ 0000000180023700 f i DxFabric.obj
 0001:00022710       ?end@?$Array@UDxConstraint@cloth@nv@@VNonTrackingAllocator@23@@shdfnd@physx@@QEAAPEAUDxConstraint@cloth@nv@@XZ 0000000180023710 f i DxFabric.obj
 0001:00022720       ?begin@?$Array@UDxConstraint@cloth@nv@@VNonTrackingAllocator@23@@shdfnd@physx@@QEAAPEAUDxConstraint@cloth@nv@@XZ 0000000180023720 f i DxFabric.obj
 0001:00022730       ??1?$Array@UDxConstraint@cloth@nv@@VNonTrackingAllocator@23@@shdfnd@physx@@QEAA@XZ 0000000180023730 f i DxFabric.obj
 0001:00022760       ??0?$Array@UDxConstraint@cloth@nv@@VNonTrackingAllocator@23@@shdfnd@physx@@QEAA@IAEBUDxConstraint@cloth@nv@@AEBVNonTrackingAllocator@45@@Z 0000000180023760 f i DxFabric.obj
 0001:00022780       ??0?$Array@UDxConstraint@cloth@nv@@VNonTrackingAllocator@23@@shdfnd@physx@@QEAA@AEBVNonTrackingAllocator@cloth@nv@@@Z 0000000180023780 f i DxFabric.obj
 0001:00022790       ?replaceWithLast@?$Array@PEAVDxFabric@cloth@nv@@VNonTrackingAllocator@23@@shdfnd@physx@@QEAAXPEAPEAVDxFabric@cloth@nv@@@Z 0000000180023790 f i DxFabric.obj
 0001:000227b0       ?pushBack@?$Array@PEAVDxFabric@cloth@nv@@VNonTrackingAllocator@23@@shdfnd@physx@@QEAAAEAPEAVDxFabric@cloth@nv@@AEBQEAV456@@Z 00000001800237b0 f i DxFabric.obj
 0001:000227f0       ?find@?$Array@PEAVDxFabric@cloth@nv@@VNonTrackingAllocator@23@@shdfnd@physx@@QEAAPEAPEAVDxFabric@cloth@nv@@AEBQEAV456@@Z 00000001800237f0 f i DxFabric.obj
 0001:00022820       ?assign@?$DxBatchedVector@UDxTether@cloth@nv@@@cloth@nv@@QEAAXPEBUDxTether@23@0@Z 0000000180023820 f i DxFabric.obj
 0001:00022840       ??1?$DxBatchedVector@UDxTether@cloth@nv@@@cloth@nv@@QEAA@XZ 0000000180023840 f i DxFabric.obj
 0001:00022850       ??0?$DxBatchedVector@UDxTether@cloth@nv@@@cloth@nv@@QEAA@AEAV?$DxBatchedStorage@UDxTether@cloth@nv@@@12@@Z 0000000180023850 f i DxFabric.obj
 0001:000228c0       ?assign@?$DxBatchedVector@M@cloth@nv@@QEAAXPEBM0@Z 00000001800238c0 f i DxFabric.obj
 0001:000228e0       ?size@?$DxBatchedVector@M@cloth@nv@@QEBAIXZ 00000001800238e0 f i DxFabric.obj
 0001:000228f0       ??1?$DxBatchedVector@M@cloth@nv@@QEAA@XZ 00000001800238f0 f i DxFabric.obj
 0001:00022900       ??0?$DxBatchedVector@M@cloth@nv@@QEAA@AEAV?$DxBatchedStorage@M@12@@Z 0000000180023900 f i DxFabric.obj
 0001:00022970       ?buffer@?$DxBatchedVector@UDxConstraint@cloth@nv@@@cloth@nv@@QEBAPEAUID3D11Buffer@@XZ 0000000180023970 f i DxFabric.obj
 0001:00022980       ?assign@?$DxBatchedVector@UDxConstraint@cloth@nv@@@cloth@nv@@QEAAXPEBUDxConstraint@23@0@Z 0000000180023980 f i DxFabric.obj
 0001:000229a0       ?size@?$DxBatchedVector@UDxConstraint@cloth@nv@@@cloth@nv@@QEBAIXZ 00000001800239a0 f i DxFabric.obj
 0001:000229b0       ??1?$DxBatchedVector@UDxConstraint@cloth@nv@@@cloth@nv@@QEAA@XZ 00000001800239b0 f i DxFabric.obj
 0001:000229c0       ??0?$DxBatchedVector@UDxConstraint@cloth@nv@@@cloth@nv@@QEAA@AEAV?$DxBatchedStorage@UDxConstraint@cloth@nv@@@12@@Z 00000001800239c0 f i DxFabric.obj
 0001:00022a30       ??0?$Array@IVNonTrackingAllocator@cloth@nv@@@shdfnd@physx@@QEAA@PEBI0AEBVNonTrackingAllocator@cloth@nv@@@Z 0000000180023a30 f i DxFabric.obj
 0001:00022ad0       ?grow@?$Array@UDxTether@cloth@nv@@VNonTrackingAllocator@23@@shdfnd@physx@@IEAAXI@Z 0000000180023ad0 f i DxFabric.obj
 0001:00022ae0       ?destroy@?$Array@UDxTether@cloth@nv@@VNonTrackingAllocator@23@@shdfnd@physx@@KAXPEAUDxTether@cloth@nv@@0@Z 0000000180023ae0 f i DxFabric.obj
 0001:00022af0       ?deallocate@?$Array@UDxTether@cloth@nv@@VNonTrackingAllocator@23@@shdfnd@physx@@IEAAXPEAX@Z 0000000180023af0 f i DxFabric.obj
 0001:00022b10       ?isInUserMemory@?$Array@UDxTether@cloth@nv@@VNonTrackingAllocator@23@@shdfnd@physx@@QEBAIXZ 0000000180023b10 f i DxFabric.obj
 0001:00022b20       ?capacity@?$Array@UDxTether@cloth@nv@@VNonTrackingAllocator@23@@shdfnd@physx@@QEBAIXZ 0000000180023b20 f i DxFabric.obj
 0001:00022b30       ?destroy@?$Array@UDxConstraint@cloth@nv@@VNonTrackingAllocator@23@@shdfnd@physx@@KAXPEAUDxConstraint@cloth@nv@@0@Z 0000000180023b30 f i DxFabric.obj
 0001:00022b40       ?deallocate@?$Array@UDxConstraint@cloth@nv@@VNonTrackingAllocator@23@@shdfnd@physx@@IEAAXPEAX@Z 0000000180023b40 f i DxFabric.obj
 0001:00022b60       ?isInUserMemory@?$Array@UDxConstraint@cloth@nv@@VNonTrackingAllocator@23@@shdfnd@physx@@QEBAIXZ 0000000180023b60 f i DxFabric.obj
 0001:00022b70       ?capacity@?$Array@UDxConstraint@cloth@nv@@VNonTrackingAllocator@23@@shdfnd@physx@@QEBAIXZ 0000000180023b70 f i DxFabric.obj
 0001:00022b80       ?capacity@?$Array@PEAVDxFabric@cloth@nv@@VNonTrackingAllocator@23@@shdfnd@physx@@QEBAIXZ 0000000180023b80 f i DxFabric.obj
 0001:00022b90       ?replaceWithLast@?$Array@PEAVDxFabric@cloth@nv@@VNonTrackingAllocator@23@@shdfnd@physx@@QEAAXI@Z 0000000180023b90 f i DxFabric.obj
 0001:00022bb0       ?remove@?$DxBatchedStorage@UDxTether@cloth@nv@@@cloth@nv@@AEAAXPEAV?$DxBatchedVector@UDxTether@cloth@nv@@@23@@Z 0000000180023bb0 f i DxFabric.obj
 0001:00022ca0       ?assign@?$DxBatchedStorage@UDxTether@cloth@nv@@@cloth@nv@@AEAAXPEAV?$DxBatchedVector@UDxTether@cloth@nv@@@23@PEBUDxTether@23@I@Z 0000000180023ca0 f i DxFabric.obj
 0001:00022d50       ?add@?$DxBatchedStorage@UDxTether@cloth@nv@@@cloth@nv@@AEAAXPEAV?$DxBatchedVector@UDxTether@cloth@nv@@@23@@Z 0000000180023d50 f i DxFabric.obj
 0001:00022dc0       ?remove@?$DxBatchedStorage@M@cloth@nv@@AEAAXPEAV?$DxBatchedVector@M@23@@Z 0000000180023dc0 f i DxFabric.obj
 0001:00022eb0       ?assign@?$DxBatchedStorage@M@cloth@nv@@AEAAXPEAV?$DxBatchedVector@M@23@PEBMI@Z 0000000180023eb0 f i DxFabric.obj
 0001:00022f60       ?add@?$DxBatchedStorage@M@cloth@nv@@AEAAXPEAV?$DxBatchedVector@M@23@@Z 0000000180023f60 f i DxFabric.obj
 0001:00022fd0       ?remove@?$DxBatchedStorage@UDxConstraint@cloth@nv@@@cloth@nv@@AEAAXPEAV?$DxBatchedVector@UDxConstraint@cloth@nv@@@23@@Z 0000000180023fd0 f i DxFabric.obj
 0001:000230c0       ?assign@?$DxBatchedStorage@UDxConstraint@cloth@nv@@@cloth@nv@@AEAAXPEAV?$DxBatchedVector@UDxConstraint@cloth@nv@@@23@PEBUDxConstraint@23@I@Z 00000001800240c0 f i DxFabric.obj
 0001:00023170       ?add@?$DxBatchedStorage@UDxConstraint@cloth@nv@@@cloth@nv@@AEAAXPEAV?$DxBatchedVector@UDxConstraint@cloth@nv@@@23@@Z 0000000180024170 f i DxFabric.obj
 0001:000231e0       ?remove@?$Array@PEAV?$DxBatchedVector@UDxTether@cloth@nv@@@cloth@nv@@VNonTrackingAllocator@23@@shdfnd@physx@@QEAAXI@Z 00000001800241e0 f i DxFabric.obj
 0001:00023220       ?pushBack@?$Array@PEAV?$DxBatchedVector@UDxTether@cloth@nv@@@cloth@nv@@VNonTrackingAllocator@23@@shdfnd@physx@@QEAAAEAPEAV?$DxBatchedVector@UDxTether@cloth@nv@@@cloth@nv@@AEBQEAV456@@Z 0000000180024220 f i DxFabric.obj
 0001:00023260       ?find@?$Array@PEAV?$DxBatchedVector@UDxTether@cloth@nv@@@cloth@nv@@VNonTrackingAllocator@23@@shdfnd@physx@@QEAAPEAPEAV?$DxBatchedVector@UDxTether@cloth@nv@@@cloth@nv@@AEBQEAV456@@Z 0000000180024260 f i DxFabric.obj
 0001:00023290       ?begin@?$Array@PEAV?$DxBatchedVector@UDxTether@cloth@nv@@@cloth@nv@@VNonTrackingAllocator@23@@shdfnd@physx@@QEAAPEAPEAV?$DxBatchedVector@UDxTether@cloth@nv@@@cloth@nv@@XZ 0000000180024290 f i DxFabric.obj
 0001:000232a0       ?remove@?$Array@PEAV?$DxBatchedVector@M@cloth@nv@@VNonTrackingAllocator@23@@shdfnd@physx@@QEAAXI@Z 00000001800242a0 f i DxFabric.obj
 0001:000232e0       ?pushBack@?$Array@PEAV?$DxBatchedVector@M@cloth@nv@@VNonTrackingAllocator@23@@shdfnd@physx@@QEAAAEAPEAV?$DxBatchedVector@M@cloth@nv@@AEBQEAV456@@Z 00000001800242e0 f i DxFabric.obj
 0001:00023320       ?find@?$Array@PEAV?$DxBatchedVector@M@cloth@nv@@VNonTrackingAllocator@23@@shdfnd@physx@@QEAAPEAPEAV?$DxBatchedVector@M@cloth@nv@@AEBQEAV456@@Z 0000000180024320 f i DxFabric.obj
 0001:00023350       ?begin@?$Array@PEAV?$DxBatchedVector@M@cloth@nv@@VNonTrackingAllocator@23@@shdfnd@physx@@QEAAPEAPEAV?$DxBatchedVector@M@cloth@nv@@XZ 0000000180024350 f i DxFabric.obj
 0001:00023360       ?remove@?$Array@PEAV?$DxBatchedVector@UDxConstraint@cloth@nv@@@cloth@nv@@VNonTrackingAllocator@23@@shdfnd@physx@@QEAAXI@Z 0000000180024360 f i DxFabric.obj
 0001:000233a0       ?pushBack@?$Array@PEAV?$DxBatchedVector@UDxConstraint@cloth@nv@@@cloth@nv@@VNonTrackingAllocator@23@@shdfnd@physx@@QEAAAEAPEAV?$DxBatchedVector@UDxConstraint@cloth@nv@@@cloth@nv@@AEBQEAV456@@Z 00000001800243a0 f i DxFabric.obj
 0001:000233e0       ?find@?$Array@PEAV?$DxBatchedVector@UDxConstraint@cloth@nv@@@cloth@nv@@VNonTrackingAllocator@23@@shdfnd@physx@@QEAAPEAPEAV?$DxBatchedVector@UDxConstraint@cloth@nv@@@cloth@nv@@AEBQEAV456@@Z 00000001800243e0 f i DxFabric.obj
 0001:00023410       ?begin@?$Array@PEAV?$DxBatchedVector@UDxConstraint@cloth@nv@@@cloth@nv@@VNonTrackingAllocator@23@@shdfnd@physx@@QEAAPEAPEAV?$DxBatchedVector@UDxConstraint@cloth@nv@@@cloth@nv@@XZ 0000000180024410 f i DxFabric.obj
 0001:00023420       ?update@?$DxBatchedStorage@UDxTether@cloth@nv@@@cloth@nv@@AEAAXPEAV?$DxBatchedVector@UDxTether@cloth@nv@@@23@H@Z 0000000180024420 f i DxFabric.obj
 0001:00023470       ?replace@?$DxBatchedStorage@UDxTether@cloth@nv@@@cloth@nv@@AEAAXIIPEBUDxTether@23@0@Z 0000000180024470 f i DxFabric.obj
 0001:00023790       ?update@?$DxBatchedStorage@M@cloth@nv@@AEAAXPEAV?$DxBatchedVector@M@23@H@Z 0000000180024790 f i DxFabric.obj
 0001:000237e0       ?replace@?$DxBatchedStorage@M@cloth@nv@@AEAAXIIPEBM0@Z 00000001800247e0 f i DxFabric.obj
 0001:00023b00       ?update@?$DxBatchedStorage@UDxConstraint@cloth@nv@@@cloth@nv@@AEAAXPEAV?$DxBatchedVector@UDxConstraint@cloth@nv@@@23@H@Z 0000000180024b00 f i DxFabric.obj
 0001:00023b50       ?replace@?$DxBatchedStorage@UDxConstraint@cloth@nv@@@cloth@nv@@AEAAXIIPEBUDxConstraint@23@0@Z 0000000180024b50 f i DxFabric.obj
 0001:00023e70       ?capacity@?$Array@PEAV?$DxBatchedVector@UDxTether@cloth@nv@@@cloth@nv@@VNonTrackingAllocator@23@@shdfnd@physx@@QEBAIXZ 0000000180024e70 f i DxFabric.obj
 0001:00023e80       ?size@?$Array@PEAV?$DxBatchedVector@UDxTether@cloth@nv@@@cloth@nv@@VNonTrackingAllocator@23@@shdfnd@physx@@QEBAIXZ 0000000180024e80 f i DxFabric.obj
 0001:00023e90       ?reserve@?$DxBuffer@UDxTether@cloth@nv@@@cloth@nv@@QEAAXI@Z 0000000180024e90 f i DxFabric.obj
 0001:00023f30       ?context@?$DxBuffer@UDxTether@cloth@nv@@@cloth@nv@@QEBAPEAUID3D11DeviceContext@@XZ 0000000180024f30 f i DxFabric.obj
 0001:00023f40       ??1?$DxBuffer@UDxTether@cloth@nv@@@cloth@nv@@QEAA@XZ 0000000180024f40 f i DxFabric.obj
 0001:00023fa0       ??0?$DxBuffer@UDxTether@cloth@nv@@@cloth@nv@@QEAA@PEAVDxContextManagerCallback@12@AEBUDxBufferFlags@12@@Z 0000000180024fa0 f i DxFabric.obj
 0001:00023fd0       ?capacity@?$Array@PEAV?$DxBatchedVector@M@cloth@nv@@VNonTrackingAllocator@23@@shdfnd@physx@@QEBAIXZ 0000000180024fd0 f i DxFabric.obj
 0001:00023fe0       ?size@?$Array@PEAV?$DxBatchedVector@M@cloth@nv@@VNonTrackingAllocator@23@@shdfnd@physx@@QEBAIXZ 0000000180024fe0 f i DxFabric.obj
 0001:00023ff0       ?reserve@?$DxBuffer@M@cloth@nv@@QEAAXI@Z 0000000180024ff0 f i DxFabric.obj
 0001:00024090       ?context@?$DxBuffer@M@cloth@nv@@QEBAPEAUID3D11DeviceContext@@XZ 0000000180025090 f i DxFabric.obj
 0001:000240a0       ??1?$DxBuffer@M@cloth@nv@@QEAA@XZ 00000001800250a0 f i DxFabric.obj
 0001:00024100       ??0?$DxBuffer@M@cloth@nv@@QEAA@PEAVDxContextManagerCallback@12@AEBUDxBufferFlags@12@@Z 0000000180025100 f i DxFabric.obj
 0001:00024130       ?capacity@?$Array@PEAV?$DxBatchedVector@UDxConstraint@cloth@nv@@@cloth@nv@@VNonTrackingAllocator@23@@shdfnd@physx@@QEBAIXZ 0000000180025130 f i DxFabric.obj
 0001:00024140       ?size@?$Array@PEAV?$DxBatchedVector@UDxConstraint@cloth@nv@@@cloth@nv@@VNonTrackingAllocator@23@@shdfnd@physx@@QEBAIXZ 0000000180025140 f i DxFabric.obj
 0001:00024150       ?reserve@?$DxBuffer@UDxConstraint@cloth@nv@@@cloth@nv@@QEAAXI@Z 0000000180025150 f i DxFabric.obj
 0001:000241f0       ?context@?$DxBuffer@UDxConstraint@cloth@nv@@@cloth@nv@@QEBAPEAUID3D11DeviceContext@@XZ 00000001800251f0 f i DxFabric.obj
 0001:00024200       ??1?$DxBuffer@UDxConstraint@cloth@nv@@@cloth@nv@@QEAA@XZ 0000000180025200 f i DxFabric.obj
 0001:00024260       ??0?$DxBuffer@UDxConstraint@cloth@nv@@@cloth@nv@@QEAA@PEAVDxContextManagerCallback@12@AEBUDxBufferFlags@12@@Z 0000000180025260 f i DxFabric.obj
 0001:00024290       ?unmap@?$DxBatchedStorage@UDxTether@cloth@nv@@@cloth@nv@@AEAAXXZ 0000000180025290 f i DxFabric.obj
 0001:000242d0       ?map@?$DxBatchedStorage@UDxTether@cloth@nv@@@cloth@nv@@AEAAPEAUDxTether@23@W4D3D11_MAP@@@Z 00000001800252d0 f i DxFabric.obj
 0001:00024300       ?unmap@?$DxBatchedStorage@M@cloth@nv@@AEAAXXZ 0000000180025300 f i DxFabric.obj
 0001:00024340       ?map@?$DxBatchedStorage@M@cloth@nv@@AEAAPEAMW4D3D11_MAP@@@Z 0000000180025340 f i DxFabric.obj
 0001:00024370       ?unmap@?$DxBatchedStorage@UDxConstraint@cloth@nv@@@cloth@nv@@AEAAXXZ 0000000180025370 f i DxFabric.obj
 0001:000243b0       ?map@?$DxBatchedStorage@UDxConstraint@cloth@nv@@@cloth@nv@@AEAAPEAUDxConstraint@23@W4D3D11_MAP@@@Z 00000001800253b0 f i DxFabric.obj
 0001:000243e0       ?create@?$DxBuffer@UDxTether@cloth@nv@@@cloth@nv@@AEAAXIPEAUD3D11_SUBRESOURCE_DATA@@@Z 00000001800253e0 f i DxFabric.obj
 0001:000244c0       ?unmap@?$DxBuffer@UDxTether@cloth@nv@@@cloth@nv@@QEAAXXZ 00000001800254c0 f i DxFabric.obj
 0001:000244f0       ?map@?$DxBuffer@UDxTether@cloth@nv@@@cloth@nv@@QEAAPEAUDxTether@23@W4D3D11_MAP@@@Z 00000001800254f0 f i DxFabric.obj
 0001:00024570       ?create@?$DxBuffer@M@cloth@nv@@AEAAXIPEAUD3D11_SUBRESOURCE_DATA@@@Z 0000000180025570 f i DxFabric.obj
 0001:00024650       ?unmap@?$DxBuffer@M@cloth@nv@@QEAAXXZ 0000000180025650 f i DxFabric.obj
 0001:00024680       ?map@?$DxBuffer@M@cloth@nv@@QEAAPEAMW4D3D11_MAP@@@Z 0000000180025680 f i DxFabric.obj
 0001:00024700       ?create@?$DxBuffer@UDxConstraint@cloth@nv@@@cloth@nv@@AEAAXIPEAUD3D11_SUBRESOURCE_DATA@@@Z 0000000180025700 f i DxFabric.obj
 0001:000247e0       ?unmap@?$DxBuffer@UDxConstraint@cloth@nv@@@cloth@nv@@QEAAXXZ 00000001800257e0 f i DxFabric.obj
 0001:00024810       ?map@?$DxBuffer@UDxConstraint@cloth@nv@@@cloth@nv@@QEAAPEAUDxConstraint@23@W4D3D11_MAP@@@Z 0000000180025810 f i DxFabric.obj
 0001:00024890       ?growAndPushBack@?$Array@PEAVDxFabric@cloth@nv@@VNonTrackingAllocator@23@@shdfnd@physx@@IEAAAEAPEAVDxFabric@cloth@nv@@AEBQEAV456@@Z 0000000180025890 f i DxFabric.obj
 0001:00024980       ?growAndPushBack@?$Array@PEAV?$DxBatchedVector@UDxConstraint@cloth@nv@@@cloth@nv@@VNonTrackingAllocator@23@@shdfnd@physx@@IEAAAEAPEAV?$DxBatchedVector@UDxConstraint@cloth@nv@@@cloth@nv@@AEBQEAV456@@Z 0000000180025980 f i DxFabric.obj
 0001:00024a70       ?growAndPushBack@?$Array@PEAV?$DxBatchedVector@M@cloth@nv@@VNonTrackingAllocator@23@@shdfnd@physx@@IEAAAEAPEAV?$DxBatchedVector@M@cloth@nv@@AEBQEAV456@@Z 0000000180025a70 f i DxFabric.obj
 0001:00024b60       ?growAndPushBack@?$Array@PEAV?$DxBatchedVector@UDxTether@cloth@nv@@@cloth@nv@@VNonTrackingAllocator@23@@shdfnd@physx@@IEAAAEAPEAV?$DxBatchedVector@UDxTether@cloth@nv@@@cloth@nv@@AEBQEAV456@@Z 0000000180025b60 f i DxFabric.obj
 0001:00024c50       ?resize@?$Array@UDxConstraint@cloth@nv@@VNonTrackingAllocator@23@@shdfnd@physx@@QEAAXIAEBUDxConstraint@cloth@nv@@@Z 0000000180025c50 f i DxFabric.obj
 0001:00024cc0       ?resizeUninitialized@?$Array@UDxConstraint@cloth@nv@@VNonTrackingAllocator@23@@shdfnd@physx@@QEAAXI@Z 0000000180025cc0 f i DxFabric.obj
 0001:00024d00       ?growAndPushBack@?$Array@UDxTether@cloth@nv@@VNonTrackingAllocator@23@@shdfnd@physx@@IEAAAEAUDxTether@cloth@nv@@AEBU456@@Z 0000000180025d00 f i DxFabric.obj
 0001:00024df0       ?recreate@?$Array@UDxTether@cloth@nv@@VNonTrackingAllocator@23@@shdfnd@physx@@IEAAXI@Z 0000000180025df0 f i DxFabric.obj
 0001:00024ea0       ??$?4VNonTrackingAllocator@cloth@nv@@@?$DxBatchedVector@UDxConstraint@cloth@nv@@@cloth@nv@@QEAAAEAV012@AEBV?$Array@UDxConstraint@cloth@nv@@VNonTrackingAllocator@23@@shdfnd@physx@@@Z 0000000180025ea0 f i DxFabric.obj
 0001:00024ed0       ??$swap@UDxTether@cloth@nv@@@shdfnd@physx@@YAXAEAV?$DxBuffer@UDxTether@cloth@nv@@@cloth@nv@@0@Z 0000000180025ed0 f i DxFabric.obj
 0001:00024f40       ??$swap@M@shdfnd@physx@@YAXAEAV?$DxBuffer@M@cloth@nv@@0@Z 0000000180025f40 f i DxFabric.obj
 0001:00024fb0       ??$swap@UDxConstraint@cloth@nv@@@shdfnd@physx@@YAXAEAV?$DxBuffer@UDxConstraint@cloth@nv@@@cloth@nv@@0@Z 0000000180025fb0 f i DxFabric.obj
 0001:00025020       ?capacityIncrement@?$Array@UDxTether@cloth@nv@@VNonTrackingAllocator@23@@shdfnd@physx@@IEBAIXZ 0000000180026020 f i DxFabric.obj
 0001:00025040       ?copy@?$Array@UDxTether@cloth@nv@@VNonTrackingAllocator@23@@shdfnd@physx@@KAXPEAUDxTether@cloth@nv@@0PEBU456@@Z 0000000180026040 f i DxFabric.obj
 0001:00025060       ?allocate@?$Array@UDxTether@cloth@nv@@VNonTrackingAllocator@23@@shdfnd@physx@@IEAAPEAUDxTether@cloth@nv@@I@Z 0000000180026060 f i DxFabric.obj
 0001:000250b0       ?create@?$Array@UDxConstraint@cloth@nv@@VNonTrackingAllocator@23@@shdfnd@physx@@KAXPEAUDxConstraint@cloth@nv@@0AEBU456@@Z 00000001800260b0 f i DxFabric.obj
 0001:000250d0       ?reserve@?$Array@UDxConstraint@cloth@nv@@VNonTrackingAllocator@23@@shdfnd@physx@@QEAAXI@Z 00000001800260d0 f i DxFabric.obj
 0001:000250e0       ?end@?$Array@UDxConstraint@cloth@nv@@VNonTrackingAllocator@23@@shdfnd@physx@@QEBAPEBUDxConstraint@cloth@nv@@XZ 00000001800260e0 f i DxFabric.obj
 0001:000250f0       ?begin@?$Array@UDxConstraint@cloth@nv@@VNonTrackingAllocator@23@@shdfnd@physx@@QEBAPEBUDxConstraint@cloth@nv@@XZ 00000001800260f0 f i DxFabric.obj
 0001:00025100       ?capacityIncrement@?$Array@PEAV?$DxBatchedVector@UDxTether@cloth@nv@@@cloth@nv@@VNonTrackingAllocator@23@@shdfnd@physx@@IEBAIXZ 0000000180026100 f i DxFabric.obj
 0001:00025120       ?destroy@?$Array@PEAV?$DxBatchedVector@UDxTether@cloth@nv@@@cloth@nv@@VNonTrackingAllocator@23@@shdfnd@physx@@KAXPEAPEAV?$DxBatchedVector@UDxTether@cloth@nv@@@cloth@nv@@0@Z 0000000180026120 f i DxFabric.obj
 0001:00025130       ?copy@?$Array@PEAV?$DxBatchedVector@UDxTether@cloth@nv@@@cloth@nv@@VNonTrackingAllocator@23@@shdfnd@physx@@KAXPEAPEAV?$DxBatchedVector@UDxTether@cloth@nv@@@cloth@nv@@0PEBQEAV456@@Z 0000000180026130 f i DxFabric.obj
 0001:00025150       ?deallocate@?$Array@PEAV?$DxBatchedVector@UDxTether@cloth@nv@@@cloth@nv@@VNonTrackingAllocator@23@@shdfnd@physx@@IEAAXPEAX@Z 0000000180026150 f i DxFabric.obj
 0001:00025170       ?allocate@?$Array@PEAV?$DxBatchedVector@UDxTether@cloth@nv@@@cloth@nv@@VNonTrackingAllocator@23@@shdfnd@physx@@IEAAPEAPEAV?$DxBatchedVector@UDxTether@cloth@nv@@@cloth@nv@@I@Z 0000000180026170 f i DxFabric.obj
 0001:000251c0       ?isInUserMemory@?$Array@PEAV?$DxBatchedVector@UDxTether@cloth@nv@@@cloth@nv@@VNonTrackingAllocator@23@@shdfnd@physx@@QEBAIXZ 00000001800261c0 f i DxFabric.obj
 0001:000251d0       ?capacityIncrement@?$Array@PEAV?$DxBatchedVector@M@cloth@nv@@VNonTrackingAllocator@23@@shdfnd@physx@@IEBAIXZ 00000001800261d0 f i DxFabric.obj
 0001:000251f0       ?destroy@?$Array@PEAV?$DxBatchedVector@M@cloth@nv@@VNonTrackingAllocator@23@@shdfnd@physx@@KAXPEAPEAV?$DxBatchedVector@M@cloth@nv@@0@Z 00000001800261f0 f i DxFabric.obj
 0001:00025200       ?copy@?$Array@PEAV?$DxBatchedVector@M@cloth@nv@@VNonTrackingAllocator@23@@shdfnd@physx@@KAXPEAPEAV?$DxBatchedVector@M@cloth@nv@@0PEBQEAV456@@Z 0000000180026200 f i DxFabric.obj
 0001:00025220       ?deallocate@?$Array@PEAV?$DxBatchedVector@M@cloth@nv@@VNonTrackingAllocator@23@@shdfnd@physx@@IEAAXPEAX@Z 0000000180026220 f i DxFabric.obj
 0001:00025240       ?allocate@?$Array@PEAV?$DxBatchedVector@M@cloth@nv@@VNonTrackingAllocator@23@@shdfnd@physx@@IEAAPEAPEAV?$DxBatchedVector@M@cloth@nv@@I@Z 0000000180026240 f i DxFabric.obj
 0001:00025290       ?isInUserMemory@?$Array@PEAV?$DxBatchedVector@M@cloth@nv@@VNonTrackingAllocator@23@@shdfnd@physx@@QEBAIXZ 0000000180026290 f i DxFabric.obj
 0001:000252a0       ?capacityIncrement@?$Array@PEAV?$DxBatchedVector@UDxConstraint@cloth@nv@@@cloth@nv@@VNonTrackingAllocator@23@@shdfnd@physx@@IEBAIXZ 00000001800262a0 f i DxFabric.obj
 0001:000252c0       ?destroy@?$Array@PEAV?$DxBatchedVector@UDxConstraint@cloth@nv@@@cloth@nv@@VNonTrackingAllocator@23@@shdfnd@physx@@KAXPEAPEAV?$DxBatchedVector@UDxConstraint@cloth@nv@@@cloth@nv@@0@Z 00000001800262c0 f i DxFabric.obj
 0001:000252d0       ?copy@?$Array@PEAV?$DxBatchedVector@UDxConstraint@cloth@nv@@@cloth@nv@@VNonTrackingAllocator@23@@shdfnd@physx@@KAXPEAPEAV?$DxBatchedVector@UDxConstraint@cloth@nv@@@cloth@nv@@0PEBQEAV456@@Z 00000001800262d0 f i DxFabric.obj
 0001:000252f0       ?deallocate@?$Array@PEAV?$DxBatchedVector@UDxConstraint@cloth@nv@@@cloth@nv@@VNonTrackingAllocator@23@@shdfnd@physx@@IEAAXPEAX@Z 00000001800262f0 f i DxFabric.obj
 0001:00025310       ?allocate@?$Array@PEAV?$DxBatchedVector@UDxConstraint@cloth@nv@@@cloth@nv@@VNonTrackingAllocator@23@@shdfnd@physx@@IEAAPEAPEAV?$DxBatchedVector@UDxConstraint@cloth@nv@@@cloth@nv@@I@Z 0000000180026310 f i DxFabric.obj
 0001:00025360       ?isInUserMemory@?$Array@PEAV?$DxBatchedVector@UDxConstraint@cloth@nv@@@cloth@nv@@VNonTrackingAllocator@23@@shdfnd@physx@@QEBAIXZ 0000000180026360 f i DxFabric.obj
 0001:00025370       ?capacityIncrement@?$Array@PEAVDxFabric@cloth@nv@@VNonTrackingAllocator@23@@shdfnd@physx@@IEBAIXZ 0000000180026370 f i DxFabric.obj
 0001:00025390       ?destroy@?$Array@PEAVDxFabric@cloth@nv@@VNonTrackingAllocator@23@@shdfnd@physx@@KAXPEAPEAVDxFabric@cloth@nv@@0@Z 0000000180026390 f i DxFabric.obj
 0001:000253a0       ?copy@?$Array@PEAVDxFabric@cloth@nv@@VNonTrackingAllocator@23@@shdfnd@physx@@KAXPEAPEAVDxFabric@cloth@nv@@0PEBQEAV456@@Z 00000001800263a0 f i DxFabric.obj
 0001:000253c0       ?deallocate@?$Array@PEAVDxFabric@cloth@nv@@VNonTrackingAllocator@23@@shdfnd@physx@@IEAAXPEAX@Z 00000001800263c0 f i DxFabric.obj
 0001:000253e0       ?allocate@?$Array@PEAVDxFabric@cloth@nv@@VNonTrackingAllocator@23@@shdfnd@physx@@IEAAPEAPEAVDxFabric@cloth@nv@@I@Z 00000001800263e0 f i DxFabric.obj
 0001:00025430       ?isInUserMemory@?$Array@PEAVDxFabric@cloth@nv@@VNonTrackingAllocator@23@@shdfnd@physx@@QEBAIXZ 0000000180026430 f i DxFabric.obj
 0001:00025440       ?grow@?$Array@UDxConstraint@cloth@nv@@VNonTrackingAllocator@23@@shdfnd@physx@@IEAAXI@Z 0000000180026440 f i DxFabric.obj
 0001:00025450       ?recreate@?$Array@UDxConstraint@cloth@nv@@VNonTrackingAllocator@23@@shdfnd@physx@@IEAAXI@Z 0000000180026450 f i DxFabric.obj
 0001:00025500       ?copy@?$Array@UDxConstraint@cloth@nv@@VNonTrackingAllocator@23@@shdfnd@physx@@KAXPEAUDxConstraint@cloth@nv@@0PEBU456@@Z 0000000180026500 f i DxFabric.obj
 0001:00025520       ?allocate@?$Array@UDxConstraint@cloth@nv@@VNonTrackingAllocator@23@@shdfnd@physx@@IEAAPEAUDxConstraint@cloth@nv@@I@Z 0000000180026520 f i DxFabric.obj
 0001:00025570       ?memCopy@intrinsics@physx@@YAPEAXPEAXPEBXI@Z 0000000180026570 f i DxFactory.obj
 0001:00025590       ?DxDefaultBufferPolicy@cloth@nv@@YA?AUDxBufferFlags@12@XZ 0000000180026590 f i DxFactory.obj
 0001:000255b0       ?DxDefaultRawBufferPolicy@cloth@nv@@YA?AUDxBufferFlags@12@XZ 00000001800265b0 f i DxFactory.obj
 0001:000255d0       ?DxStagingBufferPolicy@cloth@nv@@YA?AUDxBufferFlags@12@XZ 00000001800265d0 f i DxFactory.obj
 0001:000255f0       ?getPlatform@DxFactory@cloth@nv@@UEBA?AW4Platform@23@XZ 00000001800265f0 f i DxFactory.obj
 0001:00025600       ??_EDxFactory@cloth@nv@@UEAAPEAXI@Z 0000000180026600 f i * CIL library *:* CIL module *
 0001:00025600       ??_GDxFactory@cloth@nv@@UEAAPEAXI@Z 0000000180026600 f i DxFactory.obj
 0001:00025660       ?size@?$Array@UDxTether@cloth@nv@@VNonTrackingAllocator@23@@shdfnd@physx@@QEBAIXZ 0000000180026660 f i DxFactory.obj
 0001:00025670       ??A?$Array@UDxTether@cloth@nv@@VNonTrackingAllocator@23@@shdfnd@physx@@QEAAAEAUDxTether@cloth@nv@@I@Z 0000000180026670 f i DxFactory.obj
 0001:00025680       ??0?$Array@UDxTether@cloth@nv@@VNonTrackingAllocator@23@@shdfnd@physx@@QEAA@IAEBUDxTether@cloth@nv@@AEBVNonTrackingAllocator@45@@Z 0000000180026680 f i DxFactory.obj
 0001:000256a0       ??A?$Array@MVNonTrackingAllocator@cloth@nv@@@shdfnd@physx@@QEAAAEAMI@Z 00000001800266a0 f i DxFactory.obj
 0001:000256b0       ??A?$Array@UDxConstraint@cloth@nv@@VNonTrackingAllocator@23@@shdfnd@physx@@QEAAAEAUDxConstraint@cloth@nv@@I@Z 00000001800266b0 f i DxFactory.obj
 0001:000256c0       ?begin@?$DxVectorMap@V?$DxBatchedVector@U?$Vec4T@G@cloth@nv@@@cloth@nv@@@cloth@nv@@QEAAPEAU?$Vec4T@G@23@XZ 00000001800266c0 f i DxFactory.obj
 0001:000256d0       ??1?$DxVectorMap@V?$DxBatchedVector@U?$Vec4T@G@cloth@nv@@@cloth@nv@@@cloth@nv@@QEAA@XZ 00000001800266d0 f i DxFactory.obj
 0001:00025730       ??0?$DxVectorMap@V?$DxBatchedVector@U?$Vec4T@G@cloth@nv@@@cloth@nv@@@cloth@nv@@QEAA@AEAV?$DxBatchedVector@U?$Vec4T@G@cloth@nv@@@12@W4D3D11_MAP@@@Z 0000000180026730 f i DxFactory.obj
 0001:000257c0       ??1?$DxBatchedStorage@U?$Vec4T@G@cloth@nv@@@cloth@nv@@QEAA@XZ 00000001800267c0 f i DxFactory.obj
 0001:00025840       ??0?$DxBatchedStorage@U?$Vec4T@G@cloth@nv@@@cloth@nv@@QEAA@PEAVDxContextManagerCallback@12@AEBUDxBufferFlags@12@@Z 0000000180026840 f i DxFactory.obj
 0001:00025880       ??1?$DxBatchedStorage@VPxVec3@physx@@@cloth@nv@@QEAA@XZ 0000000180026880 f i DxFactory.obj
 0001:00025900       ??0?$DxBatchedStorage@VPxVec3@physx@@@cloth@nv@@QEAA@PEAVDxContextManagerCallback@12@AEBUDxBufferFlags@12@@Z 0000000180026900 f i DxFactory.obj
 0001:00025940       ??1?$DxBatchedStorage@I@cloth@nv@@QEAA@XZ 0000000180026940 f i DxFactory.obj
 0001:000259c0       ??0?$DxBatchedStorage@I@cloth@nv@@QEAA@PEAVDxContextManagerCallback@12@AEBUDxBufferFlags@12@@Z 00000001800269c0 f i DxFactory.obj
 0001:00025a00       ?empty@?$DxBatchedVector@UIndexPair@cloth@nv@@@cloth@nv@@QEBA_NXZ 0000000180026a00 f i DxFactory.obj
 0001:00025a10       ??1?$DxBatchedStorage@UIndexPair@cloth@nv@@@cloth@nv@@QEAA@XZ 0000000180026a10 f i DxFactory.obj
 0001:00025a90       ??0?$DxBatchedStorage@UIndexPair@cloth@nv@@@cloth@nv@@QEAA@PEAVDxContextManagerCallback@12@AEBUDxBufferFlags@12@@Z 0000000180026a90 f i DxFactory.obj
 0001:00025ad0       ??1?$DxBatchedStorage@UDxPhaseConfig@cloth@nv@@@cloth@nv@@QEAA@XZ 0000000180026ad0 f i DxFactory.obj
 0001:00025b50       ??0?$DxBatchedStorage@UDxPhaseConfig@cloth@nv@@@cloth@nv@@QEAA@PEAVDxContextManagerCallback@12@AEBUDxBufferFlags@12@@Z 0000000180026b50 f i DxFactory.obj
 0001:00025b90       ??1?$DxBatchedStorage@VPxVec4@physx@@@cloth@nv@@QEAA@XZ 0000000180026b90 f i DxFactory.obj
 0001:00025c10       ??0?$DxBatchedStorage@VPxVec4@physx@@@cloth@nv@@QEAA@PEAVDxContextManagerCallback@12@AEBUDxBufferFlags@12@@Z 0000000180026c10 f i DxFactory.obj
 0001:00025c50       ?buffer@?$DxBatchedVector@UDxTether@cloth@nv@@@cloth@nv@@QEBAPEAUID3D11Buffer@@XZ 0000000180026c50 f i DxFactory.obj
 0001:00025c60       ??1?$DxBatchedStorage@UDxTether@cloth@nv@@@cloth@nv@@QEAA@XZ 0000000180026c60 f i DxFactory.obj
 0001:00025ce0       ??0?$DxBatchedStorage@UDxTether@cloth@nv@@@cloth@nv@@QEAA@PEAVDxContextManagerCallback@12@AEBUDxBufferFlags@12@@Z 0000000180026ce0 f i DxFactory.obj
 0001:00025d20       ?buffer@?$DxBatchedVector@M@cloth@nv@@QEBAPEAUID3D11Buffer@@XZ 0000000180026d20 f i DxFactory.obj
 0001:00025d30       ??1?$DxBatchedStorage@M@cloth@nv@@QEAA@XZ 0000000180026d30 f i DxFactory.obj
 0001:00025db0       ??0?$DxBatchedStorage@M@cloth@nv@@QEAA@PEAVDxContextManagerCallback@12@AEBUDxBufferFlags@12@@Z 0000000180026db0 f i DxFactory.obj
 0001:00025df0       ??1?$DxBatchedStorage@UDxConstraint@cloth@nv@@@cloth@nv@@QEAA@XZ 0000000180026df0 f i DxFactory.obj
 0001:00025e70       ??0?$DxBatchedStorage@UDxConstraint@cloth@nv@@@cloth@nv@@QEAA@PEAVDxContextManagerCallback@12@AEBUDxBufferFlags@12@@Z 0000000180026e70 f i DxFactory.obj
 0001:00025eb0       ??1?$Array@PEAVDxFabric@cloth@nv@@VNonTrackingAllocator@23@@shdfnd@physx@@QEAA@XZ 0000000180026eb0 f i DxFactory.obj
 0001:00025ee0       ??0?$Array@PEAVDxFabric@cloth@nv@@VNonTrackingAllocator@23@@shdfnd@physx@@QEAA@AEBVNonTrackingAllocator@cloth@nv@@@Z 0000000180026ee0 f i DxFactory.obj
 0001:00025ef0       ??1?$Array@PEAV?$DxBatchedVector@U?$Vec4T@G@cloth@nv@@@cloth@nv@@VNonTrackingAllocator@23@@shdfnd@physx@@QEAA@XZ 0000000180026ef0 f i DxFactory.obj
 0001:00025f20       ??0?$Array@PEAV?$DxBatchedVector@U?$Vec4T@G@cloth@nv@@@cloth@nv@@VNonTrackingAllocator@23@@shdfnd@physx@@QEAA@AEBVNonTrackingAllocator@cloth@nv@@@Z 0000000180026f20 f i DxFactory.obj
 0001:00025f30       ?manager@?$DxBatchedVector@U?$Vec4T@G@cloth@nv@@@cloth@nv@@QEBAPEAVDxContextManagerCallback@23@XZ 0000000180026f30 f i DxFactory.obj
 0001:00025f40       ?unmap@?$DxBatchedVector@U?$Vec4T@G@cloth@nv@@@cloth@nv@@QEAAXXZ 0000000180026f40 f i DxFactory.obj
 0001:00025f80       ?map@?$DxBatchedVector@U?$Vec4T@G@cloth@nv@@@cloth@nv@@QEAAPEAU?$Vec4T@G@23@W4D3D11_MAP@@@Z 0000000180026f80 f i DxFactory.obj
 0001:00025fe0       ??1?$Array@PEAV?$DxBatchedVector@VPxVec3@physx@@@cloth@nv@@VNonTrackingAllocator@23@@shdfnd@physx@@QEAA@XZ 0000000180026fe0 f i DxFactory.obj
 0001:00026010       ??0?$Array@PEAV?$DxBatchedVector@VPxVec3@physx@@@cloth@nv@@VNonTrackingAllocator@23@@shdfnd@physx@@QEAA@AEBVNonTrackingAllocator@cloth@nv@@@Z 0000000180027010 f i DxFactory.obj
 0001:00026020       ??1?$Array@PEAV?$DxBatchedVector@I@cloth@nv@@VNonTrackingAllocator@23@@shdfnd@physx@@QEAA@XZ 0000000180027020 f i DxFactory.obj
 0001:00026050       ??0?$Array@PEAV?$DxBatchedVector@I@cloth@nv@@VNonTrackingAllocator@23@@shdfnd@physx@@QEAA@AEBVNonTrackingAllocator@cloth@nv@@@Z 0000000180027050 f i DxFactory.obj
 0001:00026060       ??1?$Array@PEAV?$DxBatchedVector@UIndexPair@cloth@nv@@@cloth@nv@@VNonTrackingAllocator@23@@shdfnd@physx@@QEAA@XZ 0000000180027060 f i DxFactory.obj
 0001:00026090       ??0?$Array@PEAV?$DxBatchedVector@UIndexPair@cloth@nv@@@cloth@nv@@VNonTrackingAllocator@23@@shdfnd@physx@@QEAA@AEBVNonTrackingAllocator@cloth@nv@@@Z 0000000180027090 f i DxFactory.obj
 0001:000260a0       ??1?$Array@PEAV?$DxBatchedVector@UDxPhaseConfig@cloth@nv@@@cloth@nv@@VNonTrackingAllocator@23@@shdfnd@physx@@QEAA@XZ 00000001800270a0 f i DxFactory.obj
 0001:000260d0       ??0?$Array@PEAV?$DxBatchedVector@UDxPhaseConfig@cloth@nv@@@cloth@nv@@VNonTrackingAllocator@23@@shdfnd@physx@@QEAA@AEBVNonTrackingAllocator@cloth@nv@@@Z 00000001800270d0 f i DxFactory.obj
 0001:000260e0       ??1?$Array@PEAV?$DxBatchedVector@VPxVec4@physx@@@cloth@nv@@VNonTrackingAllocator@23@@shdfnd@physx@@QEAA@XZ 00000001800270e0 f i DxFactory.obj
 0001:00026110       ??0?$Array@PEAV?$DxBatchedVector@VPxVec4@physx@@@cloth@nv@@VNonTrackingAllocator@23@@shdfnd@physx@@QEAA@AEBVNonTrackingAllocator@cloth@nv@@@Z 0000000180027110 f i DxFactory.obj
 0001:00026120       ??1?$Array@PEAV?$DxBatchedVector@UDxTether@cloth@nv@@@cloth@nv@@VNonTrackingAllocator@23@@shdfnd@physx@@QEAA@XZ 0000000180027120 f i DxFactory.obj
 0001:00026150       ??0?$Array@PEAV?$DxBatchedVector@UDxTether@cloth@nv@@@cloth@nv@@VNonTrackingAllocator@23@@shdfnd@physx@@QEAA@AEBVNonTrackingAllocator@cloth@nv@@@Z 0000000180027150 f i DxFactory.obj
 0001:00026160       ??1?$Array@PEAV?$DxBatchedVector@M@cloth@nv@@VNonTrackingAllocator@23@@shdfnd@physx@@QEAA@XZ 0000000180027160 f i DxFactory.obj
 0001:00026190       ??0?$Array@PEAV?$DxBatchedVector@M@cloth@nv@@VNonTrackingAllocator@23@@shdfnd@physx@@QEAA@AEBVNonTrackingAllocator@cloth@nv@@@Z 0000000180027190 f i DxFactory.obj
 0001:000261a0       ??1?$Array@PEAV?$DxBatchedVector@UDxConstraint@cloth@nv@@@cloth@nv@@VNonTrackingAllocator@23@@shdfnd@physx@@QEAA@XZ 00000001800271a0 f i DxFactory.obj
 0001:000261d0       ??0?$Array@PEAV?$DxBatchedVector@UDxConstraint@cloth@nv@@@cloth@nv@@VNonTrackingAllocator@23@@shdfnd@physx@@QEAA@AEBVNonTrackingAllocator@cloth@nv@@@Z 00000001800271d0 f i DxFactory.obj
 0001:000261e0       ?size@?$Range@M@cloth@nv@@QEBAIXZ 00000001800271e0 f i DxFactory.obj
 0001:000261f0       ??A?$Range@M@cloth@nv@@QEBAAEAMI@Z 00000001800271f0 f i DxFactory.obj
 0001:00026200       ?size@?$Range@VPxVec4@physx@@@cloth@nv@@QEBAIXZ 0000000180027200 f i DxFactory.obj
 0001:00026210       ?resize@?$Array@UDxTether@cloth@nv@@VNonTrackingAllocator@23@@shdfnd@physx@@QEAAXIAEBUDxTether@cloth@nv@@@Z 0000000180027210 f i DxFactory.obj
 0001:00026280       ??$PX_UNUSED@PEBVCloth@cloth@nv@@@@YAXAEBQEBVCloth@cloth@nv@@@Z 0000000180027280 f i DxFactory.obj
 0001:00026290       ??$PX_UNUSED@PEAU?$Range@VPxVec4@physx@@@cloth@nv@@@@YAXAEBQEAU?$Range@VPxVec4@physx@@@cloth@nv@@@Z 0000000180027290 f i DxFactory.obj
 0001:000262a0       ?create@?$Array@UDxTether@cloth@nv@@VNonTrackingAllocator@23@@shdfnd@physx@@KAXPEAUDxTether@cloth@nv@@0AEBU456@@Z 00000001800272a0 f i DxFactory.obj
 0001:000262c0       ??0DxClothData@cloth@nv@@QEAA@XZ 00000001800272c0 f i DxSolver.obj
 0001:000262d0       ??0DxIterationData@cloth@nv@@QEAA@XZ 00000001800272d0 f i DxSolver.obj
 0001:000262e0       ?DxDynamicBufferPolicy@cloth@nv@@YA?AUDxBufferFlags@12@XZ 00000001800272e0 f i DxSolver.obj
 0001:00026300       ?hasError@DxSolver@cloth@nv@@UEBA_NXZ 0000000180027300 f i DxSolver.obj
 0001:00026310       ?setInterCollisionDistance@DxSolver@cloth@nv@@UEAAXM@Z 0000000180027310 f i DxSolver.obj
 0001:00026320       ?getInterCollisionDistance@DxSolver@cloth@nv@@UEBAMXZ 0000000180027320 f i DxSolver.obj
 0001:00026330       ?setInterCollisionStiffness@DxSolver@cloth@nv@@UEAAXM@Z 0000000180027330 f i DxSolver.obj
 0001:00026340       ?getInterCollisionStiffness@DxSolver@cloth@nv@@UEBAMXZ 0000000180027340 f i DxSolver.obj
 0001:00026350       ?setInterCollisionNbIterations@DxSolver@cloth@nv@@UEAAXI@Z 0000000180027350 f i DxSolver.obj
 0001:00026360       ?getInterCollisionNbIterations@DxSolver@cloth@nv@@UEBAIXZ 0000000180027360 f i DxSolver.obj
 0001:00026370       ?setInterCollisionFilter@DxSolver@cloth@nv@@UEAAXP6A_NPEAX0@Z@Z 0000000180027370 f i DxSolver.obj
 0001:00026380       ??0TempAllocator@shdfnd@physx@@QEAA@PEBD@Z 0000000180027380 f i DxSolver.obj
 0001:00026390       ??_GDxSolver@cloth@nv@@UEAAPEAXI@Z 0000000180027390 f i DxSolver.obj
 0001:00026390       ??_EDxSolver@cloth@nv@@UEAAPEAXI@Z 0000000180027390 f i * CIL library *:* CIL module *
 0001:000263f0       ??1?$DxDeviceVector@UDxClothData@cloth@nv@@@cloth@nv@@QEAA@XZ 00000001800273f0 f i DxSolver.obj
 0001:00026450       ??1?$DxDeviceVector@UDxFrameData@cloth@nv@@@cloth@nv@@QEAA@XZ 0000000180027450 f i DxSolver.obj
 0001:000264b0       ??1?$DxDeviceVector@UDxIterationData@cloth@nv@@@cloth@nv@@QEAA@XZ 00000001800274b0 f i DxSolver.obj
 0001:00026540       ??4?$DxDeviceVector@UDxFrameData@cloth@nv@@@cloth@nv@@QEAAAEAV012@AEBV012@@Z 0000000180027540 f i DxSolver.obj
 0001:00026570       ?resourceView@?$DxBuffer@U?$Vec4T@G@cloth@nv@@@cloth@nv@@QEAAPEAUID3D11ShaderResourceView@@XZ 0000000180027570 f i DxSolver.obj
 0001:000265d0       ??4?$DxBuffer@U?$Vec4T@G@cloth@nv@@@cloth@nv@@QEAAAEAV012@AEBV012@@Z 00000001800275d0 f i DxSolver.obj
 0001:00026690       ?resourceView@?$DxBuffer@VPxVec3@physx@@@cloth@nv@@QEAAPEAUID3D11ShaderResourceView@@XZ 0000000180027690 f i DxSolver.obj
 0001:000266f0       ??4?$DxBuffer@VPxVec3@physx@@@cloth@nv@@QEAAAEAV012@AEBV012@@Z 00000001800276f0 f i DxSolver.obj
 0001:000267b0       ?accessView@?$DxBuffer@I@cloth@nv@@QEAAPEAUID3D11UnorderedAccessView@@XZ 00000001800277b0 f i DxSolver.obj
 0001:00026810       ?resourceView@?$DxBuffer@I@cloth@nv@@QEAAPEAUID3D11ShaderResourceView@@XZ 0000000180027810 f i DxSolver.obj
 0001:00026870       ??4?$DxBuffer@I@cloth@nv@@QEAAAEAV012@AEBV012@@Z 0000000180027870 f i DxSolver.obj
 0001:00026930       ?resourceView@?$DxBuffer@UIndexPair@cloth@nv@@@cloth@nv@@QEAAPEAUID3D11ShaderResourceView@@XZ 0000000180027930 f i DxSolver.obj
 0001:00026990       ??4?$DxBuffer@UIndexPair@cloth@nv@@@cloth@nv@@QEAAAEAV012@AEBV012@@Z 0000000180027990 f i DxSolver.obj
 0001:00026a50       ?resourceView@?$DxBuffer@UDxPhaseConfig@cloth@nv@@@cloth@nv@@QEAAPEAUID3D11ShaderResourceView@@XZ 0000000180027a50 f i DxSolver.obj
 0001:00026ab0       ?accessViewRaw@?$DxBuffer@VPxVec4@physx@@@cloth@nv@@QEAAPEAUID3D11UnorderedAccessView@@XZ 0000000180027ab0 f i DxSolver.obj
 0001:00026b50       ?accessView@?$DxBuffer@VPxVec4@physx@@@cloth@nv@@QEAAPEAUID3D11UnorderedAccessView@@XZ 0000000180027b50 f i DxSolver.obj
 0001:00026bb0       ?resourceView@?$DxBuffer@VPxVec4@physx@@@cloth@nv@@QEAAPEAUID3D11ShaderResourceView@@XZ 0000000180027bb0 f i DxSolver.obj
 0001:00026c10       ??4?$DxBuffer@VPxVec4@physx@@@cloth@nv@@QEAAAEAV012@AEBV012@@Z 0000000180027c10 f i DxSolver.obj
 0001:00026cd0       ?resourceView@?$DxBuffer@UDxTether@cloth@nv@@@cloth@nv@@QEAAPEAUID3D11ShaderResourceView@@XZ 0000000180027cd0 f i DxSolver.obj
 0001:00026d30       ?resourceView@?$DxBuffer@M@cloth@nv@@QEAAPEAUID3D11ShaderResourceView@@XZ 0000000180027d30 f i DxSolver.obj
 0001:00026d90       ?resourceView@?$DxBuffer@UDxConstraint@cloth@nv@@@cloth@nv@@QEAAPEAUID3D11ShaderResourceView@@XZ 0000000180027d90 f i DxSolver.obj
 0001:00026df0       ?pushBack@?$Array@UDxIterationData@cloth@nv@@VNonTrackingAllocator@23@@shdfnd@physx@@QEAAAEAUDxIterationData@cloth@nv@@AEBU456@@Z 0000000180027df0 f i DxSolver.obj
 0001:00026e60       ?size@?$Array@UDxIterationData@cloth@nv@@VNonTrackingAllocator@23@@shdfnd@physx@@QEBAIXZ 0000000180027e60 f i DxSolver.obj
 0001:00026e70       ??1?$Array@UDxIterationData@cloth@nv@@VNonTrackingAllocator@23@@shdfnd@physx@@QEAA@XZ 0000000180027e70 f i DxSolver.obj
 0001:00026ea0       ??0?$Array@UDxIterationData@cloth@nv@@VNonTrackingAllocator@23@@shdfnd@physx@@QEAA@AEBVNonTrackingAllocator@cloth@nv@@@Z 0000000180027ea0 f i DxSolver.obj
 0001:00026eb0       ?resourceView@?$DxBuffer@UDxIterationData@cloth@nv@@@cloth@nv@@QEAAPEAUID3D11ShaderResourceView@@XZ 0000000180027eb0 f i DxSolver.obj
 0001:00026f10       ??1?$DxBuffer@UDxIterationData@cloth@nv@@@cloth@nv@@QEAA@XZ 0000000180027f10 f i DxSolver.obj
 0001:00026f70       ??0?$DxDeviceVector@UDxIterationData@cloth@nv@@@cloth@nv@@QEAA@PEAVDxContextManagerCallback@12@AEBUDxBufferFlags@12@@Z 0000000180027f70 f i DxSolver.obj
 0001:00026fa0       ?accessView@?$DxBuffer@UDxFrameData@cloth@nv@@@cloth@nv@@QEAAPEAUID3D11UnorderedAccessView@@XZ 0000000180027fa0 f i DxSolver.obj
 0001:00027000       ??4?$DxBuffer@UDxFrameData@cloth@nv@@@cloth@nv@@QEAAAEAV012@AEBV012@@Z 0000000180028000 f i DxSolver.obj
 0001:000270c0       ??1?$DxBuffer@UDxFrameData@cloth@nv@@@cloth@nv@@QEAA@XZ 00000001800280c0 f i DxSolver.obj
 0001:00027120       ?unmap@?$DxDeviceVector@UDxFrameData@cloth@nv@@@cloth@nv@@QEAAXXZ 0000000180028120 f i DxSolver.obj
 0001:00027150       ?map@?$DxDeviceVector@UDxFrameData@cloth@nv@@@cloth@nv@@QEAAPEAUDxFrameData@23@W4D3D11_MAP@@@Z 0000000180028150 f i DxSolver.obj
 0001:00027160       ?resize@?$DxDeviceVector@UDxFrameData@cloth@nv@@@cloth@nv@@QEAAXI@Z 0000000180028160 f i DxSolver.obj
 0001:000271a0       ??0?$DxDeviceVector@UDxFrameData@cloth@nv@@@cloth@nv@@QEAA@PEAVDxContextManagerCallback@12@AEBUDxBufferFlags@12@@Z 00000001800281a0 f i DxSolver.obj
 0001:000271d0       ?remove@?$Array@UDxClothData@cloth@nv@@VNonTrackingAllocator@23@@shdfnd@physx@@QEAAXI@Z 00000001800281d0 f i DxSolver.obj
 0001:00027260       ?begin@?$Array@UDxClothData@cloth@nv@@VNonTrackingAllocator@23@@shdfnd@physx@@QEAAPEAUDxClothData@cloth@nv@@XZ 0000000180028260 f i DxSolver.obj
 0001:00027270       ??1?$Array@UDxClothData@cloth@nv@@VNonTrackingAllocator@23@@shdfnd@physx@@QEAA@XZ 0000000180028270 f i DxSolver.obj
 0001:000272a0       ??0?$Array@UDxClothData@cloth@nv@@VNonTrackingAllocator@23@@shdfnd@physx@@QEAA@AEBVNonTrackingAllocator@cloth@nv@@@Z 00000001800282a0 f i DxSolver.obj
 0001:000272b0       ?resourceView@?$DxBuffer@UDxClothData@cloth@nv@@@cloth@nv@@QEAAPEAUID3D11ShaderResourceView@@XZ 00000001800282b0 f i DxSolver.obj
 0001:00027310       ??1?$DxBuffer@UDxClothData@cloth@nv@@@cloth@nv@@QEAA@XZ 0000000180028310 f i DxSolver.obj
 0001:00027370       ?resize@?$DxDeviceVector@UDxClothData@cloth@nv@@@cloth@nv@@QEAAXI@Z 0000000180028370 f i DxSolver.obj
 0001:000273b0       ??0?$DxDeviceVector@UDxClothData@cloth@nv@@@cloth@nv@@QEAA@PEAVDxContextManagerCallback@12@AEBUDxBufferFlags@12@@Z 00000001800283b0 f i DxSolver.obj
 0001:000273e0       ?remove@?$Array@PEAVDxCloth@cloth@nv@@VNonTrackingAllocator@23@@shdfnd@physx@@QEAAXI@Z 00000001800283e0 f i DxSolver.obj
 0001:00027420       ?pushBack@?$Array@PEAVDxCloth@cloth@nv@@VNonTrackingAllocator@23@@shdfnd@physx@@QEAAAEAPEAVDxCloth@cloth@nv@@AEBQEAV456@@Z 0000000180028420 f i DxSolver.obj
 0001:00027460       ?find@?$Array@PEAVDxCloth@cloth@nv@@VNonTrackingAllocator@23@@shdfnd@physx@@QEAAPEAPEAVDxCloth@cloth@nv@@AEBQEAV456@@Z 0000000180028460 f i DxSolver.obj
 0001:00027490       ?empty@?$Array@PEAVDxCloth@cloth@nv@@VNonTrackingAllocator@23@@shdfnd@physx@@QEBA_NXZ 0000000180028490 f i DxSolver.obj
 0001:000274a0       ?size@?$Array@PEAVDxCloth@cloth@nv@@VNonTrackingAllocator@23@@shdfnd@physx@@QEBAIXZ 00000001800284a0 f i DxSolver.obj
 0001:000274b0       ?end@?$Array@PEAVDxCloth@cloth@nv@@VNonTrackingAllocator@23@@shdfnd@physx@@QEAAPEAPEAVDxCloth@cloth@nv@@XZ 00000001800284b0 f i DxSolver.obj
 0001:000274c0       ?begin@?$Array@PEAVDxCloth@cloth@nv@@VNonTrackingAllocator@23@@shdfnd@physx@@QEAAPEAPEAVDxCloth@cloth@nv@@XZ 00000001800284c0 f i DxSolver.obj
 0001:000274d0       ??A?$Array@PEAVDxCloth@cloth@nv@@VNonTrackingAllocator@23@@shdfnd@physx@@QEAAAEAPEAVDxCloth@cloth@nv@@I@Z 00000001800284d0 f i DxSolver.obj
 0001:000274e0       ??A?$Array@PEAVDxCloth@cloth@nv@@VNonTrackingAllocator@23@@shdfnd@physx@@QEBAAEBQEAVDxCloth@cloth@nv@@I@Z 00000001800284e0 f i DxSolver.obj
 0001:000274f0       ??1?$Array@PEAVDxCloth@cloth@nv@@VNonTrackingAllocator@23@@shdfnd@physx@@QEAA@XZ 00000001800284f0 f i DxSolver.obj
 0001:00027520       ??0?$Array@PEAVDxCloth@cloth@nv@@VNonTrackingAllocator@23@@shdfnd@physx@@QEAA@AEBVNonTrackingAllocator@cloth@nv@@@Z 0000000180028520 f i DxSolver.obj
 0001:00027530       ?destroy@?$Array@UDxIterationData@cloth@nv@@VNonTrackingAllocator@23@@shdfnd@physx@@KAXPEAUDxIterationData@cloth@nv@@0@Z 0000000180028530 f i DxSolver.obj
 0001:00027540       ?deallocate@?$Array@UDxIterationData@cloth@nv@@VNonTrackingAllocator@23@@shdfnd@physx@@IEAAXPEAX@Z 0000000180028540 f i DxSolver.obj
 0001:00027560       ?isInUserMemory@?$Array@UDxIterationData@cloth@nv@@VNonTrackingAllocator@23@@shdfnd@physx@@QEBAIXZ 0000000180028560 f i DxSolver.obj
 0001:00027570       ?capacity@?$Array@UDxIterationData@cloth@nv@@VNonTrackingAllocator@23@@shdfnd@physx@@QEBAIXZ 0000000180028570 f i DxSolver.obj
 0001:00027580       ??0?$DxBuffer@UDxIterationData@cloth@nv@@@cloth@nv@@QEAA@PEAVDxContextManagerCallback@12@AEBUDxBufferFlags@12@@Z 0000000180028580 f i DxSolver.obj
 0001:000275b0       ?create@?$DxBuffer@UDxFrameData@cloth@nv@@@cloth@nv@@AEAAXIPEAUD3D11_SUBRESOURCE_DATA@@@Z 00000001800285b0 f i DxSolver.obj
 0001:000276a0       ?unmap@?$DxBuffer@UDxFrameData@cloth@nv@@@cloth@nv@@QEAAXXZ 00000001800286a0 f i DxSolver.obj
 0001:000276d0       ?map@?$DxBuffer@UDxFrameData@cloth@nv@@@cloth@nv@@QEAAPEAUDxFrameData@23@W4D3D11_MAP@@@Z 00000001800286d0 f i DxSolver.obj
 0001:00027760       ?context@?$DxBuffer@UDxFrameData@cloth@nv@@@cloth@nv@@QEBAPEAUID3D11DeviceContext@@XZ 0000000180028760 f i DxSolver.obj
 0001:00027770       ??0?$DxBuffer@UDxFrameData@cloth@nv@@@cloth@nv@@QEAA@PEAVDxContextManagerCallback@12@AEBUDxBufferFlags@12@@Z 0000000180028770 f i DxSolver.obj
 0001:000277a0       ?reserve@?$DxDeviceVector@UDxFrameData@cloth@nv@@@cloth@nv@@QEAAXI@Z 00000001800287a0 f i DxSolver.obj
 0001:000277b0       ?destroy@?$Array@UDxClothData@cloth@nv@@VNonTrackingAllocator@23@@shdfnd@physx@@KAXPEAUDxClothData@cloth@nv@@0@Z 00000001800287b0 f i DxSolver.obj
 0001:000277c0       ?deallocate@?$Array@UDxClothData@cloth@nv@@VNonTrackingAllocator@23@@shdfnd@physx@@IEAAXPEAX@Z 00000001800287c0 f i DxSolver.obj
 0001:000277e0       ?isInUserMemory@?$Array@UDxClothData@cloth@nv@@VNonTrackingAllocator@23@@shdfnd@physx@@QEBAIXZ 00000001800287e0 f i DxSolver.obj
 0001:000277f0       ?capacity@?$Array@UDxClothData@cloth@nv@@VNonTrackingAllocator@23@@shdfnd@physx@@QEBAIXZ 00000001800287f0 f i DxSolver.obj
 0001:00027800       ??0?$DxBuffer@UDxClothData@cloth@nv@@@cloth@nv@@QEAA@PEAVDxContextManagerCallback@12@AEBUDxBufferFlags@12@@Z 0000000180028800 f i DxSolver.obj
 0001:00027830       ?reserve@?$DxDeviceVector@UDxClothData@cloth@nv@@@cloth@nv@@QEAAXI@Z 0000000180028830 f i DxSolver.obj
 0001:00027840       ?destroy@?$Array@PEAVDxCloth@cloth@nv@@VNonTrackingAllocator@23@@shdfnd@physx@@KAXPEAPEAVDxCloth@cloth@nv@@0@Z 0000000180028840 f i DxSolver.obj
 0001:00027850       ?deallocate@?$Array@PEAVDxCloth@cloth@nv@@VNonTrackingAllocator@23@@shdfnd@physx@@IEAAXPEAX@Z 0000000180028850 f i DxSolver.obj
 0001:00027870       ?isInUserMemory@?$Array@PEAVDxCloth@cloth@nv@@VNonTrackingAllocator@23@@shdfnd@physx@@QEBAIXZ 0000000180028870 f i DxSolver.obj
 0001:00027880       ?capacity@?$Array@PEAVDxCloth@cloth@nv@@VNonTrackingAllocator@23@@shdfnd@physx@@QEBAIXZ 0000000180028880 f i DxSolver.obj
 0001:00027890       ?reserve@?$DxBuffer@UDxFrameData@cloth@nv@@@cloth@nv@@QEAAXI@Z 0000000180028890 f i DxSolver.obj
 0001:00027940       ?reserve@?$DxBuffer@UDxClothData@cloth@nv@@@cloth@nv@@QEAAXI@Z 0000000180028940 f i DxSolver.obj
 0001:000279f0       ?create@?$DxBuffer@UDxClothData@cloth@nv@@@cloth@nv@@AEAAXIPEAUD3D11_SUBRESOURCE_DATA@@@Z 00000001800289f0 f i DxSolver.obj
 0001:00027ae0       ?context@?$DxBuffer@UDxClothData@cloth@nv@@@cloth@nv@@QEBAPEAUID3D11DeviceContext@@XZ 0000000180028ae0 f i DxSolver.obj
 0001:00027af0       ?growAndPushBack@?$Array@PEAVDxCloth@cloth@nv@@VNonTrackingAllocator@23@@shdfnd@physx@@IEAAAEAPEAVDxCloth@cloth@nv@@AEBQEAV456@@Z 0000000180028af0 f i DxSolver.obj
 0001:00027be0       ?resize@?$Array@UDxClothData@cloth@nv@@VNonTrackingAllocator@23@@shdfnd@physx@@QEAAXIAEBUDxClothData@cloth@nv@@@Z 0000000180028be0 f i DxSolver.obj
 0001:00027c90       ?resize@?$Array@UDxIterationData@cloth@nv@@VNonTrackingAllocator@23@@shdfnd@physx@@QEAAXIAEBUDxIterationData@cloth@nv@@@Z 0000000180028c90 f i DxSolver.obj
 0001:00027d00       ?growAndPushBack@?$Array@UDxIterationData@cloth@nv@@VNonTrackingAllocator@23@@shdfnd@physx@@IEAAAEAUDxIterationData@cloth@nv@@AEBU456@@Z 0000000180028d00 f i DxSolver.obj
 0001:00027e50       ??$sort@PEAVDxCloth@cloth@nv@@UClothSimCostGreater@?A0xd33dbf30@@VNonTrackingAllocator@23@@shdfnd@physx@@YAXPEAPEAVDxCloth@cloth@nv@@IAEBUClothSimCostGreater@?A0xd33dbf30@@AEBVNonTrackingAllocator@34@I@Z 0000000180028e50 f i DxSolver.obj
 0001:00028060       ??$?0VDxCloth@cloth@nv@@@IterationStateFactory@cloth@nv@@QEAA@AEAVDxCloth@12@M@Z 0000000180029060 f i DxSolver.obj
 0001:000283d0       ??$create@T__m128@@VDxCloth@cloth@nv@@@IterationStateFactory@cloth@nv@@QEBA?AU?$IterationState@T__m128@@@12@AEBVDxCloth@12@@Z 00000001800293d0 f i DxSolver.obj
 0001:00029010       ??$?4VNonTrackingAllocator@cloth@nv@@@?$DxDeviceVector@UDxIterationData@cloth@nv@@@cloth@nv@@QEAAAEAV012@AEBV?$Array@UDxIterationData@cloth@nv@@VNonTrackingAllocator@23@@shdfnd@physx@@@Z 000000018002a010 f i DxSolver.obj
 0001:00029040       ??$?4VNonTrackingAllocator@cloth@nv@@@?$DxDeviceVector@UDxClothData@cloth@nv@@@cloth@nv@@QEAAAEAV012@AEBV?$Array@UDxClothData@cloth@nv@@VNonTrackingAllocator@23@@shdfnd@physx@@@Z 000000018002a040 f i DxSolver.obj
 0001:00029070       ??$swap@VPxVec3@physx@@@shdfnd@physx@@YAXAEAV?$DxBatchedVector@VPxVec3@physx@@@cloth@nv@@0@Z 000000018002a070 f i DxSolver.obj
 0001:000290a0       ??0?$ScopedPointer@HVTempAllocator@shdfnd@physx@@@shdfnd@physx@@QEAA@XZ 000000018002a0a0 f i DxSolver.obj
 0001:000290b0       ?empty@?$Stack@VNonTrackingAllocator@cloth@nv@@@internal@shdfnd@physx@@QEAA_NXZ 000000018002a0b0 f i DxSolver.obj
 0001:000290c0       ?pop@?$Stack@VNonTrackingAllocator@cloth@nv@@@internal@shdfnd@physx@@QEAAXAEAH0@Z 000000018002a0c0 f i DxSolver.obj
 0001:000290e0       ?push@?$Stack@VNonTrackingAllocator@cloth@nv@@@internal@shdfnd@physx@@QEAAXHH@Z 000000018002a0e0 f i DxSolver.obj
 0001:00029140       ??1?$Stack@VNonTrackingAllocator@cloth@nv@@@internal@shdfnd@physx@@QEAA@XZ 000000018002a140 f i DxSolver.obj
 0001:00029160       ??0?$Stack@VNonTrackingAllocator@cloth@nv@@@internal@shdfnd@physx@@QEAA@PEAHIAEBVNonTrackingAllocator@cloth@nv@@@Z 000000018002a160 f i DxSolver.obj
 0001:00029180       ??B?$ScopedPointer@HVTempAllocator@shdfnd@physx@@@shdfnd@physx@@QEBAPEAHXZ 000000018002a180 f i DxSolver.obj
 0001:00029190       ??1?$ScopedPointer@HVTempAllocator@shdfnd@physx@@@shdfnd@physx@@QEAA@XZ 000000018002a190 f i DxSolver.obj
 0001:000291b0       ?swap@?$DxBatchedVector@VPxVec3@physx@@@cloth@nv@@QEAAXAEAV123@@Z 000000018002a1b0 f i DxSolver.obj
 0001:000291e0       ?capacityIncrement@?$Array@UDxIterationData@cloth@nv@@VNonTrackingAllocator@23@@shdfnd@physx@@IEBAIXZ 000000018002a1e0 f i DxSolver.obj
 0001:00029200       ?copy@?$Array@UDxIterationData@cloth@nv@@VNonTrackingAllocator@23@@shdfnd@physx@@KAXPEAUDxIterationData@cloth@nv@@0PEBU456@@Z 000000018002a200 f i DxSolver.obj
 0001:00029260       ?create@?$Array@UDxIterationData@cloth@nv@@VNonTrackingAllocator@23@@shdfnd@physx@@KAXPEAUDxIterationData@cloth@nv@@0AEBU456@@Z 000000018002a260 f i DxSolver.obj
 0001:000292c0       ?allocate@?$Array@UDxIterationData@cloth@nv@@VNonTrackingAllocator@23@@shdfnd@physx@@IEAAPEAUDxIterationData@cloth@nv@@I@Z 000000018002a2c0 f i DxSolver.obj
 0001:00029310       ?reserve@?$Array@UDxIterationData@cloth@nv@@VNonTrackingAllocator@23@@shdfnd@physx@@QEAAXI@Z 000000018002a310 f i DxSolver.obj
 0001:00029320       ?end@?$Array@UDxIterationData@cloth@nv@@VNonTrackingAllocator@23@@shdfnd@physx@@QEBAPEBUDxIterationData@cloth@nv@@XZ 000000018002a320 f i DxSolver.obj
 0001:00029330       ?begin@?$Array@UDxIterationData@cloth@nv@@VNonTrackingAllocator@23@@shdfnd@physx@@QEBAPEBUDxIterationData@cloth@nv@@XZ 000000018002a330 f i DxSolver.obj
 0001:00029340       ?assign@?$DxDeviceVector@UDxIterationData@cloth@nv@@@cloth@nv@@QEAAXPEBUDxIterationData@23@0@Z 000000018002a340 f i DxSolver.obj
 0001:000294d0       ?create@?$Array@UDxClothData@cloth@nv@@VNonTrackingAllocator@23@@shdfnd@physx@@KAXPEAUDxClothData@cloth@nv@@0AEBU456@@Z 000000018002a4d0 f i DxSolver.obj
 0001:00029530       ?reserve@?$Array@UDxClothData@cloth@nv@@VNonTrackingAllocator@23@@shdfnd@physx@@QEAAXI@Z 000000018002a530 f i DxSolver.obj
 0001:00029540       ?end@?$Array@UDxClothData@cloth@nv@@VNonTrackingAllocator@23@@shdfnd@physx@@QEBAPEBUDxClothData@cloth@nv@@XZ 000000018002a540 f i DxSolver.obj
 0001:00029550       ?begin@?$Array@UDxClothData@cloth@nv@@VNonTrackingAllocator@23@@shdfnd@physx@@QEBAPEBUDxClothData@cloth@nv@@XZ 000000018002a550 f i DxSolver.obj
 0001:00029560       ?assign@?$DxDeviceVector@UDxClothData@cloth@nv@@@cloth@nv@@QEAAXPEBUDxClothData@23@0@Z 000000018002a560 f i DxSolver.obj
 0001:000297a0       ?capacityIncrement@?$Array@PEAVDxCloth@cloth@nv@@VNonTrackingAllocator@23@@shdfnd@physx@@IEBAIXZ 000000018002a7a0 f i DxSolver.obj
 0001:000297c0       ?copy@?$Array@PEAVDxCloth@cloth@nv@@VNonTrackingAllocator@23@@shdfnd@physx@@KAXPEAPEAVDxCloth@cloth@nv@@0PEBQEAV456@@Z 000000018002a7c0 f i DxSolver.obj
 0001:000297e0       ?allocate@?$Array@PEAVDxCloth@cloth@nv@@VNonTrackingAllocator@23@@shdfnd@physx@@IEAAPEAPEAVDxCloth@cloth@nv@@I@Z 000000018002a7e0 f i DxSolver.obj
 0001:00029830       ?grow@?$Stack@VNonTrackingAllocator@cloth@nv@@@internal@shdfnd@physx@@QEAAXXZ 000000018002a830 f i DxSolver.obj
 0001:000298c0       ?grow@?$Array@UDxIterationData@cloth@nv@@VNonTrackingAllocator@23@@shdfnd@physx@@IEAAXI@Z 000000018002a8c0 f i DxSolver.obj
 0001:000298d0       ?context@?$DxBuffer@UDxIterationData@cloth@nv@@@cloth@nv@@QEBAPEAUID3D11DeviceContext@@XZ 000000018002a8d0 f i DxSolver.obj
 0001:000298e0       ??4?$DxBuffer@UDxIterationData@cloth@nv@@@cloth@nv@@QEAAAEAV012@AEBV012@@Z 000000018002a8e0 f i DxSolver.obj
 0001:000299a0       ??0?$DxBuffer@UDxIterationData@cloth@nv@@@cloth@nv@@QEAA@PEBUDxIterationData@12@0PEAVDxContextManagerCallback@12@AEBUDxBufferFlags@12@@Z 000000018002a9a0 f i DxSolver.obj
 0001:00029a10       ?unmap@?$DxDeviceVector@UDxIterationData@cloth@nv@@@cloth@nv@@QEAAXXZ 000000018002aa10 f i DxSolver.obj
 0001:00029a40       ?map@?$DxDeviceVector@UDxIterationData@cloth@nv@@@cloth@nv@@QEAAPEAUDxIterationData@23@W4D3D11_MAP@@@Z 000000018002aa40 f i DxSolver.obj
 0001:00029a50       ?grow@?$Array@UDxClothData@cloth@nv@@VNonTrackingAllocator@23@@shdfnd@physx@@IEAAXI@Z 000000018002aa50 f i DxSolver.obj
 0001:00029a60       ??4?$DxBuffer@UDxClothData@cloth@nv@@@cloth@nv@@QEAAAEAV012@AEBV012@@Z 000000018002aa60 f i DxSolver.obj
 0001:00029b20       ??0?$DxBuffer@UDxClothData@cloth@nv@@@cloth@nv@@QEAA@PEBUDxClothData@12@0PEAVDxContextManagerCallback@12@AEBUDxBufferFlags@12@@Z 000000018002ab20 f i DxSolver.obj
 0001:00029b80       ?unmap@?$DxDeviceVector@UDxClothData@cloth@nv@@@cloth@nv@@QEAAXXZ 000000018002ab80 f i DxSolver.obj
 0001:00029bb0       ?map@?$DxDeviceVector@UDxClothData@cloth@nv@@@cloth@nv@@QEAAPEAUDxClothData@23@W4D3D11_MAP@@@Z 000000018002abb0 f i DxSolver.obj
 0001:00029bc0       ?create@?$DxBuffer@UDxIterationData@cloth@nv@@@cloth@nv@@AEAAXIPEAUD3D11_SUBRESOURCE_DATA@@@Z 000000018002abc0 f i DxSolver.obj
 0001:00029cc0       ?unmap@?$DxBuffer@UDxIterationData@cloth@nv@@@cloth@nv@@QEAAXXZ 000000018002acc0 f i DxSolver.obj
 0001:00029cf0       ?map@?$DxBuffer@UDxIterationData@cloth@nv@@@cloth@nv@@QEAAPEAUDxIterationData@23@W4D3D11_MAP@@@Z 000000018002acf0 f i DxSolver.obj
 0001:00029d70       ?unmap@?$DxBuffer@UDxClothData@cloth@nv@@@cloth@nv@@QEAAXXZ 000000018002ad70 f i DxSolver.obj
 0001:00029da0       ?map@?$DxBuffer@UDxClothData@cloth@nv@@@cloth@nv@@QEAAPEAUDxClothData@23@W4D3D11_MAP@@@Z 000000018002ada0 f i DxSolver.obj
 0001:00029e20       ?recreate@?$Array@UDxClothData@cloth@nv@@VNonTrackingAllocator@23@@shdfnd@physx@@IEAAXI@Z 000000018002ae20 f i DxSolver.obj
 0001:00029f10       ?recreate@?$Array@UDxIterationData@cloth@nv@@VNonTrackingAllocator@23@@shdfnd@physx@@IEAAXI@Z 000000018002af10 f i DxSolver.obj
 0001:00029fb0       ??$smallSort@PEAVDxCloth@cloth@nv@@$$CBUClothSimCostGreater@?A0xd33dbf30@@@internal@shdfnd@physx@@YAXPEAPEAVDxCloth@cloth@nv@@HHAEBUClothSimCostGreater@?A0xd33dbf30@@@Z 000000018002afb0 f i DxSolver.obj
 0001:0002a280       ??$partition@PEAVDxCloth@cloth@nv@@$$CBUClothSimCostGreater@?A0xd33dbf30@@@internal@shdfnd@physx@@YAHPEAPEAVDxCloth@cloth@nv@@HHAEBUClothSimCostGreater@?A0xd33dbf30@@@Z 000000018002b280 f i DxSolver.obj
 0001:0002a370       ?copy@?$Array@UDxClothData@cloth@nv@@VNonTrackingAllocator@23@@shdfnd@physx@@KAXPEAUDxClothData@cloth@nv@@0PEBU456@@Z 000000018002b370 f i DxSolver.obj
 0001:0002a3d0       ?allocate@?$Array@UDxClothData@cloth@nv@@VNonTrackingAllocator@23@@shdfnd@physx@@IEAAPEAUDxClothData@cloth@nv@@I@Z 000000018002b3d0 f i DxSolver.obj
 0001:0002a420       ??$swap@PEAVDxCloth@cloth@nv@@@shdfnd@physx@@YAXAEAPEAVDxCloth@cloth@nv@@0@Z 000000018002b420 f i DxSolver.obj
 0001:0002a430       ??$median3@PEAVDxCloth@cloth@nv@@$$CBUClothSimCostGreater@?A0xd33dbf30@@@internal@shdfnd@physx@@YAXPEAPEAVDxCloth@cloth@nv@@HHAEBUClothSimCostGreater@?A0xd33dbf30@@@Z 000000018002b430 f i DxSolver.obj
 0001:0002a530       ??$solveConstraints@$0A@$00@avx@@YAXPEIAMPEIBM11PEIBGAEBT__m128@@3@Z 000000018002b530 f i SwSolveConstraints.obj
 0001:0002ab60       ??$solveConstraints@$00$00@avx@@YAXPEIAMPEIBM11PEIBGAEBT__m128@@3@Z 000000018002bb60 f i SwSolveConstraints.obj
 0001:0002b1d0       ??$solveConstraints@$0A@$01@avx@@YAXPEIAMPEIBM11PEIBGAEBT__m128@@3@Z 000000018002c1d0 f i SwSolveConstraints.obj
 0001:0002b7c0       ??$solveConstraints@$00$01@avx@@YAXPEIAMPEIBM11PEIBGAEBT__m128@@3@Z 000000018002c7c0 f i SwSolveConstraints.obj
 0001:0002be10       ??$fmadd_ps@$00@avx@@YA?AT__m256@@T1@00@Z 000000018002ce10 f i SwSolveConstraints.obj
 0001:0002be40       ??$exp2@$00@avx@@YA?AT__m256@@AEBT1@@Z 000000018002ce40 f i SwSolveConstraints.obj
 0001:0002bf40       ??$fnmadd_ps@$00@avx@@YA?AT__m256@@T1@00@Z 000000018002cf40 f i SwSolveConstraints.obj
 0001:0002bf70       __local_stdio_printf_options 000000018002cf70 f i Callbacks.obj
 0001:0002bf80       _vsnprintf_s_l             000000018002cf80 f i Callbacks.obj
 0001:0002bfe0       _vsnprintf_s               000000018002cfe0 f i Callbacks.obj
 0001:0002c040       ??$__vcrt_va_start_verify_argument_type@PEBD@@YAXXZ 000000018002d040 f i Callbacks.obj
 0001:0002c050       ??0PhaseConfig@cloth@nv@@QEAA@G@Z 000000018002d050 f i PhaseConfig.obj
 0001:0002c080       ?pop@SwConstraints@cloth@nv@@QEAAXXZ 000000018002d080 f i SwCloth.obj
 0001:0002c0d0       ?notifyChanged@SwCloth@cloth@nv@@QEAAXXZ 000000018002d0d0 f i SwCloth.obj
 0001:0002c0e0       ??_ESwCloth@cloth@nv@@UEAAPEAXI@Z 000000018002d0e0 f i * CIL library *:* CIL module *
 0001:0002c0e0       ??_GSwCloth@cloth@nv@@UEAAPEAXI@Z 000000018002d0e0 f i SwCloth.obj
 0001:0002c140       ??1?$ClothImpl@VSwCloth@cloth@nv@@@cloth@nv@@UEAA@XZ 000000018002d140 f i SwCloth.obj
 0001:0002c170       ??0SwConstraints@cloth@nv@@QEAA@XZ 000000018002d170 f i SwCloth.obj
 0001:0002c190       ??1SwConstraints@cloth@nv@@QEAA@XZ 000000018002d190 f i SwCloth.obj
 0001:0002c1f0       ?swap@?$Array@U?$Vec4T@G@cloth@nv@@VNonTrackingAllocator@23@@shdfnd@physx@@QEAAXAEAV123@@Z 000000018002d1f0 f i SwCloth.obj
 0001:0002c220       ??0?$Array@U?$Vec4T@G@cloth@nv@@VNonTrackingAllocator@23@@shdfnd@physx@@QEAA@AEBV012@AEBVNonTrackingAllocator@cloth@nv@@@Z 000000018002d220 f i SwCloth.obj
 0001:0002c240       ??1?$Array@UIndexPair@cloth@nv@@VNonTrackingAllocator@23@@shdfnd@physx@@QEAA@XZ 000000018002d240 f i SwCloth.obj
 0001:0002c270       ??0?$Array@UIndexPair@cloth@nv@@VNonTrackingAllocator@23@@shdfnd@physx@@QEAA@AEBV012@AEBVNonTrackingAllocator@cloth@nv@@@Z 000000018002d270 f i SwCloth.obj
 0001:0002c290       ??0?$Array@UIndexPair@cloth@nv@@VNonTrackingAllocator@23@@shdfnd@physx@@QEAA@AEBVNonTrackingAllocator@cloth@nv@@@Z 000000018002d290 f i SwCloth.obj
 0001:0002c2a0       ??0?$Array@VPxVec3@physx@@VNonTrackingAllocator@cloth@nv@@@shdfnd@physx@@QEAA@AEBV012@AEBVNonTrackingAllocator@cloth@nv@@@Z 000000018002d2a0 f i SwCloth.obj
 0001:0002c2c0       ??0?$Array@VPxVec3@physx@@VNonTrackingAllocator@cloth@nv@@@shdfnd@physx@@QEAA@AEBVNonTrackingAllocator@cloth@nv@@@Z 000000018002d2c0 f i SwCloth.obj
 0001:0002c2d0       ??0?$ClothImpl@VSwCloth@cloth@nv@@@cloth@nv@@QEAA@XZ 000000018002d2d0 f i SwCloth.obj
 0001:0002c330       ?assign@?$Array@VPxVec4@physx@@VNonTrackingAllocator@cloth@nv@@@shdfnd@physx@@QEAAXPEBVPxVec4@3@0@Z 000000018002d330 f i SwCloth.obj
 0001:0002c370       ??4?$Array@VPxVec4@physx@@VNonTrackingAllocator@cloth@nv@@@shdfnd@physx@@QEAAAEAV012@AEBV012@@Z 000000018002d370 f i SwCloth.obj
 0001:0002c3d0       ??0?$Array@IVNonTrackingAllocator@cloth@nv@@@shdfnd@physx@@QEAA@AEBV012@AEBVNonTrackingAllocator@cloth@nv@@@Z 000000018002d3d0 f i SwCloth.obj
 0001:0002c3f0       ??_E?$ClothImpl@VSwCloth@cloth@nv@@@cloth@nv@@UEAAPEAXI@Z 000000018002d3f0 f i * CIL library *:* CIL module *
 0001:0002c3f0       ??_G?$ClothImpl@VSwCloth@cloth@nv@@@cloth@nv@@UEAAPEAXI@Z 000000018002d3f0 f i SwCloth.obj
 0001:0002c470       ?destroy@?$Array@UIndexPair@cloth@nv@@VNonTrackingAllocator@23@@shdfnd@physx@@KAXPEAUIndexPair@cloth@nv@@0@Z 000000018002d470 f i SwCloth.obj
 0001:0002c480       ?deallocate@?$Array@UIndexPair@cloth@nv@@VNonTrackingAllocator@23@@shdfnd@physx@@IEAAXPEAX@Z 000000018002d480 f i SwCloth.obj
 0001:0002c4a0       ?isInUserMemory@?$Array@UIndexPair@cloth@nv@@VNonTrackingAllocator@23@@shdfnd@physx@@QEBAIXZ 000000018002d4a0 f i SwCloth.obj
 0001:0002c4b0       ?capacity@?$Array@UIndexPair@cloth@nv@@VNonTrackingAllocator@23@@shdfnd@physx@@QEBAIXZ 000000018002d4b0 f i SwCloth.obj
 0001:0002c4c0       ??$?4VNonTrackingAllocator@cloth@nv@@@?$Array@VPxVec4@physx@@VNonTrackingAllocator@cloth@nv@@@shdfnd@physx@@QEAAAEAV012@AEBV012@@Z 000000018002d4c0 f i SwCloth.obj
 0001:0002c520       ?getFabric@?$ClothImpl@VSwCloth@cloth@nv@@@cloth@nv@@UEBAAEAVFabric@23@XZ 000000018002d520 f i SwCloth.obj
 0001:0002c530       ?getFactory@?$ClothImpl@VSwCloth@cloth@nv@@@cloth@nv@@UEBAAEAVFactory@23@XZ 000000018002d530 f i SwCloth.obj
 0001:0002c540       ?setTranslation@?$ClothImpl@VSwCloth@cloth@nv@@@cloth@nv@@UEAAXAEBVPxVec3@physx@@@Z 000000018002d540 f i SwCloth.obj
 0001:0002c5b0       ?setRotation@?$ClothImpl@VSwCloth@cloth@nv@@@cloth@nv@@UEAAXAEBVPxQuat@physx@@@Z 000000018002d5b0 f i SwCloth.obj
 0001:0002c660       ?getTranslation@?$ClothImpl@VSwCloth@cloth@nv@@@cloth@nv@@UEBAAEBVPxVec3@physx@@XZ 000000018002d660 f i SwCloth.obj
 0001:0002c670       ?getRotation@?$ClothImpl@VSwCloth@cloth@nv@@@cloth@nv@@UEBAAEBVPxQuat@physx@@XZ 000000018002d670 f i SwCloth.obj
 0001:0002c680       ?clearInertia@?$ClothImpl@VSwCloth@cloth@nv@@@cloth@nv@@UEAAXXZ 000000018002d680 f i SwCloth.obj
 0001:0002c720       ?teleport@?$ClothImpl@VSwCloth@cloth@nv@@@cloth@nv@@UEAAXAEBVPxVec3@physx@@@Z 000000018002d720 f i SwCloth.obj
 0001:0002c7a0       ?teleportToLocation@?$ClothImpl@VSwCloth@cloth@nv@@@cloth@nv@@UEAAXAEBVPxVec3@physx@@AEBVPxQuat@5@@Z 000000018002d7a0 f i SwCloth.obj
 0001:0002c820       ?ignoreVelocityDiscontinuity@?$ClothImpl@VSwCloth@cloth@nv@@@cloth@nv@@UEAAXXZ 000000018002d820 f i SwCloth.obj
 0001:0002c830       ?getPreviousIterationDt@?$ClothImpl@VSwCloth@cloth@nv@@@cloth@nv@@UEBAMXZ 000000018002d830 f i SwCloth.obj
 0001:0002c840       ?setGravity@?$ClothImpl@VSwCloth@cloth@nv@@@cloth@nv@@UEAAXAEBVPxVec3@physx@@@Z 000000018002d840 f i SwCloth.obj
 0001:0002c8a0       ?getGravity@?$ClothImpl@VSwCloth@cloth@nv@@@cloth@nv@@UEBA?AVPxVec3@physx@@XZ 000000018002d8a0 f i SwCloth.obj
 0001:0002c8c0       ?setDamping@?$ClothImpl@VSwCloth@cloth@nv@@@cloth@nv@@UEAAXAEBVPxVec3@physx@@@Z 000000018002d8c0 f i SwCloth.obj
 0001:0002c9d0       ?getDamping@?$ClothImpl@VSwCloth@cloth@nv@@@cloth@nv@@UEBA?AVPxVec3@physx@@XZ 000000018002d9d0 f i SwCloth.obj
 0001:0002ca20       ?setLinearDrag@?$ClothImpl@VSwCloth@cloth@nv@@@cloth@nv@@UEAAXAEBVPxVec3@physx@@@Z 000000018002da20 f i SwCloth.obj
 0001:0002cb30       ?getLinearDrag@?$ClothImpl@VSwCloth@cloth@nv@@@cloth@nv@@UEBA?AVPxVec3@physx@@XZ 000000018002db30 f i SwCloth.obj
 0001:0002cb80       ?setAngularDrag@?$ClothImpl@VSwCloth@cloth@nv@@@cloth@nv@@UEAAXAEBVPxVec3@physx@@@Z 000000018002db80 f i SwCloth.obj
 0001:0002cc90       ?getAngularDrag@?$ClothImpl@VSwCloth@cloth@nv@@@cloth@nv@@UEBA?AVPxVec3@physx@@XZ 000000018002dc90 f i SwCloth.obj
 0001:0002cce0       ?setLinearInertia@?$ClothImpl@VSwCloth@cloth@nv@@@cloth@nv@@UEAAXAEBVPxVec3@physx@@@Z 000000018002dce0 f i SwCloth.obj
 0001:0002cd40       ?getLinearInertia@?$ClothImpl@VSwCloth@cloth@nv@@@cloth@nv@@UEBA?AVPxVec3@physx@@XZ 000000018002dd40 f i SwCloth.obj
 0001:0002cd60       ?setAngularInertia@?$ClothImpl@VSwCloth@cloth@nv@@@cloth@nv@@UEAAXAEBVPxVec3@physx@@@Z 000000018002dd60 f i SwCloth.obj
 0001:0002cdc0       ?getAngularInertia@?$ClothImpl@VSwCloth@cloth@nv@@@cloth@nv@@UEBA?AVPxVec3@physx@@XZ 000000018002ddc0 f i SwCloth.obj
 0001:0002cde0       ?setCentrifugalInertia@?$ClothImpl@VSwCloth@cloth@nv@@@cloth@nv@@UEAAXAEBVPxVec3@physx@@@Z 000000018002dde0 f i SwCloth.obj
 0001:0002ce40       ?getCentrifugalInertia@?$ClothImpl@VSwCloth@cloth@nv@@@cloth@nv@@UEBA?AVPxVec3@physx@@XZ 000000018002de40 f i SwCloth.obj
 0001:0002ce60       ?setSolverFrequency@?$ClothImpl@VSwCloth@cloth@nv@@@cloth@nv@@UEAAXM@Z 000000018002de60 f i SwCloth.obj
 0001:0002ceb0       ?getSolverFrequency@?$ClothImpl@VSwCloth@cloth@nv@@@cloth@nv@@UEBAMXZ 000000018002deb0 f i SwCloth.obj
 0001:0002cec0       ?setStiffnessFrequency@?$ClothImpl@VSwCloth@cloth@nv@@@cloth@nv@@UEAAXM@Z 000000018002dec0 f i SwCloth.obj
 0001:0002cf00       ?getStiffnessFrequency@?$ClothImpl@VSwCloth@cloth@nv@@@cloth@nv@@UEBAMXZ 000000018002df00 f i SwCloth.obj
 0001:0002cf10       ?setAcceleationFilterWidth@?$ClothImpl@VSwCloth@cloth@nv@@@cloth@nv@@UEAAXI@Z 000000018002df10 f i SwCloth.obj
 0001:0002cf20       ?getAccelerationFilterWidth@?$ClothImpl@VSwCloth@cloth@nv@@@cloth@nv@@UEBAIXZ 000000018002df20 f i SwCloth.obj
 0001:0002cf30       ?setSpheres@?$ClothImpl@VSwCloth@cloth@nv@@@cloth@nv@@UEAAXU?$Range@$$CBVPxVec4@physx@@@23@II@Z 000000018002df30 f i SwCloth.obj
 0001:0002d3e0       ?getNumSpheres@?$ClothImpl@VSwCloth@cloth@nv@@@cloth@nv@@UEBAIXZ 000000018002e3e0 f i SwCloth.obj
 0001:0002d3f0       ?setCapsules@?$ClothImpl@VSwCloth@cloth@nv@@@cloth@nv@@UEAAXU?$Range@$$CBI@23@II@Z 000000018002e3f0 f i SwCloth.obj
 0001:0002d5d0       ?getNumCapsules@?$ClothImpl@VSwCloth@cloth@nv@@@cloth@nv@@UEBAIXZ 000000018002e5d0 f i SwCloth.obj
 0001:0002d5e0       ?setPlanes@?$ClothImpl@VSwCloth@cloth@nv@@@cloth@nv@@UEAAXU?$Range@$$CBVPxVec4@physx@@@23@II@Z 000000018002e5e0 f i SwCloth.obj
 0001:0002da90       ?getNumPlanes@?$ClothImpl@VSwCloth@cloth@nv@@@cloth@nv@@UEBAIXZ 000000018002ea90 f i SwCloth.obj
 0001:0002daa0       ?setConvexes@?$ClothImpl@VSwCloth@cloth@nv@@@cloth@nv@@UEAAXU?$Range@$$CBI@23@II@Z 000000018002eaa0 f i SwCloth.obj
 0001:0002dbe0       ?getNumConvexes@?$ClothImpl@VSwCloth@cloth@nv@@@cloth@nv@@UEBAIXZ 000000018002ebe0 f i SwCloth.obj
 0001:0002dbf0       ?setTriangles@?$ClothImpl@VSwCloth@cloth@nv@@@cloth@nv@@UEAAXU?$Range@$$CBVPxVec3@physx@@@23@0I@Z 000000018002ebf0 f i SwCloth.obj
 0001:0002de20       ?setTriangles@?$ClothImpl@VSwCloth@cloth@nv@@@cloth@nv@@UEAAXU?$Range@$$CBVPxVec3@physx@@@23@II@Z 000000018002ee20 f i SwCloth.obj
 0001:0002e280       ?getNumTriangles@?$ClothImpl@VSwCloth@cloth@nv@@@cloth@nv@@UEBAIXZ 000000018002f280 f i SwCloth.obj
 0001:0002e290       ?isContinuousCollisionEnabled@?$ClothImpl@VSwCloth@cloth@nv@@@cloth@nv@@UEBA_NXZ 000000018002f290 f i SwCloth.obj
 0001:0002e2a0       ?enableContinuousCollision@?$ClothImpl@VSwCloth@cloth@nv@@@cloth@nv@@UEAAX_N@Z 000000018002f2a0 f i SwCloth.obj
 0001:0002e2e0       ?getCollisionMassScale@?$ClothImpl@VSwCloth@cloth@nv@@@cloth@nv@@UEBAMXZ 000000018002f2e0 f i SwCloth.obj
 0001:0002e2f0       ?setCollisionMassScale@?$ClothImpl@VSwCloth@cloth@nv@@@cloth@nv@@UEAAXM@Z 000000018002f2f0 f i SwCloth.obj
 0001:0002e330       ?setFriction@?$ClothImpl@VSwCloth@cloth@nv@@@cloth@nv@@UEAAXM@Z 000000018002f330 f i SwCloth.obj
 0001:0002e340       ?getFriction@?$ClothImpl@VSwCloth@cloth@nv@@@cloth@nv@@UEBAMXZ 000000018002f340 f i SwCloth.obj
 0001:0002e350       ?getNumVirtualParticleWeights@?$ClothImpl@VSwCloth@cloth@nv@@@cloth@nv@@UEBAIXZ 000000018002f350 f i SwCloth.obj
 0001:0002e360       ?setTetherConstraintScale@?$ClothImpl@VSwCloth@cloth@nv@@@cloth@nv@@UEAAXM@Z 000000018002f360 f i SwCloth.obj
 0001:0002e3a0       ?getTetherConstraintScale@?$ClothImpl@VSwCloth@cloth@nv@@@cloth@nv@@UEBAMXZ 000000018002f3a0 f i SwCloth.obj
 0001:0002e3b0       ?setTetherConstraintStiffness@?$ClothImpl@VSwCloth@cloth@nv@@@cloth@nv@@UEAAXM@Z 000000018002f3b0 f i SwCloth.obj
 0001:0002e430       ?getTetherConstraintStiffness@?$ClothImpl@VSwCloth@cloth@nv@@@cloth@nv@@UEBAMXZ 000000018002f430 f i SwCloth.obj
 0001:0002e480       ?getMotionConstraints@?$ClothImpl@VSwCloth@cloth@nv@@@cloth@nv@@UEAA?AU?$Range@VPxVec4@physx@@@23@XZ 000000018002f480 f i SwCloth.obj
 0001:0002e4e0       ?clearMotionConstraints@?$ClothImpl@VSwCloth@cloth@nv@@@cloth@nv@@UEAAXXZ 000000018002f4e0 f i SwCloth.obj
 0001:0002e530       ?getNumMotionConstraints@?$ClothImpl@VSwCloth@cloth@nv@@@cloth@nv@@UEBAIXZ 000000018002f530 f i SwCloth.obj
 0001:0002e540       ?setMotionConstraintScaleBias@?$ClothImpl@VSwCloth@cloth@nv@@@cloth@nv@@UEAAXMM@Z 000000018002f540 f i SwCloth.obj
 0001:0002e5a0       ?getMotionConstraintScale@?$ClothImpl@VSwCloth@cloth@nv@@@cloth@nv@@UEBAMXZ 000000018002f5a0 f i SwCloth.obj
 0001:0002e5b0       ?getMotionConstraintBias@?$ClothImpl@VSwCloth@cloth@nv@@@cloth@nv@@UEBAMXZ 000000018002f5b0 f i SwCloth.obj
 0001:0002e5c0       ?setMotionConstraintStiffness@?$ClothImpl@VSwCloth@cloth@nv@@@cloth@nv@@UEAAXM@Z 000000018002f5c0 f i SwCloth.obj
 0001:0002e640       ?getMotionConstraintStiffness@?$ClothImpl@VSwCloth@cloth@nv@@@cloth@nv@@UEBAMXZ 000000018002f640 f i SwCloth.obj
 0001:0002e690       ?getSeparationConstraints@?$ClothImpl@VSwCloth@cloth@nv@@@cloth@nv@@UEAA?AU?$Range@VPxVec4@physx@@@23@XZ 000000018002f690 f i SwCloth.obj
 0001:0002e6f0       ?clearSeparationConstraints@?$ClothImpl@VSwCloth@cloth@nv@@@cloth@nv@@UEAAXXZ 000000018002f6f0 f i SwCloth.obj
 0001:0002e740       ?getNumSeparationConstraints@?$ClothImpl@VSwCloth@cloth@nv@@@cloth@nv@@UEBAIXZ 000000018002f740 f i SwCloth.obj
 0001:0002e750       ?clearInterpolation@?$ClothImpl@VSwCloth@cloth@nv@@@cloth@nv@@UEAAXXZ 000000018002f750 f i SwCloth.obj
 0001:0002e8a0       ?getNumParticleAccelerations@?$ClothImpl@VSwCloth@cloth@nv@@@cloth@nv@@UEBAIXZ 000000018002f8a0 f i SwCloth.obj
 0001:0002e8b0       ?setWindVelocity@?$ClothImpl@VSwCloth@cloth@nv@@@cloth@nv@@UEAAXVPxVec3@physx@@@Z 000000018002f8b0 f i SwCloth.obj
 0001:0002e930       ?getWindVelocity@?$ClothImpl@VSwCloth@cloth@nv@@@cloth@nv@@UEBA?AVPxVec3@physx@@XZ 000000018002f930 f i SwCloth.obj
 0001:0002e950       ?setDragCoefficient@?$ClothImpl@VSwCloth@cloth@nv@@@cloth@nv@@UEAAXM@Z 000000018002f950 f i SwCloth.obj
 0001:0002e9d0       ?getDragCoefficient@?$ClothImpl@VSwCloth@cloth@nv@@@cloth@nv@@UEBAMXZ 000000018002f9d0 f i SwCloth.obj
 0001:0002ea20       ?setLiftCoefficient@?$ClothImpl@VSwCloth@cloth@nv@@@cloth@nv@@UEAAXM@Z 000000018002fa20 f i SwCloth.obj
 0001:0002eaa0       ?getLiftCoefficient@?$ClothImpl@VSwCloth@cloth@nv@@@cloth@nv@@UEBAMXZ 000000018002faa0 f i SwCloth.obj
 0001:0002eaf0       ?setFluidDensity@?$ClothImpl@VSwCloth@cloth@nv@@@cloth@nv@@UEAAXM@Z 000000018002faf0 f i SwCloth.obj
 0001:0002eb30       ?getFluidDensity@?$ClothImpl@VSwCloth@cloth@nv@@@cloth@nv@@UEBAMXZ 000000018002fb30 f i SwCloth.obj
 0001:0002eb40       ?setSelfCollisionDistance@?$ClothImpl@VSwCloth@cloth@nv@@@cloth@nv@@UEAAXM@Z 000000018002fb40 f i SwCloth.obj
 0001:0002eb80       ?getSelfCollisionDistance@?$ClothImpl@VSwCloth@cloth@nv@@@cloth@nv@@UEBAMXZ 000000018002fb80 f i SwCloth.obj
 0001:0002eb90       ?setSelfCollisionStiffness@?$ClothImpl@VSwCloth@cloth@nv@@@cloth@nv@@UEAAXM@Z 000000018002fb90 f i SwCloth.obj
 0001:0002ec10       ?getSelfCollisionStiffness@?$ClothImpl@VSwCloth@cloth@nv@@@cloth@nv@@UEBAMXZ 000000018002fc10 f i SwCloth.obj
 0001:0002ec60       ?getNumSelfCollisionIndices@?$ClothImpl@VSwCloth@cloth@nv@@@cloth@nv@@UEBAIXZ 000000018002fc60 f i SwCloth.obj
 0001:0002ec70       ?setRestPositions@?$ClothImpl@VSwCloth@cloth@nv@@@cloth@nv@@UEAAXU?$Range@$$CBVPxVec4@physx@@@23@@Z 000000018002fc70 f i SwCloth.obj
 0001:0002ed00       ?getNumRestPositions@?$ClothImpl@VSwCloth@cloth@nv@@@cloth@nv@@UEBAIXZ 000000018002fd00 f i SwCloth.obj
 0001:0002ed10       ?getBoundingBoxCenter@?$ClothImpl@VSwCloth@cloth@nv@@@cloth@nv@@UEBAAEBVPxVec3@physx@@XZ 000000018002fd10 f i SwCloth.obj
 0001:0002ed20       ?getBoundingBoxScale@?$ClothImpl@VSwCloth@cloth@nv@@@cloth@nv@@UEBAAEBVPxVec3@physx@@XZ 000000018002fd20 f i SwCloth.obj
 0001:0002ed30       ?setSleepThreshold@?$ClothImpl@VSwCloth@cloth@nv@@@cloth@nv@@UEAAXM@Z 000000018002fd30 f i SwCloth.obj
 0001:0002ed70       ?getSleepThreshold@?$ClothImpl@VSwCloth@cloth@nv@@@cloth@nv@@UEBAMXZ 000000018002fd70 f i SwCloth.obj
 0001:0002ed80       ?setSleepTestInterval@?$ClothImpl@VSwCloth@cloth@nv@@@cloth@nv@@UEAAXI@Z 000000018002fd80 f i SwCloth.obj
 0001:0002edc0       ?getSleepTestInterval@?$ClothImpl@VSwCloth@cloth@nv@@@cloth@nv@@UEBAIXZ 000000018002fdc0 f i SwCloth.obj
 0001:0002edd0       ?setSleepAfterCount@?$ClothImpl@VSwCloth@cloth@nv@@@cloth@nv@@UEAAXI@Z 000000018002fdd0 f i SwCloth.obj
 0001:0002ee10       ?getSleepAfterCount@?$ClothImpl@VSwCloth@cloth@nv@@@cloth@nv@@UEBAIXZ 000000018002fe10 f i SwCloth.obj
 0001:0002ee20       ?getSleepPassCount@?$ClothImpl@VSwCloth@cloth@nv@@@cloth@nv@@UEBAIXZ 000000018002fe20 f i SwCloth.obj
 0001:0002ee30       ?isAsleep@?$ClothImpl@VSwCloth@cloth@nv@@@cloth@nv@@UEBA_NXZ 000000018002fe30 f i SwCloth.obj
 0001:0002ee70       ?putToSleep@?$ClothImpl@VSwCloth@cloth@nv@@@cloth@nv@@UEAAXXZ 000000018002fe70 f i SwCloth.obj
 0001:0002ee80       ?isSleeping@?$ClothImpl@VSwCloth@cloth@nv@@@cloth@nv@@UEBA_NXZ 000000018002fe80 f i SwCloth.obj
 0001:0002ee90       ?wakeUp@?$ClothImpl@VSwCloth@cloth@nv@@@cloth@nv@@UEAAXXZ 000000018002fe90 f i SwCloth.obj
 0001:0002eea0       ?setUserData@?$ClothImpl@VSwCloth@cloth@nv@@@cloth@nv@@UEAAXPEAX@Z 000000018002fea0 f i SwCloth.obj
 0001:0002eeb0       ?getUserData@?$ClothImpl@VSwCloth@cloth@nv@@@cloth@nv@@UEBAPEAXXZ 000000018002feb0 f i SwCloth.obj
 0001:0002eec0       ?resize@?$Array@UPhaseConfig@cloth@nv@@VNonTrackingAllocator@23@@shdfnd@physx@@QEAAXIAEBUPhaseConfig@cloth@nv@@@Z 000000018002fec0 f i SwCloth.obj
 0001:0002ef10       ??$initialize@VSwCloth@cloth@nv@@@cloth@nv@@YAXAEAVSwCloth@01@PEBVPxVec4@physx@@1@Z 000000018002ff10 f i SwCloth.obj
 0001:0002f2c0       ??$copy@VSwCloth@cloth@nv@@V123@@cloth@nv@@YAXAEAVSwCloth@01@AEBV201@@Z 00000001800302c0 f i SwCloth.obj
 0001:0002f5a0       ??$getMappedParticles@VPxVec4@physx@@@?$ClothImpl@VSwCloth@cloth@nv@@@cloth@nv@@QEBA?AU?$MappedRange@VPxVec4@physx@@@12@PEAVPxVec4@physx@@@Z 00000001800305a0 f i SwCloth.obj
 0001:0002f630       ??$getMappedParticles@$$CBVPxVec4@physx@@@?$ClothImpl@VSwCloth@cloth@nv@@@cloth@nv@@QEBA?AU?$MappedRange@$$CBVPxVec4@physx@@@12@PEBVPxVec4@physx@@@Z 0000000180030630 f i SwCloth.obj
 0001:0002f6c0       ??$swap@PEAU?$Vec4T@G@cloth@nv@@@shdfnd@physx@@YAXAEAPEAU?$Vec4T@G@cloth@nv@@0@Z 00000001800306c0 f i SwCloth.obj
 0001:0002f6d0       ??$copy@VNonTrackingAllocator@cloth@nv@@@?$Array@U?$Vec4T@G@cloth@nv@@VNonTrackingAllocator@23@@shdfnd@physx@@IEAAXAEBV012@@Z 00000001800306d0 f i SwCloth.obj
 0001:0002f770       ??$copy@VNonTrackingAllocator@cloth@nv@@@?$Array@UIndexPair@cloth@nv@@VNonTrackingAllocator@23@@shdfnd@physx@@IEAAXAEBV012@@Z 0000000180030770 f i SwCloth.obj
 0001:0002f810       ??$copy@VNonTrackingAllocator@cloth@nv@@@?$Array@VPxVec3@physx@@VNonTrackingAllocator@cloth@nv@@@shdfnd@physx@@IEAAXAEBV012@@Z 0000000180030810 f i SwCloth.obj
 0001:0002f8a0       ??$copy@VNonTrackingAllocator@cloth@nv@@@?$Array@IVNonTrackingAllocator@cloth@nv@@@shdfnd@physx@@IEAAXAEBV012@@Z 00000001800308a0 f i SwCloth.obj
 0001:0002f940       ?create@?$Array@UPhaseConfig@cloth@nv@@VNonTrackingAllocator@23@@shdfnd@physx@@KAXPEAUPhaseConfig@cloth@nv@@0AEBU456@@Z 0000000180030940 f i SwCloth.obj
 0001:0002f970       ?copy@?$Array@UIndexPair@cloth@nv@@VNonTrackingAllocator@23@@shdfnd@physx@@KAXPEAUIndexPair@cloth@nv@@0PEBU456@@Z 0000000180030970 f i SwCloth.obj
 0001:0002f990       ?allocate@?$Array@UIndexPair@cloth@nv@@VNonTrackingAllocator@23@@shdfnd@physx@@IEAAPEAUIndexPair@cloth@nv@@I@Z 0000000180030990 f i SwCloth.obj
 0001:0002f9e0       ?reserve@?$Array@UIndexPair@cloth@nv@@VNonTrackingAllocator@23@@shdfnd@physx@@QEAAXI@Z 00000001800309e0 f i SwCloth.obj
 0001:0002f9f0       ?replaceWithLast@?$Array@UIndexPair@cloth@nv@@VNonTrackingAllocator@23@@shdfnd@physx@@QEAAXPEAUIndexPair@cloth@nv@@@Z 00000001800309f0 f i SwCloth.obj
 0001:0002fa10       ?empty@?$Array@UIndexPair@cloth@nv@@VNonTrackingAllocator@23@@shdfnd@physx@@QEBA_NXZ 0000000180030a10 f i SwCloth.obj
 0001:0002fa20       ?size@?$Array@UIndexPair@cloth@nv@@VNonTrackingAllocator@23@@shdfnd@physx@@QEBAIXZ 0000000180030a20 f i SwCloth.obj
 0001:0002fa30       ?end@?$Array@UIndexPair@cloth@nv@@VNonTrackingAllocator@23@@shdfnd@physx@@QEAAPEAUIndexPair@cloth@nv@@XZ 0000000180030a30 f i SwCloth.obj
 0001:0002fa40       ?begin@?$Array@UIndexPair@cloth@nv@@VNonTrackingAllocator@23@@shdfnd@physx@@QEAAPEAUIndexPair@cloth@nv@@XZ 0000000180030a40 f i SwCloth.obj
 0001:0002fa50       ?begin@?$Array@UIndexPair@cloth@nv@@VNonTrackingAllocator@23@@shdfnd@physx@@QEBAPEBUIndexPair@cloth@nv@@XZ 0000000180030a50 f i SwCloth.obj
 0001:0002fa60       ??A?$Array@UIndexPair@cloth@nv@@VNonTrackingAllocator@23@@shdfnd@physx@@QEAAAEAUIndexPair@cloth@nv@@I@Z 0000000180030a60 f i SwCloth.obj
 0001:0002fa70       ?assign@?$Array@VPxVec3@physx@@VNonTrackingAllocator@cloth@nv@@@shdfnd@physx@@QEAAXPEBVPxVec3@3@0@Z 0000000180030a70 f i SwCloth.obj
 0001:0002fad0       ?pushBack@?$Array@VPxVec3@physx@@VNonTrackingAllocator@cloth@nv@@@shdfnd@physx@@QEAAAEAVPxVec3@3@AEBV43@@Z 0000000180030ad0 f i SwCloth.obj
 0001:0002fb30       ?begin@?$Array@VPxVec3@physx@@VNonTrackingAllocator@cloth@nv@@@shdfnd@physx@@QEAAPEAVPxVec3@3@XZ 0000000180030b30 f i SwCloth.obj
 0001:0002fb40       ?begin@?$Array@VPxVec3@physx@@VNonTrackingAllocator@cloth@nv@@@shdfnd@physx@@QEBAPEBVPxVec3@3@XZ 0000000180030b40 f i SwCloth.obj
 0001:0002fb50       ??A?$Array@VPxVec3@physx@@VNonTrackingAllocator@cloth@nv@@@shdfnd@physx@@QEAAAEAVPxVec3@2@I@Z 0000000180030b50 f i SwCloth.obj
 0001:0002fb60       ?getChildCloth@?$ClothImpl@VSwCloth@cloth@nv@@@cloth@nv@@QEBAPEBVSwCloth@23@XZ 0000000180030b60 f i SwCloth.obj
 0001:0002fb70       ?getChildCloth@?$ClothImpl@VSwCloth@cloth@nv@@@cloth@nv@@QEAAPEAVSwCloth@23@XZ 0000000180030b70 f i SwCloth.obj
 0001:0002fb80       ?clear@?$Array@VPxVec4@physx@@VNonTrackingAllocator@cloth@nv@@@shdfnd@physx@@QEAAXXZ 0000000180030b80 f i SwCloth.obj
 0001:0002fb90       ??A?$Array@VPxVec4@physx@@VNonTrackingAllocator@cloth@nv@@@shdfnd@physx@@QEAAAEAVPxVec4@2@I@Z 0000000180030b90 f i SwCloth.obj
 0001:0002fba0       ?replaceWithLast@?$Array@IVNonTrackingAllocator@cloth@nv@@@shdfnd@physx@@QEAAXPEAI@Z 0000000180030ba0 f i SwCloth.obj
 0001:0002fbc0       ?grow@?$Array@UIndexPair@cloth@nv@@VNonTrackingAllocator@23@@shdfnd@physx@@IEAAXI@Z 0000000180030bc0 f i SwCloth.obj
 0001:0002fbd0       ?replaceWithLast@?$Array@UIndexPair@cloth@nv@@VNonTrackingAllocator@23@@shdfnd@physx@@QEAAXI@Z 0000000180030bd0 f i SwCloth.obj
 0001:0002fbf0       ?end@?$Array@VPxVec3@physx@@VNonTrackingAllocator@cloth@nv@@@shdfnd@physx@@QEAAPEAVPxVec3@3@XZ 0000000180030bf0 f i SwCloth.obj
 0001:0002fc00       ?replaceWithLast@?$Array@IVNonTrackingAllocator@cloth@nv@@@shdfnd@physx@@QEAAXI@Z 0000000180030c00 f i SwCloth.obj
 0001:0002fc20       ?resizeUninitialized@?$Array@VPxVec3@physx@@VNonTrackingAllocator@cloth@nv@@@shdfnd@physx@@QEAAXI@Z 0000000180030c20 f i SwCloth.obj
 0001:0002fc60       ?growAndPushBack@?$Array@VPxVec3@physx@@VNonTrackingAllocator@cloth@nv@@@shdfnd@physx@@IEAAAEAVPxVec3@3@AEBV43@@Z 0000000180030c60 f i SwCloth.obj
 0001:0002fd50       ?resize@?$Array@UIndexPair@cloth@nv@@VNonTrackingAllocator@23@@shdfnd@physx@@QEAAXIAEBUIndexPair@cloth@nv@@@Z 0000000180030d50 f i SwCloth.obj
 0001:0002fdc0       ?recreate@?$Array@UIndexPair@cloth@nv@@VNonTrackingAllocator@23@@shdfnd@physx@@IEAAXI@Z 0000000180030dc0 f i SwCloth.obj
 0001:0002fe70       ??$swap@VPxVec4@physx@@VNonTrackingAllocator@cloth@nv@@@shdfnd@physx@@YAXAEAV?$Array@VPxVec4@physx@@VNonTrackingAllocator@cloth@nv@@@01@0@Z 0000000180030e70 f i SwCloth.obj
 0001:0002fea0       ?create@?$Array@UIndexPair@cloth@nv@@VNonTrackingAllocator@23@@shdfnd@physx@@KAXPEAUIndexPair@cloth@nv@@0AEBU456@@Z 0000000180030ea0 f i SwCloth.obj
 0001:0002fec0       ?capacityIncrement@?$Array@VPxVec3@physx@@VNonTrackingAllocator@cloth@nv@@@shdfnd@physx@@IEBAIXZ 0000000180030ec0 f i SwCloth.obj
 0001:0002fee0       ?front@?$Array@UPhaseConfig@cloth@nv@@VNonTrackingAllocator@23@@shdfnd@physx@@QEAAAEAUPhaseConfig@cloth@nv@@XZ 0000000180030ee0 f i SwClothData.obj
 0001:0002fef0       ?front@?$Array@UIndexPair@cloth@nv@@VNonTrackingAllocator@23@@shdfnd@physx@@QEAAAEAUIndexPair@cloth@nv@@XZ 0000000180030ef0 f i SwClothData.obj
 0001:0002ff00       ?size@?$Array@USwTether@cloth@nv@@VNonTrackingAllocator@23@@shdfnd@physx@@QEBAIXZ 0000000180030f00 f i SwClothData.obj
 0001:0002ff10       ?begin@?$Array@USwTether@cloth@nv@@VNonTrackingAllocator@23@@shdfnd@physx@@QEBAPEBUSwTether@cloth@nv@@XZ 0000000180030f10 f i SwClothData.obj
 0001:0002ff20       ?size@?$Array@GVNonTrackingAllocator@cloth@nv@@@shdfnd@physx@@QEBAIXZ 0000000180030f20 f i SwClothData.obj
 0001:0002ff30       ?front@?$Array@GVNonTrackingAllocator@cloth@nv@@@shdfnd@physx@@QEBAAEBGXZ 0000000180030f30 f i SwClothData.obj
 0001:0002ff40       ?begin@?$Array@GVNonTrackingAllocator@cloth@nv@@@shdfnd@physx@@QEBAPEBGXZ 0000000180030f40 f i SwClothData.obj
 0001:0002ff50       ?front@?$Array@IVNonTrackingAllocator@cloth@nv@@@shdfnd@physx@@QEAAAEAIXZ 0000000180030f50 f i SwClothData.obj
 0001:0002ff60       ?empty@?$Array@MV?$AlignedAllocator@$0CA@VNonTrackingAllocator@cloth@nv@@@shdfnd@physx@@@shdfnd@physx@@QEBA_NXZ 0000000180030f60 f i SwClothData.obj
 0001:0002ff70       ?size@?$Array@MV?$AlignedAllocator@$0CA@VNonTrackingAllocator@cloth@nv@@@shdfnd@physx@@@shdfnd@physx@@QEBAIXZ 0000000180030f70 f i SwClothData.obj
 0001:0002ff80       ?front@?$Array@MV?$AlignedAllocator@$0CA@VNonTrackingAllocator@cloth@nv@@@shdfnd@physx@@@shdfnd@physx@@QEBAAEBMXZ 0000000180030f80 f i SwClothData.obj
 0001:0002ff90       ??0NvClothProfileScoped@cloth@nv@@QEAA@PEBD_N_K0HPEAVPxProfilerCallback@physx@@@Z 0000000180030f90 f i SwCollision.obj
 0001:0002ffd0       ??1NvClothProfileScoped@cloth@nv@@QEAA@XZ 0000000180030fd0 f i SwCollision.obj
 0001:00030010       ??0Simd4fAlignedLoadFactory@cloth@nv@@QEAA@PEBM@Z 0000000180031010 f i SwCollision.obj
 0001:00030020       ??0Simd4fOffsetLoadFactory@cloth@nv@@QEAA@PEBMI@Z 0000000180031020 f i SwCollision.obj
 0001:00030030       ?loadAligned@cloth@nv@@YA?AUSimd4fAlignedLoadFactory@12@PEBM@Z 0000000180031030 f i SwCollision.obj
 0001:00030040       ?loadAligned@cloth@nv@@YA?AUSimd4fOffsetLoadFactory@12@PEBMI@Z 0000000180031040 f i SwCollision.obj
 0001:00030050       ??BSimd4fAlignedLoadFactory@cloth@nv@@QEBA?AT__m128@@XZ 0000000180031050 f i SwCollision.obj
 0001:00030060       ??BSimd4fOffsetLoadFactory@cloth@nv@@QEBA?AT__m128@@XZ 0000000180031060 f i SwCollision.obj
 0001:00030070       ??$?IT__m128@@@cloth@nv@@YA?AT__m128@@AEBT2@AEBU?$ComplementExpr@T__m128@@@01@@Z 0000000180031070 f i SwCollision.obj
 0001:00030080       ??8cloth@nv@@YA?AT__m128@@AEBT2@0@Z 0000000180031080 f i SwCollision.obj
 0001:00030090       ??Mcloth@nv@@YA?AT__m128@@AEBT2@0@Z 0000000180031090 f i SwCollision.obj
 0001:000300a0       ??Ocloth@nv@@YA?AT__m128@@AEBT2@0@Z 00000001800310a0 f i SwCollision.obj
 0001:000300b0       ??Pcloth@nv@@YA?AT__m128@@AEBT2@0@Z 00000001800310b0 f i SwCollision.obj
 0001:000300c0       ??Scloth@nv@@YA?AU?$ComplementExpr@T__m128@@@01@AEBT__m128@@@Z 00000001800310c0 f i SwCollision.obj
 0001:000300d0       ??Ucloth@nv@@YA?AT__m128@@AEBT2@0@Z 00000001800310d0 f i SwCollision.obj
 0001:000300e0       ?simd4f@cloth@nv@@YA?AT__m128@@AEBT__m128i@@@Z 00000001800310e0 f i SwCollision.obj
 0001:000300f0       ?store@cloth@nv@@YAXPEAMAEBT__m128@@@Z 00000001800310f0 f i SwCollision.obj
 0001:00030100       ?storeAligned@cloth@nv@@YAXPEAMAEBT__m128@@@Z 0000000180031100 f i SwCollision.obj
 0001:00030110       ?storeAligned@cloth@nv@@YAXPEAMIAEBT__m128@@@Z 0000000180031110 f i SwCollision.obj
 0001:00030120       ?abs@cloth@nv@@YA?AT__m128@@AEBT3@@Z 0000000180031120 f i SwCollision.obj
 0001:00030130       ?sqrt@cloth@nv@@YA?AT__m128@@AEBT3@@Z 0000000180031130 f i SwCollision.obj
 0001:00030140       ?cross3@cloth@nv@@YA?AT__m128@@AEBT3@0@Z 0000000180031140 f i SwCollision.obj
 0001:00030160       ?transpose@cloth@nv@@YAXAEAT__m128@@000@Z 0000000180031160 f i SwCollision.obj
 0001:000301b0       ?allEqual@cloth@nv@@YAHAEBT__m128@@0@Z 00000001800311b0 f i SwCollision.obj
 0001:000301d0       ?anyGreater@cloth@nv@@YAHAEBT__m128@@0AEAT3@@Z 00000001800311d0 f i SwCollision.obj
 0001:000301e0       ?allGreaterEqual@cloth@nv@@YAHAEBT__m128@@0@Z 00000001800311e0 f i SwCollision.obj
 0001:00030200       ?allTrue@cloth@nv@@YAHAEBT__m128@@@Z 0000000180031200 f i SwCollision.obj
 0001:00030210       ?anyTrue@cloth@nv@@YAHAEBT__m128@@@Z 0000000180031210 f i SwCollision.obj
 0001:00030220       ??0Simd4iOffsetLoadFactory@cloth@nv@@QEAA@PEBHI@Z 0000000180031220 f i SwCollision.obj
 0001:00030230       ?loadAligned@cloth@nv@@YA?AUSimd4iOffsetLoadFactory@12@PEBHI@Z 0000000180031230 f i SwCollision.obj
 0001:00030240       ??BSimd4iZeroFactory@cloth@nv@@QEBA?AT__m128i@@XZ 0000000180031240 f i SwCollision.obj
 0001:00030250       ??BSimd4iScalarFactory@cloth@nv@@QEBA?AT__m128i@@XZ 0000000180031250 f i SwCollision.obj
 0001:00030270       ??BSimd4iOffsetLoadFactory@cloth@nv@@QEBA?AT__m128i@@XZ 0000000180031270 f i SwCollision.obj
 0001:00030290       ??$?IT__m128i@@@cloth@nv@@YA?AT__m128i@@AEBT2@AEBU?$ComplementExpr@T__m128i@@@01@@Z 0000000180031290 f i SwCollision.obj
 0001:000302a0       ??8cloth@nv@@YA?AT__m128i@@AEBT2@0@Z 00000001800312a0 f i SwCollision.obj
 0001:000302b0       ??Ocloth@nv@@YA?AT__m128i@@AEBT2@0@Z 00000001800312b0 f i SwCollision.obj
 0001:000302c0       ??Scloth@nv@@YA?AU?$ComplementExpr@T__m128i@@@01@AEBT__m128i@@@Z 00000001800312c0 f i SwCollision.obj
 0001:000302d0       ??Icloth@nv@@YA?AT__m128i@@AEBT2@0@Z 00000001800312d0 f i SwCollision.obj
 0001:000302e0       ??Ucloth@nv@@YA?AT__m128i@@AEBT2@0@Z 00000001800312e0 f i SwCollision.obj
 0001:000302f0       ??Tcloth@nv@@YA?AT__m128i@@AEBT2@0@Z 00000001800312f0 f i SwCollision.obj
 0001:00030300       ??6cloth@nv@@YA?AT__m128i@@AEBT2@H@Z 0000000180031300 f i SwCollision.obj
 0001:00030310       ??Gcloth@nv@@YA?AT__m128i@@AEBT2@0@Z 0000000180031310 f i SwCollision.obj
 0001:00030320       ?simd4i@cloth@nv@@YA?AT__m128i@@AEBT__m128@@@Z 0000000180031320 f i SwCollision.obj
 0001:00030330       ?array@cloth@nv@@YAAEAY03HAEAT__m128i@@@Z 0000000180031330 f i SwCollision.obj
 0001:00030340       ?select@cloth@nv@@YA?AT__m128i@@AEBT3@00@Z 0000000180031340 f i SwCollision.obj
 0001:00030360       ?allEqual@cloth@nv@@YAHAEBT__m128i@@0@Z 0000000180031360 f i SwCollision.obj
 0001:00030380       ?anyEqual@cloth@nv@@YAHAEBT__m128i@@0AEAT3@@Z 0000000180031380 f i SwCollision.obj
 0001:000303a0       ?allTrue@cloth@nv@@YAHAEBT__m128i@@@Z 00000001800313a0 f i SwCollision.obj
 0001:000303b0       ?anyTrue@cloth@nv@@YAHAEBT__m128i@@@Z 00000001800313b0 f i SwCollision.obj
 0001:000303c0       ?findBitSet@cloth@nv@@YAII@Z 00000001800313c0 f i SwCollision.obj
 0001:000303d0       ?intFloor@cloth@nv@@YA?AT__m128i@@AEBT__m128@@@Z 00000001800313d0 f i SwCollision.obj
 0001:000303f0       ?horizontalOr@cloth@nv@@YA?AT__m128i@@AEBT3@@Z 00000001800313f0 f i SwCollision.obj
 0001:00030410       ??0?$Gather@T__m128i@@@cloth@nv@@QEAA@AEBT__m128i@@@Z 0000000180031410 f i SwCollision.obj
 0001:00030470       ??R?$Gather@T__m128i@@@cloth@nv@@QEBA?AT__m128i@@PEBT3@@Z 0000000180031470 f i SwCollision.obj
 0001:00030540       ?subtract@ImpulseAccumulator@?$SwCollision@T__m128@@@cloth@nv@@QEAAXAEBT__m128@@0000@Z 0000000180031540 f i SwCollision.obj
 0001:000305a0       ?addVelocity@ImpulseAccumulator@?$SwCollision@T__m128@@@cloth@nv@@QEAAXAEBT__m128@@000@Z 00000001800315a0 f i SwCollision.obj
 0001:000305e0       ?add@ImpulseAccumulator@?$SwCollision@T__m128@@@cloth@nv@@QEAAXAEBT__m128@@0000@Z 00000001800315e0 f i SwCollision.obj
 0001:00030630       ??0ImpulseAccumulator@?$SwCollision@T__m128@@@cloth@nv@@QEAA@XZ 0000000180031630 f i SwCollision.obj
 0001:00030660       ??0?$ComplementExpr@T__m128i@@@cloth@nv@@QEAA@AEBT__m128i@@@Z 0000000180031660 f i SwCollision.obj
 0001:00030670       ??0?$ComplementExpr@T__m128@@@cloth@nv@@QEAA@AEBT__m128@@@Z 0000000180031670 f i SwCollision.obj
 0001:00030680       ??$PX_UNUSED@PEBD@@YAXAEBQEBD@Z 0000000180031680 f i SwCollision.obj
 0001:00030690       ??0?$SwCollision@T__m128@@@cloth@nv@@QEAA@AEAUSwClothData@12@AEAV?$StackAllocator@$0BA@@12@@Z 0000000180031690 f i SwCollision.obj
 0001:00030770       ??1?$SwCollision@T__m128@@@cloth@nv@@QEAA@XZ 0000000180031770 f i SwCollision.obj
 0001:000307a0       ??R?$SwCollision@T__m128@@@cloth@nv@@QEAAXAEBU?$IterationState@T__m128@@@12@@Z 00000001800317a0 f i SwCollision.obj
 0001:00030970       ?estimateTemporaryMemory@?$SwCollision@T__m128@@@cloth@nv@@SA_KAEBVSwCloth@23@@Z 0000000180031970 f i SwCollision.obj
 0001:00030990       ?estimatePersistentMemory@?$SwCollision@T__m128@@@cloth@nv@@SA_KAEBVSwCloth@23@@Z 0000000180031990 f i SwCollision.obj
 0001:000309b0       ?allocate@?$SwCollision@T__m128@@@cloth@nv@@AEAAXAEAUCollisionData@123@@Z 00000001800319b0 f i SwCollision.obj
 0001:00030aa0       ?deallocate@?$SwCollision@T__m128@@@cloth@nv@@AEAAXAEBUCollisionData@123@@Z 0000000180031aa0 f i SwCollision.obj
 0001:00030b20       ?computeBounds@?$SwCollision@T__m128@@@cloth@nv@@AEAAXXZ 0000000180031b20 f i SwCollision.obj
 0001:00030c50       ?buildSphereAcceleration@?$SwCollision@T__m128@@@cloth@nv@@AEAAXPEBUSphereData@23@@Z 0000000180031c50 f i SwCollision.obj
 0001:00030d70       ?buildConeAcceleration@?$SwCollision@T__m128@@@cloth@nv@@AEAAXXZ 0000000180031d70 f i SwCollision.obj
 0001:00030e10       ?mergeAcceleration@?$SwCollision@T__m128@@@cloth@nv@@CAXPEAI@Z 0000000180031e10 f i SwCollision.obj
 0001:00030ec0       ?buildAcceleration@?$SwCollision@T__m128@@@cloth@nv@@AEAA_NXZ 0000000180031ec0 f i SwCollision.obj
 0001:000310a0       ?getShapeMask@?$SwCollision@T__m128@@@cloth@nv@@AEBA?AUShapeMask@123@PEBT__m128@@0@Z 00000001800320a0 f i SwCollision.obj
 0001:00031ba0       ?getShapeMask@?$SwCollision@T__m128@@@cloth@nv@@AEBA?AUShapeMask@123@PEBT__m128@@@Z 0000000180032ba0 f i SwCollision.obj
 0001:00032130       ?getShapeMask@?$SwCollision@T__m128@@@cloth@nv@@CA?AUShapeMask@123@AEBT__m128@@PEBT__m128i@@1@Z 0000000180033130 f i SwCollision.obj
 0001:00032310       ?collideSpheres@?$SwCollision@T__m128@@@cloth@nv@@AEBAXAEBT__m128i@@PEBT__m128@@PEAT5@AEAUImpulseAccumulator@123@@Z 0000000180033310 f i SwCollision.obj
 0001:00032800       ?collideSpheres@?$SwCollision@T__m128@@@cloth@nv@@AEBAXAEBT__m128i@@PEBT__m128@@AEAUImpulseAccumulator@123@@Z 0000000180033800 f i SwCollision.obj
 0001:000329c0       ?collideCones@?$SwCollision@T__m128@@@cloth@nv@@AEBA?AT__m128i@@PEBT__m128@@PEAT5@AEAUImpulseAccumulator@123@@Z 00000001800339c0 f i SwCollision.obj
 0001:00033e80       ?collideCones@?$SwCollision@T__m128@@@cloth@nv@@AEBA?AT__m128i@@PEBT__m128@@AEAUImpulseAccumulator@123@@Z 0000000180034e80 f i SwCollision.obj
 0001:000347a0       ?collideParticles@?$SwCollision@T__m128@@@cloth@nv@@AEAAXXZ 00000001800357a0 f i SwCollision.obj
 0001:000359d0       ?collideVirtualParticles@?$SwCollision@T__m128@@@cloth@nv@@AEAAXXZ 00000001800369d0 f i SwCollision.obj
 0001:000377c0       ?collideContinuousParticles@?$SwCollision@T__m128@@@cloth@nv@@AEAAXXZ 00000001800387c0 f i SwCollision.obj
 0001:000395b0       ?collideConvexes@?$SwCollision@T__m128@@@cloth@nv@@AEAAXPEBT__m128@@PEAT4@AEAUImpulseAccumulator@123@@Z 000000018003a5b0 f i SwCollision.obj
 0001:00039820       ?collideConvexes@?$SwCollision@T__m128@@@cloth@nv@@AEAAXAEBU?$IterationState@T__m128@@@23@@Z 000000018003a820 f i SwCollision.obj
 0001:00039e40       ?collideTriangles@?$SwCollision@T__m128@@@cloth@nv@@AEAAXPEBUTriangleData@23@PEAT__m128@@AEAUImpulseAccumulator@123@@Z 000000018003ae40 f i SwCollision.obj
 0001:0003a2d0       ?collideTriangles@?$SwCollision@T__m128@@@cloth@nv@@AEAAXAEBU?$IterationState@T__m128@@@23@@Z 000000018003b2d0 f i SwCollision.obj
 0001:0003a600       ??4ShapeMask@?$SwCollision@T__m128@@@cloth@nv@@QEAAAEAU0123@AEBU0123@@Z 000000018003b600 f i SwCollision.obj
 0001:0003a620       ??_4ShapeMask@?$SwCollision@T__m128@@@cloth@nv@@QEAAAEAU0123@AEBU0123@@Z 000000018003b620 f i SwCollision.obj
 0001:0003a640       ??0CollisionData@?$SwCollision@T__m128@@@cloth@nv@@QEAA@XZ 000000018003b640 f i SwCollision.obj
 0001:0003a650       ??$splat@$00@cloth@nv@@YA?AT__m128i@@AEBT2@@Z 000000018003b650 f i SwCollision.obj
 0001:0003a660       ??$splat@$0A@@cloth@nv@@YA?AT__m128i@@AEBT2@@Z 000000018003b660 f i SwCollision.obj
 0001:0003a670       ??$splat@$02@cloth@nv@@YA?AT__m128i@@AEBT2@@Z 000000018003b670 f i SwCollision.obj
 0001:0003a680       ??$splat@$01@cloth@nv@@YA?AT__m128i@@AEBT2@@Z 000000018003b680 f i SwCollision.obj
 0001:0003a690       ??0?$LerpIterator@T__m128@@V?$UnalignedIterator@T__m128@@$02@cloth@nv@@@cloth@nv@@QEAA@V?$UnalignedIterator@T__m128@@$02@12@0M@Z 000000018003b690 f i SwCollision.obj
 0001:0003a6b0       ??0?$UnalignedIterator@T__m128@@$02@cloth@nv@@QEAA@PEBM@Z 000000018003b6b0 f i SwCollision.obj
 0001:0003a6c0       ??0?$LerpIterator@T__m128@@PEBT1@@cloth@nv@@QEAA@PEBT__m128@@0M@Z 000000018003b6c0 f i SwCollision.obj
 0001:0003a6e0       ?deallocate@?$StackAllocator@$0BA@@cloth@nv@@QEAAXPEAX@Z 000000018003b6e0 f i SwCollision.obj
 0001:0003a720       ?allocate@?$StackAllocator@$0BA@@cloth@nv@@QEAAPEAX_K@Z 000000018003b720 f i SwCollision.obj
 0001:0003a780       ?getHeader@?$StackAllocator@$0BA@@cloth@nv@@AEBAPEAUHeader@123@PEAX@Z 000000018003b780 f i SwCollision.obj
 0001:0003a790       ?getCurrentAlpha@?$IterationState@T__m128@@@cloth@nv@@QEBAMXZ 000000018003b790 f i SwCollision.obj
 0001:0003a7c0       ??$splat@$02@cloth@nv@@YA?AT__m128@@AEBT2@@Z 000000018003b7c0 f i SwCollision.obj
 0001:0003a860       ??$swap@UCollisionData@?$SwCollision@T__m128@@@cloth@nv@@@shdfnd@physx@@YAXAEAUCollisionData@?$SwCollision@T__m128@@@cloth@nv@@0@Z 000000018003b860 f i SwCollision.obj
 0001:0003a870       ??$loadBounds@T__m128@@@cloth@nv@@YA?AU?$BoundingBox@T__m128@@@01@PEBM@Z 000000018003b870 f i SwCollision.obj
 0001:0003a8a0       ??$emptyBounds@T__m128@@@cloth@nv@@YA?AU?$BoundingBox@T__m128@@@01@XZ 000000018003b8a0 f i SwCollision.obj
 0001:0003a8c0       ??$expandBounds@T__m128@@@cloth@nv@@YA?AU?$BoundingBox@T__m128@@@01@AEBU201@PEBUSphereData@01@1@Z 000000018003b8c0 f i SwCollision.obj
 0001:0003a920       ??$expandBounds@T__m128@@@cloth@nv@@YA?AU?$BoundingBox@T__m128@@@01@AEBU201@0@Z 000000018003b920 f i SwCollision.obj
 0001:0003a940       ??$intersectBounds@T__m128@@@cloth@nv@@YA?AU?$BoundingBox@T__m128@@@01@AEBU201@0@Z 000000018003b940 f i SwCollision.obj
 0001:0003a960       ??$recip@$00@cloth@nv@@YA?AT__m128@@AEBT2@@Z 000000018003b960 f i SwCollision.obj
 0001:0003b010       ??E?$LerpIterator@T__m128@@V?$UnalignedIterator@T__m128@@$02@cloth@nv@@@cloth@nv@@QEAAAEAV012@XZ 000000018003c010 f i SwCollision.obj
 0001:0003b020       ??D?$LerpIterator@T__m128@@V?$UnalignedIterator@T__m128@@$02@cloth@nv@@@cloth@nv@@QEBA?AT__m128@@XZ 000000018003c020 f i SwCollision.obj
 0001:0003b040       ??E?$UnalignedIterator@T__m128@@$02@cloth@nv@@QEAAAEAV012@XZ 000000018003c040 f i SwCollision.obj
 0001:0003b050       ??D?$UnalignedIterator@T__m128@@$02@cloth@nv@@QEBA?AT__m128@@XZ 000000018003c050 f i SwCollision.obj
 0001:0003b060       ??E?$LerpIterator@T__m128@@PEBT1@@cloth@nv@@QEAAAEAV012@XZ 000000018003c060 f i SwCollision.obj
 0001:0003b070       ??D?$LerpIterator@T__m128@@PEBT1@@cloth@nv@@QEBA?AT__m128@@XZ 000000018003c070 f i SwCollision.obj
 0001:0003b090       ??A?$LerpIterator@T__m128@@V?$UnalignedIterator@T__m128@@$02@cloth@nv@@@cloth@nv@@QEBA?AT__m128@@_K@Z 000000018003c090 f i SwCollision.obj
 0001:0003b0b0       ??A?$UnalignedIterator@T__m128@@$02@cloth@nv@@QEBA?AT__m128@@_K@Z 000000018003c0b0 f i SwCollision.obj
 0001:0003b0c0       ??A?$LerpIterator@T__m128@@PEBT1@@cloth@nv@@QEBA?AT__m128@@_K@Z 000000018003c0c0 f i SwCollision.obj
 0001:0003b0e0       ?getPreviousAlpha@?$IterationState@T__m128@@@cloth@nv@@QEBAMXZ 000000018003c0e0 f i SwCollision.obj
 0001:0003b110       ??_ESwFabric@cloth@nv@@UEAAPEAXI@Z 000000018003c110 f i * CIL library *:* CIL module *
 0001:0003b110       ??_GSwFabric@cloth@nv@@UEAAPEAXI@Z 000000018003c110 f i SwFabric.obj
 0001:0003b170       ?replaceWithLast@?$Array@PEAVSwFabric@cloth@nv@@VNonTrackingAllocator@23@@shdfnd@physx@@QEAAXPEAPEAVSwFabric@cloth@nv@@@Z 000000018003c170 f i SwFabric.obj
 0001:0003b190       ?pushBack@?$Array@PEAVSwFabric@cloth@nv@@VNonTrackingAllocator@23@@shdfnd@physx@@QEAAAEAPEAVSwFabric@cloth@nv@@AEBQEAV456@@Z 000000018003c190 f i SwFabric.obj
 0001:0003b1d0       ?find@?$Array@PEAVSwFabric@cloth@nv@@VNonTrackingAllocator@23@@shdfnd@physx@@QEAAPEAPEAVSwFabric@cloth@nv@@AEBQEAV456@@Z 000000018003c1d0 f i SwFabric.obj
 0001:0003b200       ?reserve@?$Array@USwTether@cloth@nv@@VNonTrackingAllocator@23@@shdfnd@physx@@QEAAXI@Z 000000018003c200 f i SwFabric.obj
 0001:0003b210       ?pushBack@?$Array@USwTether@cloth@nv@@VNonTrackingAllocator@23@@shdfnd@physx@@QEAAAEAUSwTether@cloth@nv@@AEBU456@@Z 000000018003c210 f i SwFabric.obj
 0001:0003b250       ??1?$Array@USwTether@cloth@nv@@VNonTrackingAllocator@23@@shdfnd@physx@@QEAA@XZ 000000018003c250 f i SwFabric.obj
 0001:0003b280       ??0?$Array@USwTether@cloth@nv@@VNonTrackingAllocator@23@@shdfnd@physx@@QEAA@AEBVNonTrackingAllocator@cloth@nv@@@Z 000000018003c280 f i SwFabric.obj
 0001:0003b290       ?swap@?$Array@GVNonTrackingAllocator@cloth@nv@@@shdfnd@physx@@QEAAXAEAV123@@Z 000000018003c290 f i SwFabric.obj
 0001:0003b2c0       ?pushBack@?$Array@GVNonTrackingAllocator@cloth@nv@@@shdfnd@physx@@QEAAAEAGAEBG@Z 000000018003c2c0 f i SwFabric.obj
 0001:0003b300       ??0?$Array@GVNonTrackingAllocator@cloth@nv@@@shdfnd@physx@@QEAA@PEBG0AEBVNonTrackingAllocator@cloth@nv@@@Z 000000018003c300 f i SwFabric.obj
 0001:0003b3a0       ?swap@?$Array@MV?$AlignedAllocator@$0CA@VNonTrackingAllocator@cloth@nv@@@shdfnd@physx@@@shdfnd@physx@@QEAAXAEAV123@@Z 000000018003c3a0 f i SwFabric.obj
 0001:0003b3d0       ?pushBack@?$Array@MV?$AlignedAllocator@$0CA@VNonTrackingAllocator@cloth@nv@@@shdfnd@physx@@@shdfnd@physx@@QEAAAEAMAEBM@Z 000000018003c3d0 f i SwFabric.obj
 0001:0003b410       ?end@?$Array@MV?$AlignedAllocator@$0CA@VNonTrackingAllocator@cloth@nv@@@shdfnd@physx@@@shdfnd@physx@@QEAAPEAMXZ 000000018003c410 f i SwFabric.obj
 0001:0003b420       ?begin@?$Array@MV?$AlignedAllocator@$0CA@VNonTrackingAllocator@cloth@nv@@@shdfnd@physx@@@shdfnd@physx@@QEAAPEAMXZ 000000018003c420 f i SwFabric.obj
 0001:0003b430       ??1?$Array@MV?$AlignedAllocator@$0CA@VNonTrackingAllocator@cloth@nv@@@shdfnd@physx@@@shdfnd@physx@@QEAA@XZ 000000018003c430 f i SwFabric.obj
 0001:0003b460       ??0?$Array@MV?$AlignedAllocator@$0CA@VNonTrackingAllocator@cloth@nv@@@shdfnd@physx@@@shdfnd@physx@@QEAA@PEBM0AEBV?$AlignedAllocator@$0CA@VNonTrackingAllocator@cloth@nv@@@12@@Z 000000018003c460 f i SwFabric.obj
 0001:0003b510       ??0?$Array@MV?$AlignedAllocator@$0CA@VNonTrackingAllocator@cloth@nv@@@shdfnd@physx@@@shdfnd@physx@@QEAA@AEBV?$AlignedAllocator@$0CA@VNonTrackingAllocator@cloth@nv@@@12@@Z 000000018003c510 f i SwFabric.obj
 0001:0003b520       ??0?$AlignedAllocator@$0CA@VNonTrackingAllocator@cloth@nv@@@shdfnd@physx@@QEAA@AEBVNonTrackingAllocator@cloth@nv@@@Z 000000018003c520 f i SwFabric.obj
 0001:0003b530       ?capacity@?$Array@PEAVSwFabric@cloth@nv@@VNonTrackingAllocator@23@@shdfnd@physx@@QEBAIXZ 000000018003c530 f i SwFabric.obj
 0001:0003b540       ?replaceWithLast@?$Array@PEAVSwFabric@cloth@nv@@VNonTrackingAllocator@23@@shdfnd@physx@@QEAAXI@Z 000000018003c540 f i SwFabric.obj
 0001:0003b560       ?grow@?$Array@USwTether@cloth@nv@@VNonTrackingAllocator@23@@shdfnd@physx@@IEAAXI@Z 000000018003c560 f i SwFabric.obj
 0001:0003b570       ?destroy@?$Array@USwTether@cloth@nv@@VNonTrackingAllocator@23@@shdfnd@physx@@KAXPEAUSwTether@cloth@nv@@0@Z 000000018003c570 f i SwFabric.obj
 0001:0003b580       ?deallocate@?$Array@USwTether@cloth@nv@@VNonTrackingAllocator@23@@shdfnd@physx@@IEAAXPEAX@Z 000000018003c580 f i SwFabric.obj
 0001:0003b5a0       ?isInUserMemory@?$Array@USwTether@cloth@nv@@VNonTrackingAllocator@23@@shdfnd@physx@@QEBAIXZ 000000018003c5a0 f i SwFabric.obj
 0001:0003b5b0       ?capacity@?$Array@USwTether@cloth@nv@@VNonTrackingAllocator@23@@shdfnd@physx@@QEBAIXZ 000000018003c5b0 f i SwFabric.obj
 0001:0003b5c0       ?destroy@?$Array@MV?$AlignedAllocator@$0CA@VNonTrackingAllocator@cloth@nv@@@shdfnd@physx@@@shdfnd@physx@@KAXPEAM0@Z 000000018003c5c0 f i SwFabric.obj
 0001:0003b5d0       ?copy@?$Array@MV?$AlignedAllocator@$0CA@VNonTrackingAllocator@cloth@nv@@@shdfnd@physx@@@shdfnd@physx@@KAXPEAM0PEBM@Z 000000018003c5d0 f i SwFabric.obj
 0001:0003b660       ?deallocate@?$Array@MV?$AlignedAllocator@$0CA@VNonTrackingAllocator@cloth@nv@@@shdfnd@physx@@@shdfnd@physx@@IEAAXPEAX@Z 000000018003c660 f i SwFabric.obj
 0001:0003b680       ?allocate@?$Array@MV?$AlignedAllocator@$0CA@VNonTrackingAllocator@cloth@nv@@@shdfnd@physx@@@shdfnd@physx@@IEAAPEAMI@Z 000000018003c680 f i SwFabric.obj
 0001:0003b6e0       ?isInUserMemory@?$Array@MV?$AlignedAllocator@$0CA@VNonTrackingAllocator@cloth@nv@@@shdfnd@physx@@@shdfnd@physx@@QEBAIXZ 000000018003c6e0 f i SwFabric.obj
 0001:0003b6f0       ?capacity@?$Array@MV?$AlignedAllocator@$0CA@VNonTrackingAllocator@cloth@nv@@@shdfnd@physx@@@shdfnd@physx@@QEBAIXZ 000000018003c6f0 f i SwFabric.obj
 0001:0003b700       ?deallocate@?$AlignedAllocator@$0CA@VNonTrackingAllocator@cloth@nv@@@shdfnd@physx@@QEAAXPEAX@Z 000000018003c700 f i SwFabric.obj
 0001:0003b720       ?allocate@?$AlignedAllocator@$0CA@VNonTrackingAllocator@cloth@nv@@@shdfnd@physx@@QEAAPEAX_KPEBDH@Z 000000018003c720 f i SwFabric.obj
 0001:0003b780       ?growAndPushBack@?$Array@MV?$AlignedAllocator@$0CA@VNonTrackingAllocator@cloth@nv@@@shdfnd@physx@@@shdfnd@physx@@IEAAAEAMAEBM@Z 000000018003c780 f i SwFabric.obj
 0001:0003b870       ?growAndPushBack@?$Array@GVNonTrackingAllocator@cloth@nv@@@shdfnd@physx@@IEAAAEAGAEBG@Z 000000018003c870 f i SwFabric.obj
 0001:0003b960       ?growAndPushBack@?$Array@USwTether@cloth@nv@@VNonTrackingAllocator@23@@shdfnd@physx@@IEAAAEAUSwTether@cloth@nv@@AEBU456@@Z 000000018003c960 f i SwFabric.obj
 0001:0003ba50       ?recreate@?$Array@USwTether@cloth@nv@@VNonTrackingAllocator@23@@shdfnd@physx@@IEAAXI@Z 000000018003ca50 f i SwFabric.obj
 0001:0003bb00       ?growAndPushBack@?$Array@PEAVSwFabric@cloth@nv@@VNonTrackingAllocator@23@@shdfnd@physx@@IEAAAEAPEAVSwFabric@cloth@nv@@AEBQEAV456@@Z 000000018003cb00 f i SwFabric.obj
 0001:0003bbf0       ??$swap@PEAG@shdfnd@physx@@YAXAEAPEAG0@Z 000000018003cbf0 f i SwFabric.obj
 0001:0003bc00       ??$swap@PEAM@shdfnd@physx@@YAXAEAPEAM0@Z 000000018003cc00 f i SwFabric.obj
 0001:0003bc10       ?capacityIncrement@?$Array@PEAVSwFabric@cloth@nv@@VNonTrackingAllocator@23@@shdfnd@physx@@IEBAIXZ 000000018003cc10 f i SwFabric.obj
 0001:0003bc30       ?destroy@?$Array@PEAVSwFabric@cloth@nv@@VNonTrackingAllocator@23@@shdfnd@physx@@KAXPEAPEAVSwFabric@cloth@nv@@0@Z 000000018003cc30 f i SwFabric.obj
 0001:0003bc40       ?copy@?$Array@PEAVSwFabric@cloth@nv@@VNonTrackingAllocator@23@@shdfnd@physx@@KAXPEAPEAVSwFabric@cloth@nv@@0PEBQEAV456@@Z 000000018003cc40 f i SwFabric.obj
 0001:0003bc60       ?deallocate@?$Array@PEAVSwFabric@cloth@nv@@VNonTrackingAllocator@23@@shdfnd@physx@@IEAAXPEAX@Z 000000018003cc60 f i SwFabric.obj
 0001:0003bc80       ?allocate@?$Array@PEAVSwFabric@cloth@nv@@VNonTrackingAllocator@23@@shdfnd@physx@@IEAAPEAPEAVSwFabric@cloth@nv@@I@Z 000000018003cc80 f i SwFabric.obj
 0001:0003bcd0       ?isInUserMemory@?$Array@PEAVSwFabric@cloth@nv@@VNonTrackingAllocator@23@@shdfnd@physx@@QEBAIXZ 000000018003ccd0 f i SwFabric.obj
 0001:0003bce0       ?capacityIncrement@?$Array@USwTether@cloth@nv@@VNonTrackingAllocator@23@@shdfnd@physx@@IEBAIXZ 000000018003cce0 f i SwFabric.obj
 0001:0003bd00       ?copy@?$Array@USwTether@cloth@nv@@VNonTrackingAllocator@23@@shdfnd@physx@@KAXPEAUSwTether@cloth@nv@@0PEBU456@@Z 000000018003cd00 f i SwFabric.obj
 0001:0003bd20       ?allocate@?$Array@USwTether@cloth@nv@@VNonTrackingAllocator@23@@shdfnd@physx@@IEAAPEAUSwTether@cloth@nv@@I@Z 000000018003cd20 f i SwFabric.obj
 0001:0003bd70       ?capacityIncrement@?$Array@GVNonTrackingAllocator@cloth@nv@@@shdfnd@physx@@IEBAIXZ 000000018003cd70 f i SwFabric.obj
 0001:0003bd90       ?capacityIncrement@?$Array@MV?$AlignedAllocator@$0CA@VNonTrackingAllocator@cloth@nv@@@shdfnd@physx@@@shdfnd@physx@@IEBAIXZ 000000018003cd90 f i SwFabric.obj
 0001:0003bdb0       ?getPlatform@SwFactory@cloth@nv@@UEBA?AW4Platform@23@XZ 000000018003cdb0 f i SwFactory.obj
 0001:0003bdc0       ??_GSwFactory@cloth@nv@@UEAAPEAXI@Z 000000018003cdc0 f i SwFactory.obj
 0001:0003bdc0       ??_ESwFactory@cloth@nv@@UEAAPEAXI@Z 000000018003cdc0 f i * CIL library *:* CIL module *
 0001:0003be50       ?front@?$Array@UIndexPair@cloth@nv@@VNonTrackingAllocator@23@@shdfnd@physx@@QEBAAEBUIndexPair@cloth@nv@@XZ 000000018003ce50 f i SwFactory.obj
 0001:0003be60       ?front@?$Array@VPxVec3@physx@@VNonTrackingAllocator@cloth@nv@@@shdfnd@physx@@QEBAAEBVPxVec3@3@XZ 000000018003ce60 f i SwFactory.obj
 0001:0003be70       ??A?$Array@USwTether@cloth@nv@@VNonTrackingAllocator@23@@shdfnd@physx@@QEBAAEBUSwTether@cloth@nv@@I@Z 000000018003ce70 f i SwFactory.obj
 0001:0003be80       ??A?$Array@GVNonTrackingAllocator@cloth@nv@@@shdfnd@physx@@QEBAAEBGI@Z 000000018003ce80 f i SwFactory.obj
 0001:0003be90       ??A?$Array@IVNonTrackingAllocator@cloth@nv@@@shdfnd@physx@@QEBAAEBII@Z 000000018003ce90 f i SwFactory.obj
 0001:0003bea0       ?begin@?$Array@MV?$AlignedAllocator@$0CA@VNonTrackingAllocator@cloth@nv@@@shdfnd@physx@@@shdfnd@physx@@QEBAPEBMXZ 000000018003cea0 f i SwFactory.obj
 0001:0003beb0       ??1?$Array@PEAVSwFabric@cloth@nv@@VNonTrackingAllocator@23@@shdfnd@physx@@QEAA@XZ 000000018003ceb0 f i SwFactory.obj
 0001:0003bee0       ??0?$Array@PEAVSwFabric@cloth@nv@@VNonTrackingAllocator@23@@shdfnd@physx@@QEAA@AEBVNonTrackingAllocator@cloth@nv@@@Z 000000018003cee0 f i SwFactory.obj
 0001:0003bef0       ??$max@G@std@@YAAEBGAEBG0@Z 000000018003cef0 f i SwFactory.obj
 0001:0003bf00       fabsf                      000000018003cf00 f i SwInterCollision.obj
 0001:0003bf10       ?allGreater@cloth@nv@@YAHAEBT__m128@@0@Z 000000018003cf10 f i SwInterCollision.obj
 0001:0003bf30       ?anyGreater@cloth@nv@@YAHAEBT__m128@@0@Z 000000018003cf30 f i SwInterCollision.obj
 0001:0003bf40       ?array@cloth@nv@@YAAEAY03$$CBHAEBT__m128i@@@Z 000000018003cf40 f i SwInterCollision.obj
 0001:0003bf50       ?abs@intrinsics@physx@@YAMM@Z 000000018003cf50 f i SwInterCollision.obj
 0001:0003bf60       ?PxAbs@physx@@YAMM@Z       000000018003cf60 f i SwInterCollision.obj
 0001:0003bf70       ??GPxVec3@physx@@QEBA?AV01@XZ 000000018003cf70 f i SwInterCollision.obj
 0001:0003bfb0       ??HPxVec3@physx@@QEBA?AV01@AEBV01@@Z 000000018003cfb0 f i SwInterCollision.obj
 0001:0003bff0       ?rotate@PxQuat@physx@@QEBA?BVPxVec3@2@AEBV32@@Z 000000018003cff0 f i SwInterCollision.obj
 0001:0003c150       ?rotateInv@PxQuat@physx@@QEBA?BVPxVec3@2@AEBV32@@Z 000000018003d150 f i SwInterCollision.obj
 0001:0003c2b0       ??0PxTransform@physx@@QEAA@AEBVPxVec3@1@AEBVPxQuat@1@@Z 000000018003d2b0 f i SwInterCollision.obj
 0001:0003c2e0       ??DPxTransform@physx@@QEBA?AV01@AEBV01@@Z 000000018003d2e0 f i SwInterCollision.obj
 0001:0003c480       ?getInverse@PxTransform@physx@@QEBA?AV12@XZ 000000018003d480 f i SwInterCollision.obj
 0001:0003c650       ?transform@PxTransform@physx@@QEBA?AVPxVec3@2@AEBV32@@Z 000000018003d650 f i SwInterCollision.obj
 0001:0003c7c0       ?transform@PxTransform@physx@@QEBA?AV12@AEBV12@@Z 000000018003d7c0 f i SwInterCollision.obj
 0001:0003c960       ??0PxMat33@physx@@QEAA@AEBVPxQuat@1@@Z 000000018003d960 f i SwInterCollision.obj
 0001:0003cab0       ??0PxMat44@physx@@QEAA@AEBVPxMat33@1@AEBVPxVec3@1@@Z 000000018003dab0 f i SwInterCollision.obj
 0001:0003cb20       ??0PxMat44@physx@@QEAA@AEBVPxTransform@1@@Z 000000018003db20 f i SwInterCollision.obj
 0001:0003ccc0       ??4PxMat44@physx@@QEAAAEAV01@AEBV01@@Z 000000018003dcc0 f i SwInterCollision.obj
 0001:0003cd30       ??0PxBounds3@physx@@QEAA@AEBVPxVec3@1@0@Z 000000018003dd30 f i SwInterCollision.obj
 0001:0003cd60       ?centerExtents@PxBounds3@physx@@SA?AV12@AEBVPxVec3@2@0@Z 000000018003dd60 f i SwInterCollision.obj
 0001:0003cdf0       ?basisExtent@PxBounds3@physx@@SA?AV12@AEBVPxVec3@2@AEBVPxMat33@2@0@Z 000000018003ddf0 f i SwInterCollision.obj
 0001:0003cf20       ?getCenter@PxBounds3@physx@@QEBA?AVPxVec3@2@XZ 000000018003df20 f i SwInterCollision.obj
 0001:0003cf70       ?getDimensions@PxBounds3@physx@@QEBA?AVPxVec3@2@XZ 000000018003df70 f i SwInterCollision.obj
 0001:0003cfa0       ?getExtents@PxBounds3@physx@@QEBA?AVPxVec3@2@XZ 000000018003dfa0 f i SwInterCollision.obj
 0001:0003cff0       ?transformFast@PxBounds3@physx@@SA?AV12@AEBVPxTransform@2@AEBV12@@Z 000000018003dff0 f i SwInterCollision.obj
 0001:0003d410       ??0?$SwInterCollision@T__m128@@@cloth@nv@@QEAA@PEBUSwInterCollisionData@12@IMMIP6A_NPEAX1@ZAEAV?$StackAllocator@$0BA@@12@@Z 000000018003e410 f i SwInterCollision.obj
 0001:0003d4c0       ??1?$SwInterCollision@T__m128@@@cloth@nv@@QEAA@XZ 000000018003e4c0 f i SwInterCollision.obj
 0001:0003d4d0       ??R?$SwInterCollision@T__m128@@@cloth@nv@@QEAAXXZ 000000018003e4d0 f i SwInterCollision.obj
 0001:0003dfd0       ?estimateTemporaryMemory@?$SwInterCollision@T__m128@@@cloth@nv@@SA_KPEAUSwInterCollisionData@23@I@Z 000000018003efd0 f i SwInterCollision.obj
 0001:0003e190       ?getBufferSize@?$SwInterCollision@T__m128@@@cloth@nv@@CA_KI@Z 000000018003f190 f i SwInterCollision.obj
 0001:0003e1b0       ?collideParticles@?$SwInterCollision@T__m128@@@cloth@nv@@AEAAXPEBII0II@Z 000000018003f1b0 f i SwInterCollision.obj
 0001:0003e530       ?getParticle@?$SwInterCollision@T__m128@@@cloth@nv@@AEAAAEAT__m128@@I@Z 000000018003f530 f i SwInterCollision.obj
 0001:0003e560       ?collideParticle@?$SwInterCollision@T__m128@@@cloth@nv@@AEAAXI@Z 000000018003f560 f i SwInterCollision.obj
 0001:0003f320       ??$max@PEAI@std@@YAAEBQEAIAEBQEAI0@Z 0000000180040320 f i SwInterCollision.obj
 0001:0003f3b0       ??$rsqrt@$00@cloth@nv@@YA?AT__m128@@AEBT2@@Z 00000001800403b0 f i SwInterCollision.obj
 0001:0003f3f0       ??$sort@IU?$ClothSorter@T__m128@@@?A0x85b8d690@@VNonTrackingAllocator@cloth@nv@@@shdfnd@physx@@YAXPEAIIAEBU?$ClothSorter@T__m128@@@?A0x85b8d690@@AEBVNonTrackingAllocator@cloth@nv@@I@Z 00000001800403f0 f i SwInterCollision.obj
 0001:0003f610       ??$isEmptyBounds@T__m128@@@cloth@nv@@YA_NAEBU?$BoundingBox@T__m128@@@01@@Z 0000000180040610 f i SwInterCollision.obj
 0001:0003f630       ??$expandBounds@T__m128@@@cloth@nv@@YA?AU?$BoundingBox@T__m128@@@01@AEBU201@PEBT__m128@@1@Z 0000000180040630 f i SwInterCollision.obj
 0001:0003f670       ??$smallSort@I$$CBU?$ClothSorter@T__m128@@@?A0x85b8d690@@@internal@shdfnd@physx@@YAXPEAIHHAEBU?$ClothSorter@T__m128@@@?A0x85b8d690@@@Z 0000000180040670 f i SwInterCollision.obj
 0001:0003f910       ??$partition@I$$CBU?$ClothSorter@T__m128@@@?A0x85b8d690@@@internal@shdfnd@physx@@YAHPEAIHHAEBU?$ClothSorter@T__m128@@@?A0x85b8d690@@@Z 0000000180040910 f i SwInterCollision.obj
 0001:0003fa10       ??$median3@I$$CBU?$ClothSorter@T__m128@@@?A0x85b8d690@@@internal@shdfnd@physx@@YAXPEAIHHAEBU?$ClothSorter@T__m128@@@?A0x85b8d690@@@Z 0000000180040a10 f i SwInterCollision.obj
 0001:0003fb00       ??0?$SwSelfCollision@T__m128@@@cloth@nv@@QEAA@AEAUSwClothData@12@AEAV?$StackAllocator@$0BA@@12@@Z 0000000180040b00 f i SwSelfCollision.obj
 0001:0003fb40       ??1?$SwSelfCollision@T__m128@@@cloth@nv@@QEAA@XZ 0000000180040b40 f i SwSelfCollision.obj
 0001:0003fb50       ??R?$SwSelfCollision@T__m128@@@cloth@nv@@QEAAXXZ 0000000180040b50 f i SwSelfCollision.obj
 0001:0003ff20       ?estimateTemporaryMemory@?$SwSelfCollision@T__m128@@@cloth@nv@@SA_KAEBVSwCloth@23@@Z 0000000180040f20 f i SwSelfCollision.obj
 0001:0003ffa0       ?getBufferSize@?$SwSelfCollision@T__m128@@@cloth@nv@@CA_KI@Z 0000000180040fa0 f i SwSelfCollision.obj
 0001:00040010       ??$collideParticles@$00@?$SwSelfCollision@T__m128@@@cloth@nv@@AEAAXPEBIGPEBGI@Z 0000000180041010 f i SwSelfCollision.obj
 0001:000404d0       ??$collideParticles@$0A@@?$SwSelfCollision@T__m128@@@cloth@nv@@AEAAXPEBIGPEBGI@Z 00000001800414d0 f i SwSelfCollision.obj
 0001:000408e0       ??$collideParticles@$00@?$SwSelfCollision@T__m128@@@cloth@nv@@AEAAXAEAT__m128@@0AEBT3@1@Z 00000001800418e0 f i SwSelfCollision.obj
 0001:000409d0       ??$collideParticles@$0A@@?$SwSelfCollision@T__m128@@@cloth@nv@@AEAAXAEAT__m128@@0AEBT3@1@Z 00000001800419d0 f i SwSelfCollision.obj
 0001:00040a80       ?setInterCollisionDistance@SwSolver@cloth@nv@@UEAAXM@Z 0000000180041a80 f i SwSolver.obj
 0001:00040a90       ?getInterCollisionDistance@SwSolver@cloth@nv@@UEBAMXZ 0000000180041a90 f i SwSolver.obj
 0001:00040aa0       ?setInterCollisionStiffness@SwSolver@cloth@nv@@UEAAXM@Z 0000000180041aa0 f i SwSolver.obj
 0001:00040ab0       ?getInterCollisionStiffness@SwSolver@cloth@nv@@UEBAMXZ 0000000180041ab0 f i SwSolver.obj
 0001:00040ac0       ?setInterCollisionNbIterations@SwSolver@cloth@nv@@UEAAXI@Z 0000000180041ac0 f i SwSolver.obj
 0001:00040ad0       ?getInterCollisionNbIterations@SwSolver@cloth@nv@@UEBAIXZ 0000000180041ad0 f i SwSolver.obj
 0001:00040ae0       ?setInterCollisionFilter@SwSolver@cloth@nv@@UEAAXP6A_NPEAX0@Z@Z 0000000180041ae0 f i SwSolver.obj
 0001:00040af0       ?hasError@SwSolver@cloth@nv@@UEBA_NXZ 0000000180041af0 f i SwSolver.obj
 0001:00040b00       ??0SIMDGuard@shdfnd@physx@@QEAA@XZ 0000000180041b00 f i SwSolver.obj
 0001:00040b20       ??1SIMDGuard@shdfnd@physx@@QEAA@XZ 0000000180041b20 f i SwSolver.obj
 0001:00040b30       ??_GSwSolver@cloth@nv@@UEAAPEAXI@Z 0000000180041b30 f i SwSolver.obj
 0001:00040b30       ??_ESwSolver@cloth@nv@@UEAAPEAXI@Z 0000000180041b30 f i * CIL library *:* CIL module *
 0001:00040b90       ??1?$SwSolverKernel@T__m128@@@cloth@nv@@QEAA@XZ 0000000180041b90 f i SwSolver.obj
 0001:00040bc0       ?replaceWithLast@?$Array@PEAVSwCloth@cloth@nv@@VNonTrackingAllocator@23@@shdfnd@physx@@QEAAXPEAPEAVSwCloth@cloth@nv@@@Z 0000000180041bc0 f i SwSolver.obj
 0001:00040be0       ?pushBack@?$Array@PEAVSwCloth@cloth@nv@@VNonTrackingAllocator@23@@shdfnd@physx@@QEAAAEAPEAVSwCloth@cloth@nv@@AEBQEAV456@@Z 0000000180041be0 f i SwSolver.obj
 0001:00040c20       ?find@?$Array@PEAVSwCloth@cloth@nv@@VNonTrackingAllocator@23@@shdfnd@physx@@QEAAPEAPEAVSwCloth@cloth@nv@@AEBQEAV456@@Z 0000000180041c20 f i SwSolver.obj
 0001:00040c50       ?size@?$Array@PEAVSwCloth@cloth@nv@@VNonTrackingAllocator@23@@shdfnd@physx@@QEBAIXZ 0000000180041c50 f i SwSolver.obj
 0001:00040c60       ?end@?$Array@PEAVSwCloth@cloth@nv@@VNonTrackingAllocator@23@@shdfnd@physx@@QEAAPEAPEAVSwCloth@cloth@nv@@XZ 0000000180041c60 f i SwSolver.obj
 0001:00040c70       ??A?$Array@PEAVSwCloth@cloth@nv@@VNonTrackingAllocator@23@@shdfnd@physx@@QEBAAEBQEAVSwCloth@cloth@nv@@I@Z 0000000180041c70 f i SwSolver.obj
 0001:00040c80       ??1?$Array@PEAVSwCloth@cloth@nv@@VNonTrackingAllocator@23@@shdfnd@physx@@QEAA@XZ 0000000180041c80 f i SwSolver.obj
 0001:00040cb0       ??0?$Array@PEAVSwCloth@cloth@nv@@VNonTrackingAllocator@23@@shdfnd@physx@@QEAA@AEBVNonTrackingAllocator@cloth@nv@@@Z 0000000180041cb0 f i SwSolver.obj
 0001:00040cc0       ?replaceWithLast@?$Array@USimulatedCloth@SwSolver@cloth@nv@@VNonTrackingAllocator@34@@shdfnd@physx@@QEAAXPEAUSimulatedCloth@SwSolver@cloth@nv@@@Z 0000000180041cc0 f i SwSolver.obj
 0001:00040d20       ?pushBack@?$Array@USimulatedCloth@SwSolver@cloth@nv@@VNonTrackingAllocator@34@@shdfnd@physx@@QEAAAEAUSimulatedCloth@SwSolver@cloth@nv@@AEBU4567@@Z 0000000180041d20 f i SwSolver.obj
 0001:00040d80       ?empty@?$Array@USimulatedCloth@SwSolver@cloth@nv@@VNonTrackingAllocator@34@@shdfnd@physx@@QEBA_NXZ 0000000180041d80 f i SwSolver.obj
 0001:00040d90       ?size@?$Array@USimulatedCloth@SwSolver@cloth@nv@@VNonTrackingAllocator@34@@shdfnd@physx@@QEBAIXZ 0000000180041d90 f i SwSolver.obj
 0001:00040da0       ?end@?$Array@USimulatedCloth@SwSolver@cloth@nv@@VNonTrackingAllocator@34@@shdfnd@physx@@QEAAPEAUSimulatedCloth@SwSolver@cloth@nv@@XZ 0000000180041da0 f i SwSolver.obj
 0001:00040db0       ?begin@?$Array@USimulatedCloth@SwSolver@cloth@nv@@VNonTrackingAllocator@34@@shdfnd@physx@@QEAAPEAUSimulatedCloth@SwSolver@cloth@nv@@XZ 0000000180041db0 f i SwSolver.obj
 0001:00040dc0       ??A?$Array@USimulatedCloth@SwSolver@cloth@nv@@VNonTrackingAllocator@34@@shdfnd@physx@@QEAAAEAUSimulatedCloth@SwSolver@cloth@nv@@I@Z 0000000180041dc0 f i SwSolver.obj
 0001:00040dd0       ??1?$Array@USimulatedCloth@SwSolver@cloth@nv@@VNonTrackingAllocator@34@@shdfnd@physx@@QEAA@XZ 0000000180041dd0 f i SwSolver.obj
 0001:00040e00       ??0?$Array@USimulatedCloth@SwSolver@cloth@nv@@VNonTrackingAllocator@34@@shdfnd@physx@@QEAA@AEBVNonTrackingAllocator@cloth@nv@@@Z 0000000180041e00 f i SwSolver.obj
 0001:00040e10       ?destroy@?$Array@PEAVSwCloth@cloth@nv@@VNonTrackingAllocator@23@@shdfnd@physx@@KAXPEAPEAVSwCloth@cloth@nv@@0@Z 0000000180041e10 f i SwSolver.obj
 0001:00040e20       ?deallocate@?$Array@PEAVSwCloth@cloth@nv@@VNonTrackingAllocator@23@@shdfnd@physx@@IEAAXPEAX@Z 0000000180041e20 f i SwSolver.obj
 0001:00040e40       ?isInUserMemory@?$Array@PEAVSwCloth@cloth@nv@@VNonTrackingAllocator@23@@shdfnd@physx@@QEBAIXZ 0000000180041e40 f i SwSolver.obj
 0001:00040e50       ?capacity@?$Array@PEAVSwCloth@cloth@nv@@VNonTrackingAllocator@23@@shdfnd@physx@@QEBAIXZ 0000000180041e50 f i SwSolver.obj
 0001:00040e60       ?replaceWithLast@?$Array@PEAVSwCloth@cloth@nv@@VNonTrackingAllocator@23@@shdfnd@physx@@QEAAXI@Z 0000000180041e60 f i SwSolver.obj
 0001:00040e80       ?destroy@?$Array@USimulatedCloth@SwSolver@cloth@nv@@VNonTrackingAllocator@34@@shdfnd@physx@@KAXPEAUSimulatedCloth@SwSolver@cloth@nv@@0@Z 0000000180041e80 f i SwSolver.obj
 0001:00040e90       ?deallocate@?$Array@USimulatedCloth@SwSolver@cloth@nv@@VNonTrackingAllocator@34@@shdfnd@physx@@IEAAXPEAX@Z 0000000180041e90 f i SwSolver.obj
 0001:00040eb0       ?isInUserMemory@?$Array@USimulatedCloth@SwSolver@cloth@nv@@VNonTrackingAllocator@34@@shdfnd@physx@@QEBAIXZ 0000000180041eb0 f i SwSolver.obj
 0001:00040ec0       ?capacity@?$Array@USimulatedCloth@SwSolver@cloth@nv@@VNonTrackingAllocator@34@@shdfnd@physx@@QEBAIXZ 0000000180041ec0 f i SwSolver.obj
 0001:00040ed0       ?replaceWithLast@?$Array@USimulatedCloth@SwSolver@cloth@nv@@VNonTrackingAllocator@34@@shdfnd@physx@@QEAAXI@Z 0000000180041ed0 f i SwSolver.obj
 0001:00040f10       ?growAndPushBack@?$Array@USimulatedCloth@SwSolver@cloth@nv@@VNonTrackingAllocator@34@@shdfnd@physx@@IEAAAEAUSimulatedCloth@SwSolver@cloth@nv@@AEBU4567@@Z 0000000180041f10 f i SwSolver.obj
 0001:00041030       ?growAndPushBack@?$Array@PEAVSwCloth@cloth@nv@@VNonTrackingAllocator@23@@shdfnd@physx@@IEAAAEAPEAVSwCloth@cloth@nv@@AEBQEAV456@@Z 0000000180042030 f i SwSolver.obj
 0001:00041150       ??$swap@VPxVec3@physx@@VNonTrackingAllocator@cloth@nv@@@shdfnd@physx@@YAXAEAV?$Array@VPxVec3@physx@@VNonTrackingAllocator@cloth@nv@@@01@0@Z 0000000180042150 f i SwSolver.obj
 0001:00041180       ??$?0VSwCloth@cloth@nv@@@IterationStateFactory@cloth@nv@@QEAA@AEAVSwCloth@12@M@Z 0000000180042180 f i SwSolver.obj
 0001:000414f0       ?swap@?$Array@VPxVec3@physx@@VNonTrackingAllocator@cloth@nv@@@shdfnd@physx@@QEAAXAEAV123@@Z 00000001800424f0 f i SwSolver.obj
 0001:00041520       ?capacityIncrement@?$Array@PEAVSwCloth@cloth@nv@@VNonTrackingAllocator@23@@shdfnd@physx@@IEBAIXZ 0000000180042520 f i SwSolver.obj
 0001:00041540       ?copy@?$Array@PEAVSwCloth@cloth@nv@@VNonTrackingAllocator@23@@shdfnd@physx@@KAXPEAPEAVSwCloth@cloth@nv@@0PEBQEAV456@@Z 0000000180042540 f i SwSolver.obj
 0001:00041560       ?allocate@?$Array@PEAVSwCloth@cloth@nv@@VNonTrackingAllocator@23@@shdfnd@physx@@IEAAPEAPEAVSwCloth@cloth@nv@@I@Z 0000000180042560 f i SwSolver.obj
 0001:000415b0       ?capacityIncrement@?$Array@USimulatedCloth@SwSolver@cloth@nv@@VNonTrackingAllocator@34@@shdfnd@physx@@IEBAIXZ 00000001800425b0 f i SwSolver.obj
 0001:000415d0       ?copy@?$Array@USimulatedCloth@SwSolver@cloth@nv@@VNonTrackingAllocator@34@@shdfnd@physx@@KAXPEAUSimulatedCloth@SwSolver@cloth@nv@@0PEBU4567@@Z 00000001800425d0 f i SwSolver.obj
 0001:00041610       ?allocate@?$Array@USimulatedCloth@SwSolver@cloth@nv@@VNonTrackingAllocator@34@@shdfnd@physx@@IEAAPEAUSimulatedCloth@SwSolver@cloth@nv@@I@Z 0000000180042610 f i SwSolver.obj
 0001:00041680       ??$sort@USimulatedCloth@SwSolver@cloth@nv@@P6A_NAEBU1234@0@ZVNonTrackingAllocator@34@@shdfnd@physx@@YAXPEAUSimulatedCloth@SwSolver@cloth@nv@@IAEBQ6A_NAEBU2345@1@ZAEBVNonTrackingAllocator@45@I@Z 0000000180042680 f i SwSolver.obj
 0001:000418a0       ??$smallSort@USimulatedCloth@SwSolver@cloth@nv@@Q6A_NAEBU1234@0@Z@internal@shdfnd@physx@@YAXPEAUSimulatedCloth@SwSolver@cloth@nv@@HHAEBQ6A_NAEBU3456@1@Z@Z 00000001800428a0 f i SwSolver.obj
 0001:00041a30       ??$partition@USimulatedCloth@SwSolver@cloth@nv@@Q6A_NAEBU1234@0@Z@internal@shdfnd@physx@@YAHPEAUSimulatedCloth@SwSolver@cloth@nv@@HHAEBQ6A_NAEBU3456@1@Z@Z 0000000180042a30 f i SwSolver.obj
 0001:00041b70       ??$swap@USimulatedCloth@SwSolver@cloth@nv@@@shdfnd@physx@@YAXAEAUSimulatedCloth@SwSolver@cloth@nv@@0@Z 0000000180042b70 f i SwSolver.obj
 0001:00041bb0       ??$median3@USimulatedCloth@SwSolver@cloth@nv@@Q6A_NAEBU1234@0@Z@internal@shdfnd@physx@@YAXPEAUSimulatedCloth@SwSolver@cloth@nv@@HHAEBQ6A_NAEBU3456@1@Z@Z 0000000180042bb0 f i SwSolver.obj
 0001:00041d10       ??Kcloth@nv@@YA?AT__m128@@AEBT2@0@Z 0000000180042d10 f i SwSolverKernel.obj
 0001:00041d20       ?anyGreaterEqual@cloth@nv@@YAHAEBT__m128@@0@Z 0000000180042d20 f i SwSolverKernel.obj
 0001:00041d30       ??0?$SwSolverKernel@T__m128@@@cloth@nv@@QEAA@AEBVSwCloth@12@AEAUSwClothData@12@AEAV?$StackAllocator@$0BA@@12@AEAUIterationStateFactory@12@@Z 0000000180042d30 f i SwSolverKernel.obj
 0001:00041de0       ??R?$SwSolverKernel@T__m128@@@cloth@nv@@QEAAXXZ 0000000180042de0 f i SwSolverKernel.obj
 0001:00041df0       ?estimateTemporaryMemory@?$SwSolverKernel@T__m128@@@cloth@nv@@SA_KAEBVSwCloth@23@@Z 0000000180042df0 f i SwSolverKernel.obj
 0001:00041e60       ?integrateParticles@?$SwSolverKernel@T__m128@@@cloth@nv@@AEAAXXZ 0000000180042e60 f i SwSolverKernel.obj
 0001:00042000       ?constrainTether@?$SwSolverKernel@T__m128@@@cloth@nv@@AEAAXXZ 0000000180043000 f i SwSolverKernel.obj
 0001:00042290       ?solveFabric@?$SwSolverKernel@T__m128@@@cloth@nv@@AEAAXXZ 0000000180043290 f i SwSolverKernel.obj
 0001:000426a0       ?applyWind@?$SwSolverKernel@T__m128@@@cloth@nv@@AEAAXXZ 00000001800436a0 f i SwSolverKernel.obj
 0001:00042850       ?constrainMotion@?$SwSolverKernel@T__m128@@@cloth@nv@@AEAAXXZ 0000000180043850 f i SwSolverKernel.obj
 0001:000429e0       ?constrainSeparation@?$SwSolverKernel@T__m128@@@cloth@nv@@AEAAXXZ 00000001800439e0 f i SwSolverKernel.obj
 0001:00042b40       ?collideParticles@?$SwSolverKernel@T__m128@@@cloth@nv@@AEAAXXZ 0000000180043b40 f i SwSolverKernel.obj
 0001:00042bf0       ?selfCollideParticles@?$SwSolverKernel@T__m128@@@cloth@nv@@AEAAXXZ 0000000180043bf0 f i SwSolverKernel.obj
 0001:00042ca0       ?updateSleepState@?$SwSolverKernel@T__m128@@@cloth@nv@@AEAAXXZ 0000000180043ca0 f i SwSolverKernel.obj
 0001:00042e20       ?iterateCloth@?$SwSolverKernel@T__m128@@@cloth@nv@@AEAAXXZ 0000000180043e20 f i SwSolverKernel.obj
 0001:00042e80       ?simulateCloth@?$SwSolverKernel@T__m128@@@cloth@nv@@AEAAXXZ 0000000180043e80 f i SwSolverKernel.obj
 0001:00042f00       ??0?$ScaleBiasIterator@T__m128@@PEBT1@@cloth@nv@@QEAA@PEBT__m128@@AEBT3@1@Z 0000000180043f00 f i SwSolverKernel.obj
 0001:00042f20       ??0?$ConstantIterator@T__m128@@@cloth@nv@@QEAA@AEBT__m128@@@Z 0000000180043f20 f i SwSolverKernel.obj
 0001:00042f30       ??$create@T__m128@@VSwCloth@cloth@nv@@@IterationStateFactory@cloth@nv@@QEBA?AU?$IterationState@T__m128@@@12@AEBVSwCloth@12@@Z 0000000180043f30 f i SwSolverKernel.obj
 0001:00043b70       ??$integrateParticles@V?$ConstantIterator@T__m128@@@cloth@nv@@@?$SwSolverKernel@T__m128@@@cloth@nv@@AEAAXAEAV?$ConstantIterator@T__m128@@@12@AEBT__m128@@@Z 0000000180044b70 f i SwSolverKernel.obj
 0001:00043be0       ??$integrateParticles@V?$ScaleBiasIterator@T__m128@@PEBT1@@cloth@nv@@@?$SwSolverKernel@T__m128@@@cloth@nv@@AEAAXAEAV?$ScaleBiasIterator@T__m128@@PEBT1@@12@AEBT__m128@@@Z 0000000180044be0 f i SwSolverKernel.obj
 0001:00045a20       ??$PX_UNUSED@PEIBM@@YAXAEBQEIBM@Z 0000000180046a20 f i SwSolverKernel.obj
 0001:00045a30       ??$PX_UNUSED@T__m128@@@@YAXAEBT__m128@@@Z 0000000180046a30 f i SwSolverKernel.obj
 0001:00045a40       ??$transform@T__m128@@@cloth@nv@@YA?AT__m128@@AEAY02$$CBT2@AEBT2@1@Z 0000000180046a40 f i SwSolverKernel.obj
 0001:00045a70       ??E?$ScaleBiasIterator@T__m128@@PEBT1@@cloth@nv@@QEAAAEAV012@XZ 0000000180046a70 f i SwSolverKernel.obj
 0001:00045a80       ??D?$ScaleBiasIterator@T__m128@@PEBT1@@cloth@nv@@QEBA?AT__m128@@XZ 0000000180046a80 f i SwSolverKernel.obj
 0001:00045aa0       ??E?$ConstantIterator@T__m128@@@cloth@nv@@QEAAAEAV012@XZ 0000000180046aa0 f i SwSolverKernel.obj
 0001:00045ab0       ??D?$ConstantIterator@T__m128@@@cloth@nv@@QEBA?AT__m128@@XZ 0000000180046ab0 f i SwSolverKernel.obj
 0001:00045d50       ??_GTripletScheduler@cloth@nv@@QEAAPEAXI@Z 0000000180046d50 f i TripletScheduler.obj
 0001:00045d80       ??_GTripletSchedulerTestInterface@cloth@nv@@QEAAPEAXI@Z 0000000180046d80 f i TripletScheduler.obj
 0001:00045dd0       ?pushBack@?$Array@UTripletSet@?A0xb9c32dca@@VNonTrackingAllocator@cloth@nv@@@shdfnd@physx@@QEAAAEAUTripletSet@?A0xb9c32dca@@AEBU45@@Z 0000000180046dd0 f i TripletScheduler.obj
 0001:00045e40       ??A?$Array@UTripletSet@?A0xb9c32dca@@VNonTrackingAllocator@cloth@nv@@@shdfnd@physx@@QEAAAEAUTripletSet@?A0xb9c32dca@@I@Z 0000000180046e40 f i TripletScheduler.obj
 0001:00045e50       ??1?$Array@UTripletSet@?A0xb9c32dca@@VNonTrackingAllocator@cloth@nv@@@shdfnd@physx@@QEAA@XZ 0000000180046e50 f i TripletScheduler.obj
 0001:00045e80       ??0?$Array@UTripletSet@?A0xb9c32dca@@VNonTrackingAllocator@cloth@nv@@@shdfnd@physx@@QEAA@IAEBUTripletSet@?A0xb9c32dca@@AEBVNonTrackingAllocator@cloth@nv@@@Z 0000000180046e80 f i TripletScheduler.obj
 0001:00045ea0       ?back@?$Array@IVNonTrackingAllocator@cloth@nv@@@shdfnd@physx@@QEAAAEAIXZ 0000000180046ea0 f i TripletScheduler.obj
 0001:00045eb0       ?swap@?$Array@U?$Vec4T@I@cloth@nv@@VNonTrackingAllocator@23@@shdfnd@physx@@QEAAXAEAV123@@Z 0000000180046eb0 f i TripletScheduler.obj
 0001:00045ee0       ?end@?$Array@U?$Vec4T@I@cloth@nv@@VNonTrackingAllocator@23@@shdfnd@physx@@QEBAPEBU?$Vec4T@I@cloth@nv@@XZ 0000000180046ee0 f i TripletScheduler.obj
 0001:00045ef0       ??A?$Array@U?$Vec4T@I@cloth@nv@@VNonTrackingAllocator@23@@shdfnd@physx@@QEAAAEAU?$Vec4T@I@cloth@nv@@I@Z 0000000180046ef0 f i TripletScheduler.obj
 0001:00045f00       ??0?$Array@U?$Vec4T@I@cloth@nv@@VNonTrackingAllocator@23@@shdfnd@physx@@QEAA@PEBU?$Vec4T@I@cloth@nv@@0AEBVNonTrackingAllocator@45@@Z 0000000180046f00 f i TripletScheduler.obj
 0001:00045fa0       ??0?$Vec4T@G@cloth@nv@@QEAA@GGGG@Z 0000000180046fa0 f i TripletScheduler.obj
 0001:00045fc0       ?destroy@?$Array@UTripletSet@?A0xb9c32dca@@VNonTrackingAllocator@cloth@nv@@@shdfnd@physx@@KAXPEAUTripletSet@?A0xb9c32dca@@0@Z 0000000180046fc0 f i TripletScheduler.obj
 0001:00045fd0       ?deallocate@?$Array@UTripletSet@?A0xb9c32dca@@VNonTrackingAllocator@cloth@nv@@@shdfnd@physx@@IEAAXPEAX@Z 0000000180046fd0 f i TripletScheduler.obj
 0001:00045ff0       ?isInUserMemory@?$Array@UTripletSet@?A0xb9c32dca@@VNonTrackingAllocator@cloth@nv@@@shdfnd@physx@@QEBAIXZ 0000000180046ff0 f i TripletScheduler.obj
 0001:00046000       ?capacity@?$Array@UTripletSet@?A0xb9c32dca@@VNonTrackingAllocator@cloth@nv@@@shdfnd@physx@@QEBAIXZ 0000000180047000 f i TripletScheduler.obj
 0001:00046010       ?begin@?$Range@$$BY03$$CBI@cloth@nv@@QEBAPEAY03$$CBIXZ 0000000180047010 f i TripletScheduler.obj
 0001:00046020       ?end@?$Range@$$BY03$$CBI@cloth@nv@@QEBAPEAY03$$CBIXZ 0000000180047020 f i TripletScheduler.obj
 0001:00046030       ??$PX_UNUSED@I@@YAXAEBI@Z  0000000180047030 f i TripletScheduler.obj
 0001:00046040       ??$iter_swap@PEAU?$Vec4T@I@cloth@nv@@PEAU123@@std@@YAXPEAU?$Vec4T@I@cloth@nv@@0@Z 0000000180047040 f i TripletScheduler.obj
 0001:00046050       ??$?AH@?$Vec4T@I@cloth@nv@@QEAAAEAIH@Z 0000000180047050 f i TripletScheduler.obj
 0001:00046060       ??$maxElement@I@shdfnd@physx@@YAPEBIPEBI0@Z 0000000180047060 f i TripletScheduler.obj
 0001:000460e0       ?resize@?$Array@UTripletSet@?A0xb9c32dca@@VNonTrackingAllocator@cloth@nv@@@shdfnd@physx@@QEAAXIAEBUTripletSet@?A0xb9c32dca@@@Z 00000001800470e0 f i TripletScheduler.obj
 0001:00046180       ?growAndPushBack@?$Array@UTripletSet@?A0xb9c32dca@@VNonTrackingAllocator@cloth@nv@@@shdfnd@physx@@IEAAAEAUTripletSet@?A0xb9c32dca@@AEBU45@@Z 0000000180047180 f i TripletScheduler.obj
 0001:000462e0       ??$?AI@?$Vec4T@I@cloth@nv@@QEAAAEAII@Z 00000001800472e0 f i TripletScheduler.obj
 0001:000462f0       ??$swap@PEAU?$Vec4T@I@cloth@nv@@@shdfnd@physx@@YAXAEAPEAU?$Vec4T@I@cloth@nv@@0@Z 00000001800472f0 f i TripletScheduler.obj
 0001:00046300       ?capacityIncrement@?$Array@UTripletSet@?A0xb9c32dca@@VNonTrackingAllocator@cloth@nv@@@shdfnd@physx@@IEBAIXZ 0000000180047300 f i TripletScheduler.obj
 0001:00046320       ?copy@?$Array@UTripletSet@?A0xb9c32dca@@VNonTrackingAllocator@cloth@nv@@@shdfnd@physx@@KAXPEAUTripletSet@?A0xb9c32dca@@0PEBU45@@Z 0000000180047320 f i TripletScheduler.obj
 0001:00046380       ?create@?$Array@UTripletSet@?A0xb9c32dca@@VNonTrackingAllocator@cloth@nv@@@shdfnd@physx@@KAXPEAUTripletSet@?A0xb9c32dca@@0AEBU45@@Z 0000000180047380 f i TripletScheduler.obj
 0001:000463e0       ?allocate@?$Array@UTripletSet@?A0xb9c32dca@@VNonTrackingAllocator@cloth@nv@@@shdfnd@physx@@IEAAPEAUTripletSet@?A0xb9c32dca@@I@Z 00000001800473e0 f i TripletScheduler.obj
 0001:00046430       ?reserve@?$Array@UTripletSet@?A0xb9c32dca@@VNonTrackingAllocator@cloth@nv@@@shdfnd@physx@@QEAAXI@Z 0000000180047430 f i TripletScheduler.obj
 0001:00046440       ?grow@?$Array@UTripletSet@?A0xb9c32dca@@VNonTrackingAllocator@cloth@nv@@@shdfnd@physx@@IEAAXI@Z 0000000180047440 f i TripletScheduler.obj
 0001:00046450       ?recreate@?$Array@UTripletSet@?A0xb9c32dca@@VNonTrackingAllocator@cloth@nv@@@shdfnd@physx@@IEAAXI@Z 0000000180047450 f i TripletScheduler.obj
 0001:00046530       ??$swap@U?$Vec4T@I@cloth@nv@@X@std@@YAXAEAU?$Vec4T@I@cloth@nv@@0@Z 0000000180047530 f i TripletScheduler.obj
 0001:00046540       ??$move@AEAU?$Vec4T@I@cloth@nv@@@std@@YA$$QEAU?$Vec4T@I@cloth@nv@@AEAU123@@Z 0000000180047540 f i TripletScheduler.obj
 0001:00046550       ?recipSqrt@intrinsics@physx@@YAMM@Z 0000000180047550 f i ClothFabricCooker.obj
 0001:00046570       ?memSet@intrinsics@physx@@YAPEAXPEAXHI@Z 0000000180047570 f i ClothFabricCooker.obj
 0001:00046590       ?PxRecipSqrt@physx@@YAMM@Z 0000000180047590 f i ClothFabricCooker.obj
 0001:000465b0       ?dot@PxVec3@physx@@QEBAMAEBV12@@Z 00000001800475b0 f i ClothFabricCooker.obj
 0001:000465e0       ?cross@PxVec3@physx@@QEBA?AV12@AEBV12@@Z 00000001800475e0 f i ClothFabricCooker.obj
 0001:00046640       ?getNormalized@PxVec3@physx@@QEBA?AV12@XZ 0000000180047640 f i ClothFabricCooker.obj
 0001:000466e0       ?isValid@ClothMeshDesc@cloth@nv@@QEBA_NXZ 00000001800476e0 f i ClothFabricCooker.obj
 0001:00046790       ?isPowerOfTwo@shdfnd@physx@@YA_NI@Z 0000000180047790 f i ClothFabricCooker.obj
 0001:000467b0       ?nextPowerOfTwo@shdfnd@physx@@YAII@Z 00000001800477b0 f i ClothFabricCooker.obj
 0001:000467e0       ?hash@shdfnd@physx@@YAII@Z 00000001800477e0 f i ClothFabricCooker.obj
 0001:00046810       ??_VUserAllocated@cloth@nv@@SAXPEAX@Z 0000000180047810 f i ClothFabricCooker.obj
 0001:00046830       ??0ClothFabricPhase@cloth@nv@@QEAA@W4Enum@ClothFabricPhaseType@12@I@Z 0000000180047830 f i ClothFabricCooker.obj
 0001:00046840       ??0ClothFabricDesc@cloth@nv@@QEAA@XZ 0000000180047840 f i ClothFabricCooker.obj
 0001:00046860       ?setToDefault@ClothFabricDesc@cloth@nv@@QEAAXXZ 0000000180047860 f i ClothFabricCooker.obj
 0001:00046870       ??1ClothFabricCooker@cloth@nv@@UEAA@XZ 0000000180047870 f i ClothFabricCooker.obj
 0001:00046880       ??0ClothFabricCooker@cloth@nv@@QEAA@XZ 0000000180047880 f i ClothFabricCooker.obj
 0001:00046890       ??0ClothFabricCooker@cloth@nv@@QEAA@AEBV012@@Z 0000000180047890 f i ClothFabricCooker.obj
 0001:000468a0       ??4ClothFabricCooker@cloth@nv@@QEAAAEAV012@AEBV012@@Z 00000001800478a0 f i ClothFabricCooker.obj
 0001:000468b0       ??_GClothFabricCooker@cloth@nv@@UEAAPEAXI@Z 00000001800478b0 f i ClothFabricCooker.obj
 0001:00046900       ??_EClothFabricCooker@cloth@nv@@UEAAPEAXI@Z 0000000180047900 f i ClothFabricCooker.obj
 0001:000469d0       ??_I@YAXPEAX_K1P6AX0@Z@Z   00000001800479d0 f i ClothFabricCooker.obj
 0001:000469f0       ??0FabricCookerImpl@cloth@nv@@QEAA@XZ 00000001800479f0 f i ClothFabricCooker.obj
 0001:00046a70       ??_GFabricCookerImpl@cloth@nv@@UEAAPEAXI@Z 0000000180047a70 f i ClothFabricCooker.obj
 0001:00046a70       ??_EFabricCookerImpl@cloth@nv@@UEAAPEAXI@Z 0000000180047a70 f i * CIL library *:* CIL module *
 0001:00046ad0       ??1FabricCookerImpl@cloth@nv@@UEAA@XZ 0000000180047ad0 f i ClothFabricCooker.obj
 0001:00046e90       ??1?$HashMap@V?$Pair@II@shdfnd@physx@@UEdge@?A0xc3cb1990@cloth@nv@@U?$Hash@V?$Pair@II@shdfnd@physx@@@23@VNonTrackingAllocator@67@@shdfnd@physx@@QEAA@XZ 0000000180047e90 f i ClothFabricCooker.obj
 0001:00046eb0       ??1?$HashMapBase@V?$Pair@II@shdfnd@physx@@UEdge@?A0xc3cb1990@cloth@nv@@U?$Hash@V?$Pair@II@shdfnd@physx@@@23@VNonTrackingAllocator@67@@internal@shdfnd@physx@@QEAA@XZ 0000000180047eb0 f i ClothFabricCooker.obj
 0001:00046ed0       ??0CookedData@cloth@nv@@QEAA@XZ 0000000180047ed0 f i ClothFabricCooker.obj
 0001:00046f30       ?__global_array_delete@@YAXPEAX@Z 0000000180047f30 f i ClothFabricCooker.obj
 0001:00046f40       ?__global_array_delete@@YAXPEAX_K@Z 0000000180047f40 f i ClothFabricCooker.obj
 0001:00046f50       ?__global_delete@@YAXPEAX@Z 0000000180047f50 f i ClothFabricCooker.obj
 0001:00046f60       ?__global_delete@@YAXPEAX_K@Z 0000000180047f60 f i ClothFabricCooker.obj
 0001:00046f70       ?reserve@?$Array@UConstraintGraphColorCount@?A0xc3cb1990@cloth@nv@@VNonTrackingAllocator@34@@shdfnd@physx@@QEAAXI@Z 0000000180047f70 f i ClothFabricCooker.obj
 0001:00046f80       ?empty@?$Array@UConstraintGraphColorCount@?A0xc3cb1990@cloth@nv@@VNonTrackingAllocator@34@@shdfnd@physx@@QEBA_NXZ 0000000180047f80 f i ClothFabricCooker.obj
 0001:00046f90       ?clear@?$Array@UConstraintGraphColorCount@?A0xc3cb1990@cloth@nv@@VNonTrackingAllocator@34@@shdfnd@physx@@QEAAXXZ 0000000180047f90 f i ClothFabricCooker.obj
 0001:00046fa0       ??1?$Array@UConstraintGraphColorCount@?A0xc3cb1990@cloth@nv@@VNonTrackingAllocator@34@@shdfnd@physx@@QEAA@XZ 0000000180047fa0 f i ClothFabricCooker.obj
 0001:00046fd0       ??0?$Array@UConstraintGraphColorCount@?A0xc3cb1990@cloth@nv@@VNonTrackingAllocator@34@@shdfnd@physx@@QEAA@AEBVNonTrackingAllocator@cloth@nv@@@Z 0000000180047fd0 f i ClothFabricCooker.obj
 0001:00046fe0       ?reserve@?$Array@V?$Pair@V?$Pair@II@shdfnd@physx@@W4Enum@ClothFabricPhaseType@cloth@nv@@@shdfnd@physx@@VNonTrackingAllocator@cloth@nv@@@shdfnd@physx@@QEAAXI@Z 0000000180047fe0 f i ClothFabricCooker.obj
 0001:00046ff0       ?pushBack@?$Array@V?$Pair@V?$Pair@II@shdfnd@physx@@W4Enum@ClothFabricPhaseType@cloth@nv@@@shdfnd@physx@@VNonTrackingAllocator@cloth@nv@@@shdfnd@physx@@QEAAAEAV?$Pair@V?$Pair@II@shdfnd@physx@@W4Enum@ClothFabricPhaseType@cloth@nv@@@23@AEBV423@@Z 0000000180047ff0 f i ClothFabricCooker.obj
 0001:00047050       ?size@?$Array@V?$Pair@V?$Pair@II@shdfnd@physx@@W4Enum@ClothFabricPhaseType@cloth@nv@@@shdfnd@physx@@VNonTrackingAllocator@cloth@nv@@@shdfnd@physx@@QEBAIXZ 0000000180048050 f i ClothFabricCooker.obj
 0001:00047060       ??A?$Array@V?$Pair@V?$Pair@II@shdfnd@physx@@W4Enum@ClothFabricPhaseType@cloth@nv@@@shdfnd@physx@@VNonTrackingAllocator@cloth@nv@@@shdfnd@physx@@QEAAAEAV?$Pair@V?$Pair@II@shdfnd@physx@@W4Enum@ClothFabricPhaseType@cloth@nv@@@12@I@Z 0000000180048060 f i ClothFabricCooker.obj
 0001:00047070       ??1?$Array@V?$Pair@V?$Pair@II@shdfnd@physx@@W4Enum@ClothFabricPhaseType@cloth@nv@@@shdfnd@physx@@VNonTrackingAllocator@cloth@nv@@@shdfnd@physx@@QEAA@XZ 0000000180048070 f i ClothFabricCooker.obj
 0001:000470a0       ??0?$Array@V?$Pair@V?$Pair@II@shdfnd@physx@@W4Enum@ClothFabricPhaseType@cloth@nv@@@shdfnd@physx@@VNonTrackingAllocator@cloth@nv@@@shdfnd@physx@@QEAA@AEBVNonTrackingAllocator@cloth@nv@@@Z 00000001800480a0 f i ClothFabricCooker.obj
 0001:000470b0       ?done@Iter@?$HashBase@V?$Pair@$$CBV?$Pair@II@shdfnd@physx@@UEdge@?A0xc3cb1990@cloth@nv@@@shdfnd@physx@@V?$Pair@II@23@U?$Hash@V?$Pair@II@shdfnd@physx@@@23@UGetKey@?$HashMapBase@V?$Pair@II@shdfnd@physx@@UEdge@?A0xc3cb1990@cloth@nv@@U?$Hash@V?$Pair@II@shdfnd@physx@@@23@VNonTrackingAllocator@67@@internal@23@VNonTrackingAllocator@cloth@nv@@$00@internal@shdfnd@physx@@QEBA_NXZ 00000001800480b0 f i ClothFabricCooker.obj
 0001:000470c0       ??EIter@?$HashBase@V?$Pair@$$CBV?$Pair@II@shdfnd@physx@@UEdge@?A0xc3cb1990@cloth@nv@@@shdfnd@physx@@V?$Pair@II@23@U?$Hash@V?$Pair@II@shdfnd@physx@@@23@UGetKey@?$HashMapBase@V?$Pair@II@shdfnd@physx@@UEdge@?A0xc3cb1990@cloth@nv@@U?$Hash@V?$Pair@II@shdfnd@physx@@@23@VNonTrackingAllocator@67@@internal@23@VNonTrackingAllocator@cloth@nv@@$00@internal@shdfnd@physx@@QEAA?AV01234@XZ 00000001800480c0 f i ClothFabricCooker.obj
 0001:00047120       ??CIter@?$HashBase@V?$Pair@$$CBV?$Pair@II@shdfnd@physx@@UEdge@?A0xc3cb1990@cloth@nv@@@shdfnd@physx@@V?$Pair@II@23@U?$Hash@V?$Pair@II@shdfnd@physx@@@23@UGetKey@?$HashMapBase@V?$Pair@II@shdfnd@physx@@UEdge@?A0xc3cb1990@cloth@nv@@U?$Hash@V?$Pair@II@shdfnd@physx@@@23@VNonTrackingAllocator@67@@internal@23@VNonTrackingAllocator@cloth@nv@@$00@internal@shdfnd@physx@@QEAAPEAV?$Pair@$$CBV?$Pair@II@shdfnd@physx@@UEdge@?A0xc3cb1990@cloth@nv@@@34@XZ 0000000180048120 f i ClothFabricCooker.obj
 0001:00047140       ??1?$HashBase@V?$Pair@$$CBV?$Pair@II@shdfnd@physx@@UEdge@?A0xc3cb1990@cloth@nv@@@shdfnd@physx@@V?$Pair@II@23@U?$Hash@V?$Pair@II@shdfnd@physx@@@23@UGetKey@?$HashMapBase@V?$Pair@II@shdfnd@physx@@UEdge@?A0xc3cb1990@cloth@nv@@U?$Hash@V?$Pair@II@shdfnd@physx@@@23@VNonTrackingAllocator@67@@internal@23@VNonTrackingAllocator@cloth@nv@@$00@internal@shdfnd@physx@@QEAA@XZ 0000000180048140 f i ClothFabricCooker.obj
 0001:00047160       ?size@?$HashMapBase@V?$Pair@II@shdfnd@physx@@UEdge@?A0xc3cb1990@cloth@nv@@U?$Hash@V?$Pair@II@shdfnd@physx@@@23@VNonTrackingAllocator@67@@internal@shdfnd@physx@@QEBAIXZ 0000000180048160 f i ClothFabricCooker.obj
 0001:00047170       ??A?$HashMapBase@V?$Pair@II@shdfnd@physx@@UEdge@?A0xc3cb1990@cloth@nv@@U?$Hash@V?$Pair@II@shdfnd@physx@@@23@VNonTrackingAllocator@67@@internal@shdfnd@physx@@QEAAAEAUEdge@?A0xc3cb1990@cloth@nv@@AEBV?$Pair@II@23@@Z 0000000180048170 f i ClothFabricCooker.obj
 0001:000471d0       ?getIterator@?$HashMap@V?$Pair@II@shdfnd@physx@@UEdge@?A0xc3cb1990@cloth@nv@@U?$Hash@V?$Pair@II@shdfnd@physx@@@23@VNonTrackingAllocator@67@@shdfnd@physx@@QEAA?AVIter@?$HashBase@V?$Pair@$$CBV?$Pair@II@shdfnd@physx@@UEdge@?A0xc3cb1990@cloth@nv@@@shdfnd@physx@@V?$Pair@II@23@U?$Hash@V?$Pair@II@shdfnd@physx@@@23@UGetKey@?$HashMapBase@V?$Pair@II@shdfnd@physx@@UEdge@?A0xc3cb1990@cloth@nv@@U?$Hash@V?$Pair@II@shdfnd@physx@@@23@VNonTrackingAllocator@67@@internal@23@VNonTrackingAllocator@cloth@nv@@$00@internal@23@XZ 00000001800481d0 f i ClothFabricCooker.obj
 0001:00047220       ??0?$HashMap@V?$Pair@II@shdfnd@physx@@UEdge@?A0xc3cb1990@cloth@nv@@U?$Hash@V?$Pair@II@shdfnd@physx@@@23@VNonTrackingAllocator@67@@shdfnd@physx@@QEAA@IM@Z 0000000180048220 f i ClothFabricCooker.obj
 0001:00047270       ??E?$PxStrideIterator@$$CBM@physx@@QEAA?AV01@H@Z 0000000180048270 f i ClothFabricCooker.obj
 0001:00047280       ??A?$PxStrideIterator@$$CBM@physx@@QEBAAEBMI@Z 0000000180048280 f i ClothFabricCooker.obj
 0001:00047290       ??D?$PxStrideIterator@$$CBM@physx@@QEBAAEBMXZ 0000000180048290 f i ClothFabricCooker.obj
 0001:000472a0       ?ptr@?$PxStrideIterator@$$CBM@physx@@QEBAPEBMXZ 00000001800482a0 f i ClothFabricCooker.obj
 0001:000472b0       ??0?$PxStrideIterator@$$CBM@physx@@QEAA@PEBMI@Z 00000001800482b0 f i ClothFabricCooker.obj
 0001:000472c0       ??E?$PxStrideIterator@$$CBVPxVec3@physx@@@physx@@QEAA?AV01@H@Z 00000001800482c0 f i ClothFabricCooker.obj
 0001:000472d0       ??D?$PxStrideIterator@$$CBVPxVec3@physx@@@physx@@QEBAAEBVPxVec3@1@XZ 00000001800482d0 f i ClothFabricCooker.obj
 0001:000472e0       ??0?$PxStrideIterator@$$CBVPxVec3@physx@@@physx@@QEAA@PEBVPxVec3@1@I@Z 00000001800482e0 f i ClothFabricCooker.obj
 0001:000472f0       ??0?$Pair@V?$Pair@II@shdfnd@physx@@W4Enum@ClothFabricPhaseType@cloth@nv@@@shdfnd@physx@@QEAA@AEBV?$Pair@II@12@AEBW4Enum@ClothFabricPhaseType@cloth@nv@@@Z 00000001800482f0 f i ClothFabricCooker.obj
 0001:00047310       ??0?$Pair@II@shdfnd@physx@@QEAA@AEBI0@Z 0000000180048310 f i ClothFabricCooker.obj
 0001:00047320       ?begin@?$Array@UClothFabricPhase@cloth@nv@@VNonTrackingAllocator@23@@shdfnd@physx@@QEAAPEAUClothFabricPhase@cloth@nv@@XZ 0000000180048320 f i ClothFabricCooker.obj
 0001:00047330       ??A?$Array@UClothFabricPhase@cloth@nv@@VNonTrackingAllocator@23@@shdfnd@physx@@QEAAAEAUClothFabricPhase@cloth@nv@@I@Z 0000000180048330 f i ClothFabricCooker.obj
 0001:00047340       ??1?$Array@UClothFabricPhase@cloth@nv@@VNonTrackingAllocator@23@@shdfnd@physx@@QEAA@XZ 0000000180048340 f i ClothFabricCooker.obj
 0001:00047370       ??0?$Array@UClothFabricPhase@cloth@nv@@VNonTrackingAllocator@23@@shdfnd@physx@@QEAA@AEBVNonTrackingAllocator@cloth@nv@@@Z 0000000180048370 f i ClothFabricCooker.obj
 0001:00047380       ?begin@?$Array@MVNonTrackingAllocator@cloth@nv@@@shdfnd@physx@@QEBAPEBMXZ 0000000180048380 f i ClothFabricCooker.obj
 0001:00047390       ??4?$Array@MVNonTrackingAllocator@cloth@nv@@@shdfnd@physx@@QEAAAEAV012@AEBV012@@Z 0000000180048390 f i ClothFabricCooker.obj
 0001:000473f0       ??0?$Array@MVNonTrackingAllocator@cloth@nv@@@shdfnd@physx@@QEAA@AEBVNonTrackingAllocator@cloth@nv@@@Z 00000001800483f0 f i ClothFabricCooker.obj
 0001:00047400       ?pushBack@?$Array@W4Enum@ClothFabricPhaseType@cloth@nv@@VNonTrackingAllocator@34@@shdfnd@physx@@QEAAAEAW4Enum@ClothFabricPhaseType@cloth@nv@@AEBW44567@@Z 0000000180048400 f i ClothFabricCooker.obj
 0001:00047440       ??A?$Array@W4Enum@ClothFabricPhaseType@cloth@nv@@VNonTrackingAllocator@34@@shdfnd@physx@@QEAAAEAW4Enum@ClothFabricPhaseType@cloth@nv@@I@Z 0000000180048440 f i ClothFabricCooker.obj
 0001:00047450       ??A?$Array@W4Enum@ClothFabricPhaseType@cloth@nv@@VNonTrackingAllocator@34@@shdfnd@physx@@QEBAAEBW4Enum@ClothFabricPhaseType@cloth@nv@@I@Z 0000000180048450 f i ClothFabricCooker.obj
 0001:00047460       ??1?$Array@W4Enum@ClothFabricPhaseType@cloth@nv@@VNonTrackingAllocator@34@@shdfnd@physx@@QEAA@XZ 0000000180048460 f i ClothFabricCooker.obj
 0001:00047490       ??0?$Array@W4Enum@ClothFabricPhaseType@cloth@nv@@VNonTrackingAllocator@34@@shdfnd@physx@@QEAA@AEBVNonTrackingAllocator@cloth@nv@@@Z 0000000180048490 f i ClothFabricCooker.obj
 0001:000474a0       ??4?$Array@IVNonTrackingAllocator@cloth@nv@@@shdfnd@physx@@QEAAAEAV012@AEBV012@@Z 00000001800484a0 f i ClothFabricCooker.obj
 0001:00047510       ??A?$Array@HVNonTrackingAllocator@cloth@nv@@@shdfnd@physx@@QEAAAEAHI@Z 0000000180048510 f i ClothFabricCooker.obj
 0001:00047520       ?grow@?$Array@UConstraintGraphColorCount@?A0xc3cb1990@cloth@nv@@VNonTrackingAllocator@34@@shdfnd@physx@@IEAAXI@Z 0000000180048520 f i ClothFabricCooker.obj
 0001:00047530       ?destroy@?$Array@UConstraintGraphColorCount@?A0xc3cb1990@cloth@nv@@VNonTrackingAllocator@34@@shdfnd@physx@@KAXPEAUConstraintGraphColorCount@?A0xc3cb1990@cloth@nv@@0@Z 0000000180048530 f i ClothFabricCooker.obj
 0001:00047540       ?deallocate@?$Array@UConstraintGraphColorCount@?A0xc3cb1990@cloth@nv@@VNonTrackingAllocator@34@@shdfnd@physx@@IEAAXPEAX@Z 0000000180048540 f i ClothFabricCooker.obj
 0001:00047560       ?isInUserMemory@?$Array@UConstraintGraphColorCount@?A0xc3cb1990@cloth@nv@@VNonTrackingAllocator@34@@shdfnd@physx@@QEBAIXZ 0000000180048560 f i ClothFabricCooker.obj
 0001:00047570       ?capacity@?$Array@UConstraintGraphColorCount@?A0xc3cb1990@cloth@nv@@VNonTrackingAllocator@34@@shdfnd@physx@@QEBAIXZ 0000000180048570 f i ClothFabricCooker.obj
 0001:00047580       ?grow@?$Array@V?$Pair@V?$Pair@II@shdfnd@physx@@W4Enum@ClothFabricPhaseType@cloth@nv@@@shdfnd@physx@@VNonTrackingAllocator@cloth@nv@@@shdfnd@physx@@IEAAXI@Z 0000000180048580 f i ClothFabricCooker.obj
 0001:00047590       ?destroy@?$Array@V?$Pair@V?$Pair@II@shdfnd@physx@@W4Enum@ClothFabricPhaseType@cloth@nv@@@shdfnd@physx@@VNonTrackingAllocator@cloth@nv@@@shdfnd@physx@@KAXPEAV?$Pair@V?$Pair@II@shdfnd@physx@@W4Enum@ClothFabricPhaseType@cloth@nv@@@23@0@Z 0000000180048590 f i ClothFabricCooker.obj
 0001:000475a0       ?deallocate@?$Array@V?$Pair@V?$Pair@II@shdfnd@physx@@W4Enum@ClothFabricPhaseType@cloth@nv@@@shdfnd@physx@@VNonTrackingAllocator@cloth@nv@@@shdfnd@physx@@IEAAXPEAX@Z 00000001800485a0 f i ClothFabricCooker.obj
 0001:000475c0       ?isInUserMemory@?$Array@V?$Pair@V?$Pair@II@shdfnd@physx@@W4Enum@ClothFabricPhaseType@cloth@nv@@@shdfnd@physx@@VNonTrackingAllocator@cloth@nv@@@shdfnd@physx@@QEBAIXZ 00000001800485c0 f i ClothFabricCooker.obj
 0001:000475d0       ?capacity@?$Array@V?$Pair@V?$Pair@II@shdfnd@physx@@W4Enum@ClothFabricPhaseType@cloth@nv@@@shdfnd@physx@@VNonTrackingAllocator@cloth@nv@@@shdfnd@physx@@QEBAIXZ 00000001800485d0 f i ClothFabricCooker.obj
 0001:000475e0       ?advance@Iter@?$HashBase@V?$Pair@$$CBV?$Pair@II@shdfnd@physx@@UEdge@?A0xc3cb1990@cloth@nv@@@shdfnd@physx@@V?$Pair@II@23@U?$Hash@V?$Pair@II@shdfnd@physx@@@23@UGetKey@?$HashMapBase@V?$Pair@II@shdfnd@physx@@UEdge@?A0xc3cb1990@cloth@nv@@U?$Hash@V?$Pair@II@shdfnd@physx@@@23@VNonTrackingAllocator@67@@internal@23@VNonTrackingAllocator@cloth@nv@@$00@internal@shdfnd@physx@@AEAAXXZ 00000001800485e0 f i ClothFabricCooker.obj
 0001:00047620       ?check@Iter@?$HashBase@V?$Pair@$$CBV?$Pair@II@shdfnd@physx@@UEdge@?A0xc3cb1990@cloth@nv@@@shdfnd@physx@@V?$Pair@II@23@U?$Hash@V?$Pair@II@shdfnd@physx@@@23@UGetKey@?$HashMapBase@V?$Pair@II@shdfnd@physx@@UEdge@?A0xc3cb1990@cloth@nv@@U?$Hash@V?$Pair@II@shdfnd@physx@@@23@VNonTrackingAllocator@67@@internal@23@VNonTrackingAllocator@cloth@nv@@$00@internal@shdfnd@physx@@QEBAXXZ 0000000180048620 f i ClothFabricCooker.obj
 0001:00047630       ??0Iter@?$HashBase@V?$Pair@$$CBV?$Pair@II@shdfnd@physx@@UEdge@?A0xc3cb1990@cloth@nv@@@shdfnd@physx@@V?$Pair@II@23@U?$Hash@V?$Pair@II@shdfnd@physx@@@23@UGetKey@?$HashMapBase@V?$Pair@II@shdfnd@physx@@UEdge@?A0xc3cb1990@cloth@nv@@U?$Hash@V?$Pair@II@shdfnd@physx@@@23@VNonTrackingAllocator@67@@internal@23@VNonTrackingAllocator@cloth@nv@@$00@internal@shdfnd@physx@@QEAA@AEAV1234@@Z 0000000180048630 f i ClothFabricCooker.obj
 0001:00047690       ?destroy@?$HashBase@V?$Pair@$$CBV?$Pair@II@shdfnd@physx@@UEdge@?A0xc3cb1990@cloth@nv@@@shdfnd@physx@@V?$Pair@II@23@U?$Hash@V?$Pair@II@shdfnd@physx@@@23@UGetKey@?$HashMapBase@V?$Pair@II@shdfnd@physx@@UEdge@?A0xc3cb1990@cloth@nv@@U?$Hash@V?$Pair@II@shdfnd@physx@@@23@VNonTrackingAllocator@67@@internal@23@VNonTrackingAllocator@cloth@nv@@$00@internal@shdfnd@physx@@AEAAXXZ 0000000180048690 f i ClothFabricCooker.obj
 0001:000476d0       ?size@?$HashBase@V?$Pair@$$CBV?$Pair@II@shdfnd@physx@@UEdge@?A0xc3cb1990@cloth@nv@@@shdfnd@physx@@V?$Pair@II@23@U?$Hash@V?$Pair@II@shdfnd@physx@@@23@UGetKey@?$HashMapBase@V?$Pair@II@shdfnd@physx@@UEdge@?A0xc3cb1990@cloth@nv@@U?$Hash@V?$Pair@II@shdfnd@physx@@@23@VNonTrackingAllocator@67@@internal@23@VNonTrackingAllocator@cloth@nv@@$00@internal@shdfnd@physx@@QEBAIXZ 00000001800486d0 f i ClothFabricCooker.obj
 0001:000476e0       ?create@?$HashBase@V?$Pair@$$CBV?$Pair@II@shdfnd@physx@@UEdge@?A0xc3cb1990@cloth@nv@@@shdfnd@physx@@V?$Pair@II@23@U?$Hash@V?$Pair@II@shdfnd@physx@@@23@UGetKey@?$HashMapBase@V?$Pair@II@shdfnd@physx@@UEdge@?A0xc3cb1990@cloth@nv@@U?$Hash@V?$Pair@II@shdfnd@physx@@@23@VNonTrackingAllocator@67@@internal@23@VNonTrackingAllocator@cloth@nv@@$00@internal@shdfnd@physx@@QEAAPEAV?$Pair@$$CBV?$Pair@II@shdfnd@physx@@UEdge@?A0xc3cb1990@cloth@nv@@@34@AEBV?$Pair@II@34@AEA_N@Z 00000001800486e0 f i ClothFabricCooker.obj
 0001:000478c0       ??0?$Pair@$$CBV?$Pair@II@shdfnd@physx@@UEdge@?A0xc3cb1990@cloth@nv@@@shdfnd@physx@@QEAA@AEBV?$Pair@II@12@AEBUEdge@?A0xc3cb1990@cloth@nv@@@Z 00000001800488c0 f i ClothFabricCooker.obj
 0001:000478e0       ??0?$HashMapBase@V?$Pair@II@shdfnd@physx@@UEdge@?A0xc3cb1990@cloth@nv@@U?$Hash@V?$Pair@II@shdfnd@physx@@@23@VNonTrackingAllocator@67@@internal@shdfnd@physx@@QEAA@IM@Z 00000001800488e0 f i ClothFabricCooker.obj
 0001:00047930       ?byteAdd@?$PxStrideIterator@$$CBM@physx@@CAPEBMPEBMI@Z 0000000180048930 f i ClothFabricCooker.obj
 0001:00047940       ?stride@?$PxStrideIterator@$$CBM@physx@@QEBAIXZ 0000000180048940 f i ClothFabricCooker.obj
 0001:00047950       ?byteAdd@?$PxStrideIterator@$$CBVPxVec3@physx@@@physx@@CAPEBVPxVec3@2@PEBV32@I@Z 0000000180048950 f i ClothFabricCooker.obj
 0001:00047960       ?stride@?$PxStrideIterator@$$CBVPxVec3@physx@@@physx@@QEBAIXZ 0000000180048960 f i ClothFabricCooker.obj
 0001:00047970       ??0?$Pair@V?$Pair@II@shdfnd@physx@@W4Enum@ClothFabricPhaseType@cloth@nv@@@shdfnd@physx@@QEAA@AEBV012@@Z 0000000180048970 f i ClothFabricCooker.obj
 0001:00047990       ??0?$Pair@II@shdfnd@physx@@QEAA@AEBV012@@Z 0000000180048990 f i ClothFabricCooker.obj
 0001:000479a0       ?destroy@?$Array@UClothFabricPhase@cloth@nv@@VNonTrackingAllocator@23@@shdfnd@physx@@KAXPEAUClothFabricPhase@cloth@nv@@0@Z 00000001800489a0 f i ClothFabricCooker.obj
 0001:000479b0       ?deallocate@?$Array@UClothFabricPhase@cloth@nv@@VNonTrackingAllocator@23@@shdfnd@physx@@IEAAXPEAX@Z 00000001800489b0 f i ClothFabricCooker.obj
 0001:000479d0       ?isInUserMemory@?$Array@UClothFabricPhase@cloth@nv@@VNonTrackingAllocator@23@@shdfnd@physx@@QEBAIXZ 00000001800489d0 f i ClothFabricCooker.obj
 0001:000479e0       ?capacity@?$Array@UClothFabricPhase@cloth@nv@@VNonTrackingAllocator@23@@shdfnd@physx@@QEBAIXZ 00000001800489e0 f i ClothFabricCooker.obj
 0001:000479f0       ?destroy@?$Array@W4Enum@ClothFabricPhaseType@cloth@nv@@VNonTrackingAllocator@34@@shdfnd@physx@@KAXPEAW4Enum@ClothFabricPhaseType@cloth@nv@@0@Z 00000001800489f0 f i ClothFabricCooker.obj
 0001:00047a00       ?deallocate@?$Array@W4Enum@ClothFabricPhaseType@cloth@nv@@VNonTrackingAllocator@34@@shdfnd@physx@@IEAAXPEAX@Z 0000000180048a00 f i ClothFabricCooker.obj
 0001:00047a20       ?isInUserMemory@?$Array@W4Enum@ClothFabricPhaseType@cloth@nv@@VNonTrackingAllocator@34@@shdfnd@physx@@QEBAIXZ 0000000180048a20 f i ClothFabricCooker.obj
 0001:00047a30       ?capacity@?$Array@W4Enum@ClothFabricPhaseType@cloth@nv@@VNonTrackingAllocator@34@@shdfnd@physx@@QEBAIXZ 0000000180048a30 f i ClothFabricCooker.obj
 0001:00047a40       ?skip@Iter@?$HashBase@V?$Pair@$$CBV?$Pair@II@shdfnd@physx@@UEdge@?A0xc3cb1990@cloth@nv@@@shdfnd@physx@@V?$Pair@II@23@U?$Hash@V?$Pair@II@shdfnd@physx@@@23@UGetKey@?$HashMapBase@V?$Pair@II@shdfnd@physx@@UEdge@?A0xc3cb1990@cloth@nv@@U?$Hash@V?$Pair@II@shdfnd@physx@@@23@VNonTrackingAllocator@67@@internal@23@VNonTrackingAllocator@cloth@nv@@$00@internal@shdfnd@physx@@AEAAXXZ 0000000180048a40 f i ClothFabricCooker.obj
 0001:00047a70       ?grow@?$HashBase@V?$Pair@$$CBV?$Pair@II@shdfnd@physx@@UEdge@?A0xc3cb1990@cloth@nv@@@shdfnd@physx@@V?$Pair@II@23@U?$Hash@V?$Pair@II@shdfnd@physx@@@23@UGetKey@?$HashMapBase@V?$Pair@II@shdfnd@physx@@UEdge@?A0xc3cb1990@cloth@nv@@U?$Hash@V?$Pair@II@shdfnd@physx@@@23@VNonTrackingAllocator@67@@internal@23@VNonTrackingAllocator@cloth@nv@@$00@internal@shdfnd@physx@@AEAAXXZ 0000000180048a70 f i ClothFabricCooker.obj
 0001:00047a90       ?hash@?$HashBase@V?$Pair@$$CBV?$Pair@II@shdfnd@physx@@UEdge@?A0xc3cb1990@cloth@nv@@@shdfnd@physx@@V?$Pair@II@23@U?$Hash@V?$Pair@II@shdfnd@physx@@@23@UGetKey@?$HashMapBase@V?$Pair@II@shdfnd@physx@@UEdge@?A0xc3cb1990@cloth@nv@@U?$Hash@V?$Pair@II@shdfnd@physx@@@23@VNonTrackingAllocator@67@@internal@23@VNonTrackingAllocator@cloth@nv@@$00@internal@shdfnd@physx@@AEBAIAEBV?$Pair@II@34@@Z 0000000180048a90 f i ClothFabricCooker.obj
 0001:00047b10       ?freeListEmpty@?$HashBase@V?$Pair@$$CBV?$Pair@II@shdfnd@physx@@UEdge@?A0xc3cb1990@cloth@nv@@@shdfnd@physx@@V?$Pair@II@23@U?$Hash@V?$Pair@II@shdfnd@physx@@@23@UGetKey@?$HashMapBase@V?$Pair@II@shdfnd@physx@@UEdge@?A0xc3cb1990@cloth@nv@@U?$Hash@V?$Pair@II@shdfnd@physx@@@23@VNonTrackingAllocator@67@@internal@23@VNonTrackingAllocator@cloth@nv@@$00@internal@shdfnd@physx@@AEBA_NXZ 0000000180048b10 f i ClothFabricCooker.obj
 0001:00047b20       ?freeListGetNext@?$HashBase@V?$Pair@$$CBV?$Pair@II@shdfnd@physx@@UEdge@?A0xc3cb1990@cloth@nv@@@shdfnd@physx@@V?$Pair@II@23@U?$Hash@V?$Pair@II@shdfnd@physx@@@23@UGetKey@?$HashMapBase@V?$Pair@II@shdfnd@physx@@UEdge@?A0xc3cb1990@cloth@nv@@U?$Hash@V?$Pair@II@shdfnd@physx@@@23@VNonTrackingAllocator@67@@internal@23@VNonTrackingAllocator@cloth@nv@@$00@internal@shdfnd@physx@@AEAAIXZ 0000000180048b20 f i ClothFabricCooker.obj
 0001:00047b30       ??0?$HashBase@V?$Pair@$$CBV?$Pair@II@shdfnd@physx@@UEdge@?A0xc3cb1990@cloth@nv@@@shdfnd@physx@@V?$Pair@II@23@U?$Hash@V?$Pair@II@shdfnd@physx@@@23@UGetKey@?$HashMapBase@V?$Pair@II@shdfnd@physx@@UEdge@?A0xc3cb1990@cloth@nv@@U?$Hash@V?$Pair@II@shdfnd@physx@@@23@VNonTrackingAllocator@67@@internal@23@VNonTrackingAllocator@cloth@nv@@$00@internal@shdfnd@physx@@QEAA@IM@Z 0000000180048b30 f i ClothFabricCooker.obj
 0001:00047b80       ??RGetKey@?$HashMapBase@V?$Pair@II@shdfnd@physx@@UEdge@?A0xc3cb1990@cloth@nv@@U?$Hash@V?$Pair@II@shdfnd@physx@@@23@VNonTrackingAllocator@67@@internal@shdfnd@physx@@QEAAAEBV?$Pair@II@34@AEBV?$Pair@$$CBV?$Pair@II@shdfnd@physx@@UEdge@?A0xc3cb1990@cloth@nv@@@34@@Z 0000000180048b80 f i ClothFabricCooker.obj
 0001:00047b90       ?equal@?$Hash@V?$Pair@II@shdfnd@physx@@@shdfnd@physx@@QEBA_NAEBV?$Pair@II@23@0@Z 0000000180048b90 f i ClothFabricCooker.obj
 0001:00047bb0       ?hash@?$HashBase@V?$Pair@$$CBV?$Pair@II@shdfnd@physx@@UEdge@?A0xc3cb1990@cloth@nv@@@shdfnd@physx@@V?$Pair@II@23@U?$Hash@V?$Pair@II@shdfnd@physx@@@23@UGetKey@?$HashMapBase@V?$Pair@II@shdfnd@physx@@UEdge@?A0xc3cb1990@cloth@nv@@U?$Hash@V?$Pair@II@shdfnd@physx@@@23@VNonTrackingAllocator@67@@internal@23@VNonTrackingAllocator@cloth@nv@@$00@internal@shdfnd@physx@@AEBAIAEBV?$Pair@II@34@I@Z 0000000180048bb0 f i ClothFabricCooker.obj
 0001:00047c30       ?reserve@?$HashBase@V?$Pair@$$CBV?$Pair@II@shdfnd@physx@@UEdge@?A0xc3cb1990@cloth@nv@@@shdfnd@physx@@V?$Pair@II@23@U?$Hash@V?$Pair@II@shdfnd@physx@@@23@UGetKey@?$HashMapBase@V?$Pair@II@shdfnd@physx@@UEdge@?A0xc3cb1990@cloth@nv@@U?$Hash@V?$Pair@II@shdfnd@physx@@@23@VNonTrackingAllocator@67@@internal@23@VNonTrackingAllocator@cloth@nv@@$00@internal@shdfnd@physx@@QEAAXI@Z 0000000180048c30 f i ClothFabricCooker.obj
 0001:00047c40       ?init@?$HashBase@V?$Pair@$$CBV?$Pair@II@shdfnd@physx@@UEdge@?A0xc3cb1990@cloth@nv@@@shdfnd@physx@@V?$Pair@II@23@U?$Hash@V?$Pair@II@shdfnd@physx@@@23@UGetKey@?$HashMapBase@V?$Pair@II@shdfnd@physx@@UEdge@?A0xc3cb1990@cloth@nv@@U?$Hash@V?$Pair@II@shdfnd@physx@@@23@VNonTrackingAllocator@67@@internal@23@VNonTrackingAllocator@cloth@nv@@$00@internal@shdfnd@physx@@AEAAXIM@Z 0000000180048c40 f i ClothFabricCooker.obj
 0001:00047c70       ??8?$Pair@II@shdfnd@physx@@QEBA_NAEBV012@@Z 0000000180048c70 f i ClothFabricCooker.obj
 0001:00047c90       ?reserveInternal@?$HashBase@V?$Pair@$$CBV?$Pair@II@shdfnd@physx@@UEdge@?A0xc3cb1990@cloth@nv@@@shdfnd@physx@@V?$Pair@II@23@U?$Hash@V?$Pair@II@shdfnd@physx@@@23@UGetKey@?$HashMapBase@V?$Pair@II@shdfnd@physx@@UEdge@?A0xc3cb1990@cloth@nv@@U?$Hash@V?$Pair@II@shdfnd@physx@@@23@VNonTrackingAllocator@67@@internal@23@VNonTrackingAllocator@cloth@nv@@$00@internal@shdfnd@physx@@AEAAXI@Z 0000000180048c90 f i ClothFabricCooker.obj
 0001:00047eb0       ??R?$Hash@V?$Pair@II@shdfnd@physx@@@shdfnd@physx@@QEBAIAEBV?$Pair@II@12@@Z 0000000180048eb0 f i ClothFabricCooker.obj
 0001:00047f20       ?freeListAdd@?$HashBase@V?$Pair@$$CBV?$Pair@II@shdfnd@physx@@UEdge@?A0xc3cb1990@cloth@nv@@@shdfnd@physx@@V?$Pair@II@23@U?$Hash@V?$Pair@II@shdfnd@physx@@@23@UGetKey@?$HashMapBase@V?$Pair@II@shdfnd@physx@@UEdge@?A0xc3cb1990@cloth@nv@@U?$Hash@V?$Pair@II@shdfnd@physx@@@23@VNonTrackingAllocator@67@@internal@23@VNonTrackingAllocator@cloth@nv@@$00@internal@shdfnd@physx@@AEAAXII@Z 0000000180048f20 f i ClothFabricCooker.obj
 0001:00047f30       ??0?$Pair@$$CBV?$Pair@II@shdfnd@physx@@UEdge@?A0xc3cb1990@cloth@nv@@@shdfnd@physx@@QEAA@AEBV012@@Z 0000000180048f30 f i ClothFabricCooker.obj
 0001:00047f50       ??0?$Range@$$CBI@cloth@nv@@QEAA@XZ 0000000180048f50 f i ClothFabricCooker.obj
 0001:00047f60       ??0?$Range@$$CBM@cloth@nv@@QEAA@XZ 0000000180048f60 f i ClothFabricCooker.obj
 0001:00047f70       ??0?$Range@$$CBH@cloth@nv@@QEAA@XZ 0000000180048f70 f i ClothFabricCooker.obj
 0001:00047f80       ?size@?$Range@$$CBH@cloth@nv@@QEBAIXZ 0000000180048f80 f i ClothFabricCooker.obj
 0001:00047f90       ??A?$Range@$$CBH@cloth@nv@@QEBAAEBHI@Z 0000000180048f90 f i ClothFabricCooker.obj
 0001:00047fa0       ?resize@?$Array@HVNonTrackingAllocator@cloth@nv@@@shdfnd@physx@@QEAAXIAEBH@Z 0000000180048fa0 f i ClothFabricCooker.obj
 0001:00048010       ?growAndPushBack@?$Array@W4Enum@ClothFabricPhaseType@cloth@nv@@VNonTrackingAllocator@34@@shdfnd@physx@@IEAAAEAW4Enum@ClothFabricPhaseType@cloth@nv@@AEBW44567@@Z 0000000180049010 f i ClothFabricCooker.obj
 0001:00048100       ?resize@?$Array@UClothFabricPhase@cloth@nv@@VNonTrackingAllocator@23@@shdfnd@physx@@QEAAXIAEBUClothFabricPhase@cloth@nv@@@Z 0000000180049100 f i ClothFabricCooker.obj
 0001:00048170       ??$?4VNonTrackingAllocator@cloth@nv@@@?$Array@IVNonTrackingAllocator@cloth@nv@@@shdfnd@physx@@QEAAAEAV012@AEBV012@@Z 0000000180049170 f i ClothFabricCooker.obj
 0001:000481e0       ??$?4VNonTrackingAllocator@cloth@nv@@@?$Array@MVNonTrackingAllocator@cloth@nv@@@shdfnd@physx@@QEAAAEAV012@AEBV012@@Z 00000001800491e0 f i ClothFabricCooker.obj
 0001:00048cf0       ??$PxMin@I@physx@@YAIII@Z  0000000180049cf0 f i ClothFabricCooker.obj
 0001:00048d00       ??$PxMax@I@physx@@YAIII@Z  0000000180049d00 f i ClothFabricCooker.obj
 0001:00048d10       ?growAndPushBack@?$Array@V?$Pair@V?$Pair@II@shdfnd@physx@@W4Enum@ClothFabricPhaseType@cloth@nv@@@shdfnd@physx@@VNonTrackingAllocator@cloth@nv@@@shdfnd@physx@@IEAAAEAV?$Pair@V?$Pair@II@shdfnd@physx@@W4Enum@ClothFabricPhaseType@cloth@nv@@@23@AEBV423@@Z 0000000180049d10 f i ClothFabricCooker.obj
 0001:00048e20       ?recreate@?$Array@V?$Pair@V?$Pair@II@shdfnd@physx@@W4Enum@ClothFabricPhaseType@cloth@nv@@@shdfnd@physx@@VNonTrackingAllocator@cloth@nv@@@shdfnd@physx@@IEAAXI@Z 0000000180049e20 f i ClothFabricCooker.obj
 0001:00048f30       ?recreate@?$Array@UConstraintGraphColorCount@?A0xc3cb1990@cloth@nv@@VNonTrackingAllocator@34@@shdfnd@physx@@IEAAXI@Z 0000000180049f30 f i ClothFabricCooker.obj
 0001:00049140       ??$sort@IUConstraintSorter@?A0xc3cb1990@cloth@nv@@VNonTrackingAllocator@34@@shdfnd@physx@@YAXPEAIIAEBUConstraintSorter@?A0xc3cb1990@cloth@nv@@AEBVNonTrackingAllocator@45@I@Z 000000018004a140 f i ClothFabricCooker.obj
 0001:000493c0       ??$hash@II@shdfnd@physx@@YAIAEBV?$Pair@II@01@@Z 000000018004a3c0 f i ClothFabricCooker.obj
 0001:00049430       ??E?$PxStrideIterator@$$CBI@physx@@QEAAAEAV01@XZ 000000018004a430 f i ClothFabricCooker.obj
 0001:00049440       ?ptr@?$PxStrideIterator@$$CBI@physx@@QEBAPEBIXZ 000000018004a440 f i ClothFabricCooker.obj
 0001:00049450       ??0?$PxStrideIterator@$$CBI@physx@@QEAA@PEBII@Z 000000018004a450 f i ClothFabricCooker.obj
 0001:00049460       ??E?$PxStrideIterator@$$CBG@physx@@QEAAAEAV01@XZ 000000018004a460 f i ClothFabricCooker.obj
 0001:00049470       ?ptr@?$PxStrideIterator@$$CBG@physx@@QEBAPEBGXZ 000000018004a470 f i ClothFabricCooker.obj
 0001:00049480       ??0?$PxStrideIterator@$$CBG@physx@@QEAA@PEBGI@Z 000000018004a480 f i ClothFabricCooker.obj
 0001:00049490       ?copy@?$Array@UConstraintGraphColorCount@?A0xc3cb1990@cloth@nv@@VNonTrackingAllocator@34@@shdfnd@physx@@KAXPEAUConstraintGraphColorCount@?A0xc3cb1990@cloth@nv@@0PEBU4567@@Z 000000018004a490 f i ClothFabricCooker.obj
 0001:000494b0       ?allocate@?$Array@UConstraintGraphColorCount@?A0xc3cb1990@cloth@nv@@VNonTrackingAllocator@34@@shdfnd@physx@@IEAAPEAUConstraintGraphColorCount@?A0xc3cb1990@cloth@nv@@I@Z 000000018004a4b0 f i ClothFabricCooker.obj
 0001:00049500       ?popBack@?$Array@UConstraintGraphColorCount@?A0xc3cb1990@cloth@nv@@VNonTrackingAllocator@34@@shdfnd@physx@@QEAA?AUConstraintGraphColorCount@?A0xc3cb1990@cloth@nv@@XZ 000000018004a500 f i ClothFabricCooker.obj
 0001:00049520       ?pushBack@?$Array@UConstraintGraphColorCount@?A0xc3cb1990@cloth@nv@@VNonTrackingAllocator@34@@shdfnd@physx@@QEAAAEAUConstraintGraphColorCount@?A0xc3cb1990@cloth@nv@@AEBU4567@@Z 000000018004a520 f i ClothFabricCooker.obj
 0001:00049560       ?end@?$Array@UConstraintGraphColorCount@?A0xc3cb1990@cloth@nv@@VNonTrackingAllocator@34@@shdfnd@physx@@QEAAPEAUConstraintGraphColorCount@?A0xc3cb1990@cloth@nv@@XZ 000000018004a560 f i ClothFabricCooker.obj
 0001:00049570       ?begin@?$Array@UConstraintGraphColorCount@?A0xc3cb1990@cloth@nv@@VNonTrackingAllocator@34@@shdfnd@physx@@QEAAPEAUConstraintGraphColorCount@?A0xc3cb1990@cloth@nv@@XZ 000000018004a570 f i ClothFabricCooker.obj
 0001:00049580       ?capacityIncrement@?$Array@V?$Pair@V?$Pair@II@shdfnd@physx@@W4Enum@ClothFabricPhaseType@cloth@nv@@@shdfnd@physx@@VNonTrackingAllocator@cloth@nv@@@shdfnd@physx@@IEBAIXZ 000000018004a580 f i ClothFabricCooker.obj
 0001:000495a0       ?copy@?$Array@V?$Pair@V?$Pair@II@shdfnd@physx@@W4Enum@ClothFabricPhaseType@cloth@nv@@@shdfnd@physx@@VNonTrackingAllocator@cloth@nv@@@shdfnd@physx@@KAXPEAV?$Pair@V?$Pair@II@shdfnd@physx@@W4Enum@ClothFabricPhaseType@cloth@nv@@@23@0PEBV423@@Z 000000018004a5a0 f i ClothFabricCooker.obj
 0001:000495e0       ?allocate@?$Array@V?$Pair@V?$Pair@II@shdfnd@physx@@W4Enum@ClothFabricPhaseType@cloth@nv@@@shdfnd@physx@@VNonTrackingAllocator@cloth@nv@@@shdfnd@physx@@IEAAPEAV?$Pair@V?$Pair@II@shdfnd@physx@@W4Enum@ClothFabricPhaseType@cloth@nv@@@23@I@Z 000000018004a5e0 f i ClothFabricCooker.obj
 0001:00049630       ?create@?$Array@UClothFabricPhase@cloth@nv@@VNonTrackingAllocator@23@@shdfnd@physx@@KAXPEAUClothFabricPhase@cloth@nv@@0AEBU456@@Z 000000018004a630 f i ClothFabricCooker.obj
 0001:00049650       ?reserve@?$Array@UClothFabricPhase@cloth@nv@@VNonTrackingAllocator@23@@shdfnd@physx@@QEAAXI@Z 000000018004a650 f i ClothFabricCooker.obj
 0001:00049660       ?clear@?$Array@MVNonTrackingAllocator@cloth@nv@@@shdfnd@physx@@QEAAXXZ 000000018004a660 f i ClothFabricCooker.obj
 0001:00049670       ?end@?$Array@MVNonTrackingAllocator@cloth@nv@@@shdfnd@physx@@QEBAPEBMXZ 000000018004a670 f i ClothFabricCooker.obj
 0001:00049680       ?capacityIncrement@?$Array@W4Enum@ClothFabricPhaseType@cloth@nv@@VNonTrackingAllocator@34@@shdfnd@physx@@IEBAIXZ 000000018004a680 f i ClothFabricCooker.obj
 0001:000496a0       ?copy@?$Array@W4Enum@ClothFabricPhaseType@cloth@nv@@VNonTrackingAllocator@34@@shdfnd@physx@@KAXPEAW4Enum@ClothFabricPhaseType@cloth@nv@@0PEBW44567@@Z 000000018004a6a0 f i ClothFabricCooker.obj
 0001:000496c0       ?allocate@?$Array@W4Enum@ClothFabricPhaseType@cloth@nv@@VNonTrackingAllocator@34@@shdfnd@physx@@IEAAPEAW4Enum@ClothFabricPhaseType@cloth@nv@@I@Z 000000018004a6c0 f i ClothFabricCooker.obj
 0001:00049710       ?end@?$Array@W4Enum@ClothFabricPhaseType@cloth@nv@@VNonTrackingAllocator@34@@shdfnd@physx@@QEBAPEBW4Enum@ClothFabricPhaseType@cloth@nv@@XZ 000000018004a710 f i ClothFabricCooker.obj
 0001:00049720       ?begin@?$Array@W4Enum@ClothFabricPhaseType@cloth@nv@@VNonTrackingAllocator@34@@shdfnd@physx@@QEBAPEBW4Enum@ClothFabricPhaseType@cloth@nv@@XZ 000000018004a720 f i ClothFabricCooker.obj
 0001:00049730       ?clear@?$Array@IVNonTrackingAllocator@cloth@nv@@@shdfnd@physx@@QEAAXXZ 000000018004a730 f i ClothFabricCooker.obj
 0001:00049740       ?destroy@?$Array@HVNonTrackingAllocator@cloth@nv@@@shdfnd@physx@@KAXPEAH0@Z 000000018004a740 f i ClothFabricCooker.obj
 0001:00049750       ?create@?$Array@HVNonTrackingAllocator@cloth@nv@@@shdfnd@physx@@KAXPEAH0AEBH@Z 000000018004a750 f i ClothFabricCooker.obj
 0001:00049770       ?reserve@?$Array@HVNonTrackingAllocator@cloth@nv@@@shdfnd@physx@@QEAAXI@Z 000000018004a770 f i ClothFabricCooker.obj
 0001:00049780       ?byteAdd@?$PxStrideIterator@$$CBI@physx@@CAPEBIPEBII@Z 000000018004a780 f i ClothFabricCooker.obj
 0001:00049790       ?stride@?$PxStrideIterator@$$CBI@physx@@QEBAIXZ 000000018004a790 f i ClothFabricCooker.obj
 0001:000497a0       ?byteAdd@?$PxStrideIterator@$$CBG@physx@@CAPEBGPEBGI@Z 000000018004a7a0 f i ClothFabricCooker.obj
 0001:000497b0       ?stride@?$PxStrideIterator@$$CBG@physx@@QEBAIXZ 000000018004a7b0 f i ClothFabricCooker.obj
 0001:000497c0       ?grow@?$Array@UClothFabricPhase@cloth@nv@@VNonTrackingAllocator@23@@shdfnd@physx@@IEAAXI@Z 000000018004a7c0 f i ClothFabricCooker.obj
 0001:000497d0       ?grow@?$Array@HVNonTrackingAllocator@cloth@nv@@@shdfnd@physx@@IEAAXI@Z 000000018004a7d0 f i ClothFabricCooker.obj
 0001:000497e0       ?capacity@?$Array@HVNonTrackingAllocator@cloth@nv@@@shdfnd@physx@@QEBAIXZ 000000018004a7e0 f i ClothFabricCooker.obj
 0001:000497f0       ??0?$Range@$$CBM@cloth@nv@@QEAA@PEBM0@Z 000000018004a7f0 f i ClothFabricCooker.obj
 0001:00049800       ??0?$Range@$$CBH@cloth@nv@@QEAA@PEBH0@Z 000000018004a800 f i ClothFabricCooker.obj
 0001:00049810       ?recreate@?$Array@HVNonTrackingAllocator@cloth@nv@@@shdfnd@physx@@IEAAXI@Z 000000018004a810 f i ClothFabricCooker.obj
 0001:000498c0       ?recreate@?$Array@UClothFabricPhase@cloth@nv@@VNonTrackingAllocator@23@@shdfnd@physx@@IEAAXI@Z 000000018004a8c0 f i ClothFabricCooker.obj
 0001:00049970       ?growAndPushBack@?$Array@UConstraintGraphColorCount@?A0xc3cb1990@cloth@nv@@VNonTrackingAllocator@34@@shdfnd@physx@@IEAAAEAUConstraintGraphColorCount@?A0xc3cb1990@cloth@nv@@AEBU4567@@Z 000000018004a970 f i ClothFabricCooker.obj
 0001:00049a60       ??$PxMakeIterator@G@physx@@YA?AV?$PxStrideIterator@$$CBG@0@PEBGI@Z 000000018004aa60 f i ClothFabricCooker.obj
 0001:00049a70       ??$PxMakeIterator@I@physx@@YA?AV?$PxStrideIterator@$$CBI@0@PEBII@Z 000000018004aa70 f i ClothFabricCooker.obj
 0001:00049a80       ??$swap@UConstraintGraphColorCount@?A0xc3cb1990@cloth@nv@@@shdfnd@physx@@YAXAEAUConstraintGraphColorCount@?A0xc3cb1990@cloth@nv@@0@Z 000000018004aa80 f i ClothFabricCooker.obj
 0001:00049a90       ??$smallSort@I$$CBUConstraintSorter@?A0xc3cb1990@cloth@nv@@@internal@shdfnd@physx@@YAXPEAIHHAEBUConstraintSorter@?A0xc3cb1990@cloth@nv@@@Z 000000018004aa90 f i ClothFabricCooker.obj
 0001:00049bd0       ??$partition@I$$CBUConstraintSorter@?A0xc3cb1990@cloth@nv@@@internal@shdfnd@physx@@YAHPEAIHHAEBUConstraintSorter@?A0xc3cb1990@cloth@nv@@@Z 000000018004abd0 f i ClothFabricCooker.obj
 0001:00049cc0       ?capacityIncrement@?$Array@UConstraintGraphColorCount@?A0xc3cb1990@cloth@nv@@VNonTrackingAllocator@34@@shdfnd@physx@@IEBAIXZ 000000018004acc0 f i ClothFabricCooker.obj
 0001:00049ce0       ?copy@?$Array@UClothFabricPhase@cloth@nv@@VNonTrackingAllocator@23@@shdfnd@physx@@KAXPEAUClothFabricPhase@cloth@nv@@0PEBU456@@Z 000000018004ace0 f i ClothFabricCooker.obj
 0001:00049d00       ?allocate@?$Array@UClothFabricPhase@cloth@nv@@VNonTrackingAllocator@23@@shdfnd@physx@@IEAAPEAUClothFabricPhase@cloth@nv@@I@Z 000000018004ad00 f i ClothFabricCooker.obj
 0001:00049d50       ?copy@?$Array@HVNonTrackingAllocator@cloth@nv@@@shdfnd@physx@@KAXPEAH0PEBH@Z 000000018004ad50 f i ClothFabricCooker.obj
 0001:00049d70       ?deallocate@?$Array@HVNonTrackingAllocator@cloth@nv@@@shdfnd@physx@@IEAAXPEAX@Z 000000018004ad70 f i ClothFabricCooker.obj
 0001:00049d90       ?allocate@?$Array@HVNonTrackingAllocator@cloth@nv@@@shdfnd@physx@@IEAAPEAHI@Z 000000018004ad90 f i ClothFabricCooker.obj
 0001:00049de0       ?isInUserMemory@?$Array@HVNonTrackingAllocator@cloth@nv@@@shdfnd@physx@@QEBAIXZ 000000018004ade0 f i ClothFabricCooker.obj
 0001:00049df0       ??$median3@I$$CBUConstraintSorter@?A0xc3cb1990@cloth@nv@@@internal@shdfnd@physx@@YAXPEAIHHAEBUConstraintSorter@?A0xc3cb1990@cloth@nv@@@Z 000000018004adf0 f i ClothFabricCooker.obj
 0001:00049f10       ?PxMemCopy@physx@@YAPEAXPEAXPEBXI@Z 000000018004af10 f i ClothGeodesicTetherCooker.obj
 0001:00049f30       ??1ClothTetherCooker@cloth@nv@@UEAA@XZ 000000018004af30 f i ClothGeodesicTetherCooker.obj
 0001:00049f40       ??_EClothTetherCooker@cloth@nv@@UEAAPEAXI@Z 000000018004af40 f i * CIL library *:* CIL module *
 0001:00049f40       ??_GClothTetherCooker@cloth@nv@@UEAAPEAXI@Z 000000018004af40 f i ClothGeodesicTetherCooker.obj
 0001:0004a090       ??0ClothGeodesicTetherCooker@cloth@nv@@QEAA@XZ 000000018004b090 f i ClothGeodesicTetherCooker.obj
 0001:0004a0f0       ??_EClothGeodesicTetherCooker@cloth@nv@@UEAAPEAXI@Z 000000018004b0f0 f i * CIL library *:* CIL module *
 0001:0004a0f0       ??_GClothGeodesicTetherCooker@cloth@nv@@UEAAPEAXI@Z 000000018004b0f0 f i ClothGeodesicTetherCooker.obj
 0001:0004a150       ??1ClothGeodesicTetherCooker@cloth@nv@@UEAA@XZ 000000018004b150 f i ClothGeodesicTetherCooker.obj
 0001:0004a2a0       ??0ClothTetherCooker@cloth@nv@@QEAA@XZ 000000018004b2a0 f i ClothGeodesicTetherCooker.obj
 0001:0004a2b0       ?reserve@?$Array@UVertTriangle@?A0x68fe0861@cloth@nv@@VNonTrackingAllocator@34@@shdfnd@physx@@QEAAXI@Z 000000018004b2b0 f i ClothGeodesicTetherCooker.obj
 0001:0004a2c0       ?pushBack@?$Array@UVertTriangle@?A0x68fe0861@cloth@nv@@VNonTrackingAllocator@34@@shdfnd@physx@@QEAAAEAUVertTriangle@?A0x68fe0861@cloth@nv@@AEBU4567@@Z 000000018004b2c0 f i ClothGeodesicTetherCooker.obj
 0001:0004a300       ?size@?$Array@UVertTriangle@?A0x68fe0861@cloth@nv@@VNonTrackingAllocator@34@@shdfnd@physx@@QEBAIXZ 000000018004b300 f i ClothGeodesicTetherCooker.obj
 0001:0004a310       ?begin@?$Array@UVertTriangle@?A0x68fe0861@cloth@nv@@VNonTrackingAllocator@34@@shdfnd@physx@@QEAAPEAUVertTriangle@?A0x68fe0861@cloth@nv@@XZ 000000018004b310 f i ClothGeodesicTetherCooker.obj
 0001:0004a320       ??A?$Array@UVertTriangle@?A0x68fe0861@cloth@nv@@VNonTrackingAllocator@34@@shdfnd@physx@@QEAAAEAUVertTriangle@?A0x68fe0861@cloth@nv@@I@Z 000000018004b320 f i ClothGeodesicTetherCooker.obj
 0001:0004a330       ??1?$Array@UVertTriangle@?A0x68fe0861@cloth@nv@@VNonTrackingAllocator@34@@shdfnd@physx@@QEAA@XZ 000000018004b330 f i ClothGeodesicTetherCooker.obj
 0001:0004a360       ??0?$Array@UVertTriangle@?A0x68fe0861@cloth@nv@@VNonTrackingAllocator@34@@shdfnd@physx@@QEAA@AEBVNonTrackingAllocator@cloth@nv@@@Z 000000018004b360 f i ClothGeodesicTetherCooker.obj
 0001:0004a370       ?pushBack@?$Array@UMeshEdge@?A0x68fe0861@cloth@nv@@VNonTrackingAllocator@34@@shdfnd@physx@@QEAAAEAUMeshEdge@?A0x68fe0861@cloth@nv@@AEBU4567@@Z 000000018004b370 f i ClothGeodesicTetherCooker.obj
 0001:0004a3d0       ?size@?$Array@UMeshEdge@?A0x68fe0861@cloth@nv@@VNonTrackingAllocator@34@@shdfnd@physx@@QEBAIXZ 000000018004b3d0 f i ClothGeodesicTetherCooker.obj
 0001:0004a3e0       ?begin@?$Array@UMeshEdge@?A0x68fe0861@cloth@nv@@VNonTrackingAllocator@34@@shdfnd@physx@@QEAAPEAUMeshEdge@?A0x68fe0861@cloth@nv@@XZ 000000018004b3e0 f i ClothGeodesicTetherCooker.obj
 0001:0004a3f0       ??A?$Array@UMeshEdge@?A0x68fe0861@cloth@nv@@VNonTrackingAllocator@34@@shdfnd@physx@@QEAAAEAUMeshEdge@?A0x68fe0861@cloth@nv@@I@Z 000000018004b3f0 f i ClothGeodesicTetherCooker.obj
 0001:0004a400       ??1?$Array@UMeshEdge@?A0x68fe0861@cloth@nv@@VNonTrackingAllocator@34@@shdfnd@physx@@QEAA@XZ 000000018004b400 f i ClothGeodesicTetherCooker.obj
 0001:0004a430       ??0?$Array@UMeshEdge@?A0x68fe0861@cloth@nv@@VNonTrackingAllocator@34@@shdfnd@physx@@QEAA@AEBVNonTrackingAllocator@cloth@nv@@@Z 000000018004b430 f i ClothGeodesicTetherCooker.obj
 0001:0004a440       ?pushBack@?$Array@UVertexDistanceCount@?A0x68fe0861@cloth@nv@@VNonTrackingAllocator@34@@shdfnd@physx@@QEAAAEAUVertexDistanceCount@?A0x68fe0861@cloth@nv@@AEBU4567@@Z 000000018004b440 f i ClothGeodesicTetherCooker.obj
 0001:0004a4a0       ?empty@?$Array@UVertexDistanceCount@?A0x68fe0861@cloth@nv@@VNonTrackingAllocator@34@@shdfnd@physx@@QEBA_NXZ 000000018004b4a0 f i ClothGeodesicTetherCooker.obj
 0001:0004a4b0       ?clear@?$Array@UVertexDistanceCount@?A0x68fe0861@cloth@nv@@VNonTrackingAllocator@34@@shdfnd@physx@@QEAAXXZ 000000018004b4b0 f i ClothGeodesicTetherCooker.obj
 0001:0004a4c0       ?size@?$Array@UVertexDistanceCount@?A0x68fe0861@cloth@nv@@VNonTrackingAllocator@34@@shdfnd@physx@@QEBAIXZ 000000018004b4c0 f i ClothGeodesicTetherCooker.obj
 0001:0004a4d0       ??1?$Array@UVertexDistanceCount@?A0x68fe0861@cloth@nv@@VNonTrackingAllocator@34@@shdfnd@physx@@QEAA@XZ 000000018004b4d0 f i ClothGeodesicTetherCooker.obj
 0001:0004a500       ??0?$Array@UVertexDistanceCount@?A0x68fe0861@cloth@nv@@VNonTrackingAllocator@34@@shdfnd@physx@@QEAA@AEBVNonTrackingAllocator@cloth@nv@@@Z 000000018004b500 f i ClothGeodesicTetherCooker.obj
 0001:0004a510       ??A?$Array@EVNonTrackingAllocator@cloth@nv@@@shdfnd@physx@@QEAAAEAEI@Z 000000018004b510 f i ClothGeodesicTetherCooker.obj
 0001:0004a520       ??1?$Array@EVNonTrackingAllocator@cloth@nv@@@shdfnd@physx@@QEAA@XZ 000000018004b520 f i ClothGeodesicTetherCooker.obj
 0001:0004a550       ??0?$Array@EVNonTrackingAllocator@cloth@nv@@@shdfnd@physx@@QEAA@AEBVNonTrackingAllocator@cloth@nv@@@Z 000000018004b550 f i ClothGeodesicTetherCooker.obj
 0001:0004a560       ?grow@?$Array@UVertTriangle@?A0x68fe0861@cloth@nv@@VNonTrackingAllocator@34@@shdfnd@physx@@IEAAXI@Z 000000018004b560 f i ClothGeodesicTetherCooker.obj
 0001:0004a570       ?destroy@?$Array@UVertTriangle@?A0x68fe0861@cloth@nv@@VNonTrackingAllocator@34@@shdfnd@physx@@KAXPEAUVertTriangle@?A0x68fe0861@cloth@nv@@0@Z 000000018004b570 f i ClothGeodesicTetherCooker.obj
 0001:0004a580       ?deallocate@?$Array@UVertTriangle@?A0x68fe0861@cloth@nv@@VNonTrackingAllocator@34@@shdfnd@physx@@IEAAXPEAX@Z 000000018004b580 f i ClothGeodesicTetherCooker.obj
 0001:0004a5a0       ?isInUserMemory@?$Array@UVertTriangle@?A0x68fe0861@cloth@nv@@VNonTrackingAllocator@34@@shdfnd@physx@@QEBAIXZ 000000018004b5a0 f i ClothGeodesicTetherCooker.obj
 0001:0004a5b0       ?capacity@?$Array@UVertTriangle@?A0x68fe0861@cloth@nv@@VNonTrackingAllocator@34@@shdfnd@physx@@QEBAIXZ 000000018004b5b0 f i ClothGeodesicTetherCooker.obj
 0001:0004a5c0       ?destroy@?$Array@UMeshEdge@?A0x68fe0861@cloth@nv@@VNonTrackingAllocator@34@@shdfnd@physx@@KAXPEAUMeshEdge@?A0x68fe0861@cloth@nv@@0@Z 000000018004b5c0 f i ClothGeodesicTetherCooker.obj
 0001:0004a5d0       ?deallocate@?$Array@UMeshEdge@?A0x68fe0861@cloth@nv@@VNonTrackingAllocator@34@@shdfnd@physx@@IEAAXPEAX@Z 000000018004b5d0 f i ClothGeodesicTetherCooker.obj
 0001:0004a5f0       ?isInUserMemory@?$Array@UMeshEdge@?A0x68fe0861@cloth@nv@@VNonTrackingAllocator@34@@shdfnd@physx@@QEBAIXZ 000000018004b5f0 f i ClothGeodesicTetherCooker.obj
 0001:0004a600       ?capacity@?$Array@UMeshEdge@?A0x68fe0861@cloth@nv@@VNonTrackingAllocator@34@@shdfnd@physx@@QEBAIXZ 000000018004b600 f i ClothGeodesicTetherCooker.obj
 0001:0004a610       ?destroy@?$Array@UVertexDistanceCount@?A0x68fe0861@cloth@nv@@VNonTrackingAllocator@34@@shdfnd@physx@@KAXPEAUVertexDistanceCount@?A0x68fe0861@cloth@nv@@0@Z 000000018004b610 f i ClothGeodesicTetherCooker.obj
 0001:0004a620       ?deallocate@?$Array@UVertexDistanceCount@?A0x68fe0861@cloth@nv@@VNonTrackingAllocator@34@@shdfnd@physx@@IEAAXPEAX@Z 000000018004b620 f i ClothGeodesicTetherCooker.obj
 0001:0004a640       ?isInUserMemory@?$Array@UVertexDistanceCount@?A0x68fe0861@cloth@nv@@VNonTrackingAllocator@34@@shdfnd@physx@@QEBAIXZ 000000018004b640 f i ClothGeodesicTetherCooker.obj
 0001:0004a650       ?capacity@?$Array@UVertexDistanceCount@?A0x68fe0861@cloth@nv@@VNonTrackingAllocator@34@@shdfnd@physx@@QEBAIXZ 000000018004b650 f i ClothGeodesicTetherCooker.obj
 0001:0004a660       ?destroy@?$Array@EVNonTrackingAllocator@cloth@nv@@@shdfnd@physx@@KAXPEAE0@Z 000000018004b660 f i ClothGeodesicTetherCooker.obj
 0001:0004a670       ?deallocate@?$Array@EVNonTrackingAllocator@cloth@nv@@@shdfnd@physx@@IEAAXPEAX@Z 000000018004b670 f i ClothGeodesicTetherCooker.obj
 0001:0004a690       ?isInUserMemory@?$Array@EVNonTrackingAllocator@cloth@nv@@@shdfnd@physx@@QEBAIXZ 000000018004b690 f i ClothGeodesicTetherCooker.obj
 0001:0004a6a0       ?capacity@?$Array@EVNonTrackingAllocator@cloth@nv@@@shdfnd@physx@@QEBAIXZ 000000018004b6a0 f i ClothGeodesicTetherCooker.obj
 0001:0004a6b0       ??$swap@H@shdfnd@physx@@YAXAEAH0@Z 000000018004b6b0 f i ClothGeodesicTetherCooker.obj
 0001:0004a6c0       ?resize@?$Array@EVNonTrackingAllocator@cloth@nv@@@shdfnd@physx@@QEAAXIAEBE@Z 000000018004b6c0 f i ClothGeodesicTetherCooker.obj
 0001:0004b250       ?growAndPushBack@?$Array@UVertexDistanceCount@?A0x68fe0861@cloth@nv@@VNonTrackingAllocator@34@@shdfnd@physx@@IEAAAEAUVertexDistanceCount@?A0x68fe0861@cloth@nv@@AEBU4567@@Z 000000018004c250 f i ClothGeodesicTetherCooker.obj
 0001:0004b570       ?growAndPushBack@?$Array@UMeshEdge@?A0x68fe0861@cloth@nv@@VNonTrackingAllocator@34@@shdfnd@physx@@IEAAAEAUMeshEdge@?A0x68fe0861@cloth@nv@@AEBU4567@@Z 000000018004c570 f i ClothGeodesicTetherCooker.obj
 0001:0004b680       ??$sort@UMeshEdge@?A0x68fe0861@cloth@nv@@U?$Less@UMeshEdge@?A0x68fe0861@cloth@nv@@@shdfnd@physx@@VNonTrackingAllocator@34@@shdfnd@physx@@YAXPEAUMeshEdge@?A0x68fe0861@cloth@nv@@IAEBU?$Less@UMeshEdge@?A0x68fe0861@cloth@nv@@@01@AEBVNonTrackingAllocator@45@I@Z 000000018004c680 f i ClothGeodesicTetherCooker.obj
 0001:0004b890       ?growAndPushBack@?$Array@UVertTriangle@?A0x68fe0861@cloth@nv@@VNonTrackingAllocator@34@@shdfnd@physx@@IEAAAEAUVertTriangle@?A0x68fe0861@cloth@nv@@AEBU4567@@Z 000000018004c890 f i ClothGeodesicTetherCooker.obj
 0001:0004b980       ?recreate@?$Array@UVertTriangle@?A0x68fe0861@cloth@nv@@VNonTrackingAllocator@34@@shdfnd@physx@@IEAAXI@Z 000000018004c980 f i ClothGeodesicTetherCooker.obj
 0001:0004ba30       ??$sort@UVertTriangle@?A0x68fe0861@cloth@nv@@U?$Less@UVertTriangle@?A0x68fe0861@cloth@nv@@@shdfnd@physx@@VNonTrackingAllocator@34@@shdfnd@physx@@YAXPEAUVertTriangle@?A0x68fe0861@cloth@nv@@IAEBU?$Less@UVertTriangle@?A0x68fe0861@cloth@nv@@@01@AEBVNonTrackingAllocator@45@I@Z 000000018004ca30 f i ClothGeodesicTetherCooker.obj
 0001:0004bc40       ?capacityIncrement@?$Array@UVertTriangle@?A0x68fe0861@cloth@nv@@VNonTrackingAllocator@34@@shdfnd@physx@@IEBAIXZ 000000018004cc40 f i ClothGeodesicTetherCooker.obj
 0001:0004bc60       ?copy@?$Array@UVertTriangle@?A0x68fe0861@cloth@nv@@VNonTrackingAllocator@34@@shdfnd@physx@@KAXPEAUVertTriangle@?A0x68fe0861@cloth@nv@@0PEBU4567@@Z 000000018004cc60 f i ClothGeodesicTetherCooker.obj
 0001:0004bc80       ?allocate@?$Array@UVertTriangle@?A0x68fe0861@cloth@nv@@VNonTrackingAllocator@34@@shdfnd@physx@@IEAAPEAUVertTriangle@?A0x68fe0861@cloth@nv@@I@Z 000000018004cc80 f i ClothGeodesicTetherCooker.obj
 0001:0004bcd0       ?capacityIncrement@?$Array@UMeshEdge@?A0x68fe0861@cloth@nv@@VNonTrackingAllocator@34@@shdfnd@physx@@IEBAIXZ 000000018004ccd0 f i ClothGeodesicTetherCooker.obj
 0001:0004bcf0       ?copy@?$Array@UMeshEdge@?A0x68fe0861@cloth@nv@@VNonTrackingAllocator@34@@shdfnd@physx@@KAXPEAUMeshEdge@?A0x68fe0861@cloth@nv@@0PEBU4567@@Z 000000018004ccf0 f i ClothGeodesicTetherCooker.obj
 0001:0004bd20       ?allocate@?$Array@UMeshEdge@?A0x68fe0861@cloth@nv@@VNonTrackingAllocator@34@@shdfnd@physx@@IEAAPEAUMeshEdge@?A0x68fe0861@cloth@nv@@I@Z 000000018004cd20 f i ClothGeodesicTetherCooker.obj
 0001:0004bd70       ?capacityIncrement@?$Array@UVertexDistanceCount@?A0x68fe0861@cloth@nv@@VNonTrackingAllocator@34@@shdfnd@physx@@IEBAIXZ 000000018004cd70 f i ClothGeodesicTetherCooker.obj
 0001:0004bd90       ?copy@?$Array@UVertexDistanceCount@?A0x68fe0861@cloth@nv@@VNonTrackingAllocator@34@@shdfnd@physx@@KAXPEAUVertexDistanceCount@?A0x68fe0861@cloth@nv@@0PEBU4567@@Z 000000018004cd90 f i ClothGeodesicTetherCooker.obj
 0001:0004bdc0       ?allocate@?$Array@UVertexDistanceCount@?A0x68fe0861@cloth@nv@@VNonTrackingAllocator@34@@shdfnd@physx@@IEAAPEAUVertexDistanceCount@?A0x68fe0861@cloth@nv@@I@Z 000000018004cdc0 f i ClothGeodesicTetherCooker.obj
 0001:0004be10       ?popBack@?$Array@UVertexDistanceCount@?A0x68fe0861@cloth@nv@@VNonTrackingAllocator@34@@shdfnd@physx@@QEAA?AUVertexDistanceCount@?A0x68fe0861@cloth@nv@@XZ 000000018004ce10 f i ClothGeodesicTetherCooker.obj
 0001:0004be40       ?end@?$Array@UVertexDistanceCount@?A0x68fe0861@cloth@nv@@VNonTrackingAllocator@34@@shdfnd@physx@@QEAAPEAUVertexDistanceCount@?A0x68fe0861@cloth@nv@@XZ 000000018004ce40 f i ClothGeodesicTetherCooker.obj
 0001:0004be50       ?begin@?$Array@UVertexDistanceCount@?A0x68fe0861@cloth@nv@@VNonTrackingAllocator@34@@shdfnd@physx@@QEAAPEAUVertexDistanceCount@?A0x68fe0861@cloth@nv@@XZ 000000018004ce50 f i ClothGeodesicTetherCooker.obj
 0001:0004be60       ?create@?$Array@EVNonTrackingAllocator@cloth@nv@@@shdfnd@physx@@KAXPEAE0AEBE@Z 000000018004ce60 f i ClothGeodesicTetherCooker.obj
 0001:0004be80       ?reserve@?$Array@EVNonTrackingAllocator@cloth@nv@@@shdfnd@physx@@QEAAXI@Z 000000018004ce80 f i ClothGeodesicTetherCooker.obj
 0001:0004be90       ?grow@?$Array@EVNonTrackingAllocator@cloth@nv@@@shdfnd@physx@@IEAAXI@Z 000000018004ce90 f i ClothGeodesicTetherCooker.obj
 0001:0004bea0       ?recreate@?$Array@EVNonTrackingAllocator@cloth@nv@@@shdfnd@physx@@IEAAXI@Z 000000018004cea0 f i ClothGeodesicTetherCooker.obj
 0001:0004bfa0       ??$swap@UVertexDistanceCount@?A0x68fe0861@cloth@nv@@@shdfnd@physx@@YAXAEAUVertexDistanceCount@?A0x68fe0861@cloth@nv@@0@Z 000000018004cfa0 f i ClothGeodesicTetherCooker.obj
 0001:0004bfc0       ??$smallSort@UMeshEdge@?A0x68fe0861@cloth@nv@@$$CBU?$Less@UMeshEdge@?A0x68fe0861@cloth@nv@@@shdfnd@physx@@@internal@shdfnd@physx@@YAXPEAUMeshEdge@?A0x68fe0861@cloth@nv@@HHAEBU?$Less@UMeshEdge@?A0x68fe0861@cloth@nv@@@12@@Z 000000018004cfc0 f i ClothGeodesicTetherCooker.obj
 0001:0004c0f0       ??$partition@UMeshEdge@?A0x68fe0861@cloth@nv@@$$CBU?$Less@UMeshEdge@?A0x68fe0861@cloth@nv@@@shdfnd@physx@@@internal@shdfnd@physx@@YAHPEAUMeshEdge@?A0x68fe0861@cloth@nv@@HHAEBU?$Less@UMeshEdge@?A0x68fe0861@cloth@nv@@@12@@Z 000000018004d0f0 f i ClothGeodesicTetherCooker.obj
 0001:0004c220       ??$smallSort@UVertTriangle@?A0x68fe0861@cloth@nv@@$$CBU?$Less@UVertTriangle@?A0x68fe0861@cloth@nv@@@shdfnd@physx@@@internal@shdfnd@physx@@YAXPEAUVertTriangle@?A0x68fe0861@cloth@nv@@HHAEBU?$Less@UVertTriangle@?A0x68fe0861@cloth@nv@@@12@@Z 000000018004d220 f i ClothGeodesicTetherCooker.obj
 0001:0004c330       ??$partition@UVertTriangle@?A0x68fe0861@cloth@nv@@$$CBU?$Less@UVertTriangle@?A0x68fe0861@cloth@nv@@@shdfnd@physx@@@internal@shdfnd@physx@@YAHPEAUVertTriangle@?A0x68fe0861@cloth@nv@@HHAEBU?$Less@UVertTriangle@?A0x68fe0861@cloth@nv@@@12@@Z 000000018004d330 f i ClothGeodesicTetherCooker.obj
 0001:0004c400       ??R?$Less@UVertTriangle@?A0x68fe0861@cloth@nv@@@shdfnd@physx@@QEBA_NAEBUVertTriangle@?A0x68fe0861@cloth@nv@@0@Z 000000018004d400 f i ClothGeodesicTetherCooker.obj
 0001:0004c420       ??R?$Less@UMeshEdge@?A0x68fe0861@cloth@nv@@@shdfnd@physx@@QEBA_NAEBUMeshEdge@?A0x68fe0861@cloth@nv@@0@Z 000000018004d420 f i ClothGeodesicTetherCooker.obj
 0001:0004c440       ?copy@?$Array@EVNonTrackingAllocator@cloth@nv@@@shdfnd@physx@@KAXPEAE0PEBE@Z 000000018004d440 f i ClothGeodesicTetherCooker.obj
 0001:0004c460       ?allocate@?$Array@EVNonTrackingAllocator@cloth@nv@@@shdfnd@physx@@IEAAPEAEI@Z 000000018004d460 f i ClothGeodesicTetherCooker.obj
 0001:0004c4a0       ??$swap@UMeshEdge@?A0x68fe0861@cloth@nv@@@shdfnd@physx@@YAXAEAUMeshEdge@?A0x68fe0861@cloth@nv@@0@Z 000000018004d4a0 f i ClothGeodesicTetherCooker.obj
 0001:0004c4c0       ??$median3@UMeshEdge@?A0x68fe0861@cloth@nv@@$$CBU?$Less@UMeshEdge@?A0x68fe0861@cloth@nv@@@shdfnd@physx@@@internal@shdfnd@physx@@YAXPEAUMeshEdge@?A0x68fe0861@cloth@nv@@HHAEBU?$Less@UMeshEdge@?A0x68fe0861@cloth@nv@@@12@@Z 000000018004d4c0 f i ClothGeodesicTetherCooker.obj
 0001:0004c5f0       ??$swap@UVertTriangle@?A0x68fe0861@cloth@nv@@@shdfnd@physx@@YAXAEAUVertTriangle@?A0x68fe0861@cloth@nv@@0@Z 000000018004d5f0 f i ClothGeodesicTetherCooker.obj
 0001:0004c600       ??$median3@UVertTriangle@?A0x68fe0861@cloth@nv@@$$CBU?$Less@UVertTriangle@?A0x68fe0861@cloth@nv@@@shdfnd@physx@@@internal@shdfnd@physx@@YAXPEAUVertTriangle@?A0x68fe0861@cloth@nv@@HHAEBU?$Less@UVertTriangle@?A0x68fe0861@cloth@nv@@@12@@Z 000000018004d600 f i ClothGeodesicTetherCooker.obj
 0001:0004c6d0       ??0StridedData@cloth@nv@@QEAA@XZ 000000018004d6d0 f i ClothMeshQuadifier.obj
 0001:0004c6e0       ??0BoundedData@cloth@nv@@QEAA@XZ 000000018004d6e0 f i ClothMeshQuadifier.obj
 0001:0004c6f0       ??0ClothMeshDesc@cloth@nv@@QEAA@XZ 000000018004d6f0 f i ClothMeshQuadifier.obj
 0001:0004c730       ??1ClothMeshQuadifier@cloth@nv@@UEAA@XZ 000000018004d730 f i ClothMeshQuadifier.obj
 0001:0004c740       ??_EClothMeshQuadifier@cloth@nv@@UEAAPEAXI@Z 000000018004d740 f i * CIL library *:* CIL module *
 0001:0004c740       ??_GClothMeshQuadifier@cloth@nv@@UEAAPEAXI@Z 000000018004d740 f i ClothMeshQuadifier.obj
 0001:0004c790       ?degToRad@shdfnd@physx@@YAMM@Z 000000018004d790 f i ClothMeshQuadifier.obj
 0001:0004c890       ??_H@YAXPEAX_K1P6APEAX0@Z@Z 000000018004d890 f i ClothMeshQuadifier.obj
 0001:0004c8c0       ??0ClothMeshQuadifierImpl@cloth@nv@@QEAA@XZ 000000018004d8c0 f i ClothMeshQuadifier.obj
 0001:0004c930       ??_EClothMeshQuadifierImpl@cloth@nv@@UEAAPEAXI@Z 000000018004d930 f i * CIL library *:* CIL module *
 0001:0004c930       ??_GClothMeshQuadifierImpl@cloth@nv@@UEAAPEAXI@Z 000000018004d930 f i ClothMeshQuadifier.obj
 0001:0004c990       ??1ClothMeshQuadifierImpl@cloth@nv@@UEAA@XZ 000000018004d990 f i ClothMeshQuadifier.obj
 0001:0004ca00       ??0ClothMeshQuadifier@cloth@nv@@QEAA@XZ 000000018004da00 f i ClothMeshQuadifier.obj
 0001:0004ca10       ?reserve@?$Array@UUniqueEdge@?A0x2419f6c0@cloth@nv@@VNonTrackingAllocator@34@@shdfnd@physx@@QEAAXI@Z 000000018004da10 f i ClothMeshQuadifier.obj
 0001:0004ca20       ?pushBack@?$Array@UUniqueEdge@?A0x2419f6c0@cloth@nv@@VNonTrackingAllocator@34@@shdfnd@physx@@QEAAAEAUUniqueEdge@?A0x2419f6c0@cloth@nv@@AEBU4567@@Z 000000018004da20 f i ClothMeshQuadifier.obj
 0001:0004ca80       ?size@?$Array@UUniqueEdge@?A0x2419f6c0@cloth@nv@@VNonTrackingAllocator@34@@shdfnd@physx@@QEBAIXZ 000000018004da80 f i ClothMeshQuadifier.obj
 0001:0004ca90       ?begin@?$Array@UUniqueEdge@?A0x2419f6c0@cloth@nv@@VNonTrackingAllocator@34@@shdfnd@physx@@QEAAPEAUUniqueEdge@?A0x2419f6c0@cloth@nv@@XZ 000000018004da90 f i ClothMeshQuadifier.obj
 0001:0004caa0       ??A?$Array@UUniqueEdge@?A0x2419f6c0@cloth@nv@@VNonTrackingAllocator@34@@shdfnd@physx@@QEAAAEAUUniqueEdge@?A0x2419f6c0@cloth@nv@@I@Z 000000018004daa0 f i ClothMeshQuadifier.obj
 0001:0004cab0       ??A?$Array@UUniqueEdge@?A0x2419f6c0@cloth@nv@@VNonTrackingAllocator@34@@shdfnd@physx@@QEBAAEBUUniqueEdge@?A0x2419f6c0@cloth@nv@@I@Z 000000018004dab0 f i ClothMeshQuadifier.obj
 0001:0004cac0       ??1?$Array@UUniqueEdge@?A0x2419f6c0@cloth@nv@@VNonTrackingAllocator@34@@shdfnd@physx@@QEAA@XZ 000000018004dac0 f i ClothMeshQuadifier.obj
 0001:0004caf0       ??0?$Array@UUniqueEdge@?A0x2419f6c0@cloth@nv@@VNonTrackingAllocator@34@@shdfnd@physx@@QEAA@AEBVNonTrackingAllocator@cloth@nv@@@Z 000000018004daf0 f i ClothMeshQuadifier.obj
 0001:0004cb00       ?grow@?$Array@UUniqueEdge@?A0x2419f6c0@cloth@nv@@VNonTrackingAllocator@34@@shdfnd@physx@@IEAAXI@Z 000000018004db00 f i ClothMeshQuadifier.obj
 0001:0004cb10       ?destroy@?$Array@UUniqueEdge@?A0x2419f6c0@cloth@nv@@VNonTrackingAllocator@34@@shdfnd@physx@@KAXPEAUUniqueEdge@?A0x2419f6c0@cloth@nv@@0@Z 000000018004db10 f i ClothMeshQuadifier.obj
 0001:0004cb20       ?deallocate@?$Array@UUniqueEdge@?A0x2419f6c0@cloth@nv@@VNonTrackingAllocator@34@@shdfnd@physx@@IEAAXPEAX@Z 000000018004db20 f i ClothMeshQuadifier.obj
 0001:0004cb40       ?isInUserMemory@?$Array@UUniqueEdge@?A0x2419f6c0@cloth@nv@@VNonTrackingAllocator@34@@shdfnd@physx@@QEBAIXZ 000000018004db40 f i ClothMeshQuadifier.obj
 0001:0004cb50       ?capacity@?$Array@UUniqueEdge@?A0x2419f6c0@cloth@nv@@VNonTrackingAllocator@34@@shdfnd@physx@@QEBAIXZ 000000018004db50 f i ClothMeshQuadifier.obj
 0001:0004cb60       ?resize@?$Array@UUniqueEdge@?A0x2419f6c0@cloth@nv@@VNonTrackingAllocator@34@@shdfnd@physx@@QEAAXIAEBUUniqueEdge@?A0x2419f6c0@cloth@nv@@@Z 000000018004db60 f i ClothMeshQuadifier.obj
 0001:0004cbe0       ?growAndPushBack@?$Array@UUniqueEdge@?A0x2419f6c0@cloth@nv@@VNonTrackingAllocator@34@@shdfnd@physx@@IEAAAEAUUniqueEdge@?A0x2419f6c0@cloth@nv@@AEBU4567@@Z 000000018004dbe0 f i ClothMeshQuadifier.obj
 0001:0004ccf0       ?recreate@?$Array@UUniqueEdge@?A0x2419f6c0@cloth@nv@@VNonTrackingAllocator@34@@shdfnd@physx@@IEAAXI@Z 000000018004dcf0 f i ClothMeshQuadifier.obj
 0001:0004cdb0       ??$sort@UUniqueEdge@?A0x2419f6c0@cloth@nv@@U1234@VNonTrackingAllocator@34@@shdfnd@physx@@YAXPEAUUniqueEdge@?A0x2419f6c0@cloth@nv@@IAEBU2345@AEBVNonTrackingAllocator@45@I@Z 000000018004ddb0 f i ClothMeshQuadifier.obj
 0001:0004cfc0       ??$sort@IUSortHiddenEdges@?A0x2419f6c0@cloth@nv@@VNonTrackingAllocator@34@@shdfnd@physx@@YAXPEAIIAEBUSortHiddenEdges@?A0x2419f6c0@cloth@nv@@AEBVNonTrackingAllocator@45@I@Z 000000018004dfc0 f i ClothMeshQuadifier.obj
 0001:0004d460       ?capacityIncrement@?$Array@UUniqueEdge@?A0x2419f6c0@cloth@nv@@VNonTrackingAllocator@34@@shdfnd@physx@@IEBAIXZ 000000018004e460 f i ClothMeshQuadifier.obj
 0001:0004d480       ?copy@?$Array@UUniqueEdge@?A0x2419f6c0@cloth@nv@@VNonTrackingAllocator@34@@shdfnd@physx@@KAXPEAUUniqueEdge@?A0x2419f6c0@cloth@nv@@0PEBU4567@@Z 000000018004e480 f i ClothMeshQuadifier.obj
 0001:0004d4b0       ?create@?$Array@UUniqueEdge@?A0x2419f6c0@cloth@nv@@VNonTrackingAllocator@34@@shdfnd@physx@@KAXPEAUUniqueEdge@?A0x2419f6c0@cloth@nv@@0AEBU4567@@Z 000000018004e4b0 f i ClothMeshQuadifier.obj
 0001:0004d4e0       ?allocate@?$Array@UUniqueEdge@?A0x2419f6c0@cloth@nv@@VNonTrackingAllocator@34@@shdfnd@physx@@IEAAPEAUUniqueEdge@?A0x2419f6c0@cloth@nv@@I@Z 000000018004e4e0 f i ClothMeshQuadifier.obj
 0001:0004d530       ??$smallSort@UUniqueEdge@?A0x2419f6c0@cloth@nv@@$$CBU1234@@internal@shdfnd@physx@@YAXPEAUUniqueEdge@?A0x2419f6c0@cloth@nv@@HHAEBU3456@@Z 000000018004e530 f i ClothMeshQuadifier.obj
 0001:0004d650       ??$partition@UUniqueEdge@?A0x2419f6c0@cloth@nv@@$$CBU1234@@internal@shdfnd@physx@@YAHPEAUUniqueEdge@?A0x2419f6c0@cloth@nv@@HHAEBU3456@@Z 000000018004e650 f i ClothMeshQuadifier.obj
 0001:0004d770       ??$smallSort@I$$CBUSortHiddenEdges@?A0x2419f6c0@cloth@nv@@@internal@shdfnd@physx@@YAXPEAIHHAEBUSortHiddenEdges@?A0x2419f6c0@cloth@nv@@@Z 000000018004e770 f i ClothMeshQuadifier.obj
 0001:0004d9f0       ??$partition@I$$CBUSortHiddenEdges@?A0x2419f6c0@cloth@nv@@@internal@shdfnd@physx@@YAHPEAIHHAEBUSortHiddenEdges@?A0x2419f6c0@cloth@nv@@@Z 000000018004e9f0 f i ClothMeshQuadifier.obj
 0001:0004dad0       ??$swap@UUniqueEdge@?A0x2419f6c0@cloth@nv@@@shdfnd@physx@@YAXAEAUUniqueEdge@?A0x2419f6c0@cloth@nv@@0@Z 000000018004ead0 f i ClothMeshQuadifier.obj
 0001:0004db00       ??$median3@UUniqueEdge@?A0x2419f6c0@cloth@nv@@$$CBU1234@@internal@shdfnd@physx@@YAXPEAUUniqueEdge@?A0x2419f6c0@cloth@nv@@HHAEBU3456@@Z 000000018004eb00 f i ClothMeshQuadifier.obj
 0001:0004dc50       ??$median3@I$$CBUSortHiddenEdges@?A0x2419f6c0@cloth@nv@@@internal@shdfnd@physx@@YAXPEAIHHAEBUSortHiddenEdges@?A0x2419f6c0@cloth@nv@@@Z 000000018004ec50 f i ClothMeshQuadifier.obj
 0001:0004dd40       ?getNbTethersPerParticle@ClothSimpleTetherCooker@cloth@nv@@UEBAIXZ 000000018004ed40 f i ClothSimpleTetherCooker.obj
 0001:0004dd50       ??0ClothSimpleTetherCooker@cloth@nv@@QEAA@XZ 000000018004ed50 f i ClothSimpleTetherCooker.obj
 0001:0004dd70       ??_GClothSimpleTetherCooker@cloth@nv@@UEAAPEAXI@Z 000000018004ed70 f i ClothSimpleTetherCooker.obj
 0001:0004dd70       ??_EClothSimpleTetherCooker@cloth@nv@@UEAAPEAXI@Z 000000018004ed70 f i * CIL library *:* CIL module *
 0001:0004de20       ??1ClothSimpleTetherCooker@cloth@nv@@UEAA@XZ 000000018004ee20 f i ClothSimpleTetherCooker.obj
 0001:0004de90       ?pushBack@?$Array@MVNonTrackingAllocator@cloth@nv@@@shdfnd@physx@@QEAAAEAMAEBM@Z 000000018004ee90 f i ClothSimpleTetherCooker.obj
 0001:0004ded0       ?growAndPushBack@?$Array@MVNonTrackingAllocator@cloth@nv@@@shdfnd@physx@@IEAAAEAMAEBM@Z 000000018004eed0 f i ClothSimpleTetherCooker.obj
 0001:0004dfa0       ?capacityIncrement@?$Array@MVNonTrackingAllocator@cloth@nv@@@shdfnd@physx@@IEBAIXZ 000000018004efa0 f i ClothSimpleTetherCooker.obj
 0001:0004dfb3       __imp_load_?atomicIncrement@shdfnd@physx@@YAHPECH@Z 000000018004efb3 f   PxFoundation_x64:PxFoundation_x64.dll
 0001:0004dfbf       __tailMerge_PxFoundation_x64_dll 000000018004efbf f i PxFoundation_x64:PxFoundation_x64.dll
 0001:0004e038       ?atomicIncrement@shdfnd@physx@@YAHPECH@Z 000000018004f038 f   PxFoundation_x64:PxFoundation_x64.dll
 0001:0004e03e       __imp_load_?atomicDecrement@shdfnd@physx@@YAHPECH@Z 000000018004f03e f   PxFoundation_x64:PxFoundation_x64.dll
 0001:0004e04a       ?atomicDecrement@shdfnd@physx@@YAHPECH@Z 000000018004f04a f   PxFoundation_x64:PxFoundation_x64.dll
 0001:0004e050       __imp_load_?deallocate@TempAllocator@shdfnd@physx@@QEAAXPEAX@Z 000000018004f050 f   PxFoundation_x64:PxFoundation_x64.dll
 0001:0004e05c       ?deallocate@TempAllocator@shdfnd@physx@@QEAAXPEAX@Z 000000018004f05c f   PxFoundation_x64:PxFoundation_x64.dll
 0001:0004e062       __imp_load_?allocate@TempAllocator@shdfnd@physx@@QEAAPEAX_KPEBDH@Z 000000018004f062 f   PxFoundation_x64:PxFoundation_x64.dll
 0001:0004e06e       ?allocate@TempAllocator@shdfnd@physx@@QEAAPEAX_KPEBDH@Z 000000018004f06e f   PxFoundation_x64:PxFoundation_x64.dll
 0001:0004e074       __imp_load_cuMemHostAlloc  000000018004f074 f   cuda:nvcuda.dll
 0001:0004e080       __tailMerge_nvcuda_dll     000000018004f080 f i cuda:nvcuda.dll
 0001:0004e0f9       cuMemHostAlloc             000000018004f0f9 f   cuda:nvcuda.dll
 0001:0004e0ff       __imp_load_cuMemcpyDtoH_v2 000000018004f0ff f   cuda:nvcuda.dll
 0001:0004e10b       cuMemcpyDtoH_v2            000000018004f10b f   cuda:nvcuda.dll
 0001:0004e111       __imp_load_cuMemsetD32_v2  000000018004f111 f   cuda:nvcuda.dll
 0001:0004e11d       cuMemsetD32_v2             000000018004f11d f   cuda:nvcuda.dll
 0001:0004e123       __imp_load_cuMemFreeHost   000000018004f123 f   cuda:nvcuda.dll
 0001:0004e12f       cuMemFreeHost              000000018004f12f f   cuda:nvcuda.dll
 0001:0004e135       __imp_load_cuMemHostGetDevicePointer_v2 000000018004f135 f   cuda:nvcuda.dll
 0001:0004e141       cuMemHostGetDevicePointer_v2 000000018004f141 f   cuda:nvcuda.dll
 0001:0004e147       __imp_load_cuMemAlloc_v2   000000018004f147 f   cuda:nvcuda.dll
 0001:0004e153       cuMemAlloc_v2              000000018004f153 f   cuda:nvcuda.dll
 0001:0004e159       __imp_load_cuMemcpyDtoD_v2 000000018004f159 f   cuda:nvcuda.dll
 0001:0004e165       cuMemcpyDtoD_v2            000000018004f165 f   cuda:nvcuda.dll
 0001:0004e16b       __imp_load_cuMemFree_v2    000000018004f16b f   cuda:nvcuda.dll
 0001:0004e177       cuMemFree_v2               000000018004f177 f   cuda:nvcuda.dll
 0001:0004e17d       __imp_load_cuMemcpyHtoD_v2 000000018004f17d f   cuda:nvcuda.dll
 0001:0004e189       cuMemcpyHtoD_v2            000000018004f189 f   cuda:nvcuda.dll
 0001:0004e18f       __imp_load_cuCtxPopCurrent_v2 000000018004f18f f   cuda:nvcuda.dll
 0001:0004e19b       cuCtxPopCurrent_v2         000000018004f19b f   cuda:nvcuda.dll
 0001:0004e1a1       __imp_load_cuCtxPushCurrent_v2 000000018004f1a1 f   cuda:nvcuda.dll
 0001:0004e1ad       cuCtxPushCurrent_v2        000000018004f1ad f   cuda:nvcuda.dll
 0001:0004e1b3       __imp_load_cuDeviceGetAttribute 000000018004f1b3 f   cuda:nvcuda.dll
 0001:0004e1bf       cuDeviceGetAttribute       000000018004f1bf f   cuda:nvcuda.dll
 0001:0004e1c5       __imp_load_cuModuleLoadFatBinary 000000018004f1c5 f   cuda:nvcuda.dll
 0001:0004e1d1       cuModuleLoadFatBinary      000000018004f1d1 f   cuda:nvcuda.dll
 0001:0004e1d7       __imp_load_cuCtxGetDevice  000000018004f1d7 f   cuda:nvcuda.dll
 0001:0004e1e3       cuCtxGetDevice             000000018004f1e3 f   cuda:nvcuda.dll
 0001:0004e1e9       __imp_load_cuStreamCreate  000000018004f1e9 f   cuda:nvcuda.dll
 0001:0004e1f5       cuStreamCreate             000000018004f1f5 f   cuda:nvcuda.dll
 0001:0004e1fb       __imp_load_cuLaunchKernel  000000018004f1fb f   cuda:nvcuda.dll
 0001:0004e207       cuLaunchKernel             000000018004f207 f   cuda:nvcuda.dll
 0001:0004e20d       __imp_load_cuFuncGetAttribute 000000018004f20d f   cuda:nvcuda.dll
 0001:0004e219       cuFuncGetAttribute         000000018004f219 f   cuda:nvcuda.dll
 0001:0004e21f       __imp_load_cuStreamDestroy_v2 000000018004f21f f   cuda:nvcuda.dll
 0001:0004e22b       cuStreamDestroy_v2         000000018004f22b f   cuda:nvcuda.dll
 0001:0004e231       __imp_load_cuStreamSynchronize 000000018004f231 f   cuda:nvcuda.dll
 0001:0004e23d       cuStreamSynchronize        000000018004f23d f   cuda:nvcuda.dll
 0001:0004e243       __imp_load_cuStreamAddCallback 000000018004f243 f   cuda:nvcuda.dll
 0001:0004e24f       cuStreamAddCallback        000000018004f24f f   cuda:nvcuda.dll
 0001:0004e255       __imp_load_cuMemcpyHtoDAsync_v2 000000018004f255 f   cuda:nvcuda.dll
 0001:0004e261       cuMemcpyHtoDAsync_v2       000000018004f261 f   cuda:nvcuda.dll
 0001:0004e267       __imp_load_cuModuleGetFunction 000000018004f267 f   cuda:nvcuda.dll
 0001:0004e273       cuModuleGetFunction        000000018004f273 f   cuda:nvcuda.dll
 0001:0004e27c       ??$PFromRva@PEAP6A_JXZ@@YAPEAP6A_JXZK@Z 000000018004f27c f i Delayimp:delayhlp.obj
 0001:0004e28c       ??$PFromRva@PEAPEAUHINSTANCE__@@@@YAPEAPEAUHINSTANCE__@@K@Z 000000018004f28c f i Delayimp:delayhlp.obj
 0001:0004e29c       ??$PFromRva@PEAU_IMAGE_IMPORT_BY_NAME@@@@YAPEAU_IMAGE_IMPORT_BY_NAME@@K@Z 000000018004f29c f i Delayimp:delayhlp.obj
 0001:0004e2ac       ??$PFromRva@PEAU_IMAGE_THUNK_DATA64@@@@YAPEAU_IMAGE_THUNK_DATA64@@K@Z 000000018004f2ac f i Delayimp:delayhlp.obj
 0001:0004e2bc       ??$PFromRva@PEBD@@YAPEBDK@Z 000000018004f2bc f i Delayimp:delayhlp.obj
 0001:0004e2cc       ??$PFromRva@PEBUImgDelayDescr@@@@YAPEBUImgDelayDescr@@K@Z 000000018004f2cc f i Delayimp:delayhlp.obj
 0001:0004e2dc       ??$PFromRva@PEBU_IMAGE_THUNK_DATA64@@@@YAPEBU_IMAGE_THUNK_DATA64@@K@Z 000000018004f2dc f i Delayimp:delayhlp.obj
 0001:0004e2ec       ?CountOfImports@@YAIPEBU_IMAGE_THUNK_DATA64@@@Z 000000018004f2ec f i Delayimp:delayhlp.obj
 0001:0004e300       ?DloadAcquireSectionWriteAccess@@YAXXZ 000000018004f300 f i Delayimp:delayhlp.obj
 0001:0004e3bc       ?DloadGetSRWLockFunctionPointers@@YAEXZ 000000018004f3bc f i Delayimp:delayhlp.obj
 0001:0004e458       ?DloadLock@@YAXXZ          000000018004f458 f i Delayimp:delayhlp.obj
 0001:0004e4ac       ?DloadMakePermanentImageCommit@@YAXPEAX_K@Z 000000018004f4ac f i Delayimp:delayhlp.obj
 0001:0004e544       ?DloadObtainSection@@YAPEAXPEAK0@Z 000000018004f544 f i Delayimp:delayhlp.obj
 0001:0004e5dc       ?DloadProtectSection@@YAXKPEAK@Z 000000018004f5dc f i Delayimp:delayhlp.obj
 0001:0004e66c       ?DloadReleaseSectionWriteAccess@@YAXXZ 000000018004f66c f i Delayimp:delayhlp.obj
 0001:0004e710       ?DloadUnlock@@YAXXZ        000000018004f710 f i Delayimp:delayhlp.obj
 0001:0004e75c       ?IndexFromPImgThunkData@@YAIPEBU_IMAGE_THUNK_DATA64@@0@Z 000000018004f75c f i Delayimp:delayhlp.obj
 0001:0004e8a4       HRESULT_FROM_WIN32         000000018004f8a4 f i Delayimp:delayhlp.obj
 0001:0004e8b4       ReadAcquire64              000000018004f8b4 f i Delayimp:delayhlp.obj
 0001:0004e8b8       ReadPointerAcquire         000000018004f8b8 f i Delayimp:delayhlp.obj
 0001:0004e8bc       WritePointerRelease        000000018004f8bc f i Delayimp:delayhlp.obj
 0001:0004e8c0       WriteRelease64             000000018004f8c0 f i Delayimp:delayhlp.obj
 0001:0004e8c4       __FUnloadDelayLoadedDLL2   000000018004f8c4 f   Delayimp:delayhlp.obj
 0001:0004e980       __HrLoadAllImportsForDll   000000018004f980 f   Delayimp:delayhlp.obj
 0001:0004e9f4       __delayLoadHelper2         000000018004f9f4 f   Delayimp:delayhlp.obj
 0001:0004ecf0       ??2@YAPEAX_K@Z             000000018004fcf0 f   LIBCMT:new_scalar.obj
 0001:0004ed2c       ??3@YAXPEAX_K@Z            000000018004fd2c f   LIBCMT:delete_scalar_size.obj
 0001:0004ed34       ??_U@YAPEAX_K@Z            000000018004fd34 f   LIBCMT:new_array.obj
 0001:0004ed3c       ??_V@YAXPEAX@Z             000000018004fd3c f   LIBCMT:delete_array.obj
 0001:0004ed44       ??_V@YAXPEAX_K@Z           000000018004fd44 f   LIBCMT:delete_array_size.obj
 0001:0004ed4c       ??3@YAXPEAX@Z              000000018004fd4c f   LIBCMT:delete_scalar.obj
 0001:0004f0a0       _CRT_INIT                  00000001800500a0 f   LIBCMT:dll_dllmain.obj
 0001:0004f0a8       _DllMainCRTStartup         00000001800500a8 f   LIBCMT:dll_dllmain.obj
 0001:0004f0e8       _guard_check_icall_nop     00000001800500e8 f i LIBCMT:guard_support.obj
 0001:0004f0ec       _guard_icall_checks_enforced 00000001800500ec f i LIBCMT:guard_support.obj
 0001:0004f104       ??0bad_alloc@std@@AEAA@QEBD@Z 0000000180050104 f i LIBCMT:throw_bad_alloc.obj
 0001:0004f11c       ??0bad_alloc@std@@QEAA@AEBV01@@Z 000000018005011c f i LIBCMT:throw_bad_alloc.obj
 0001:0004f15c       ??0bad_alloc@std@@QEAA@XZ  000000018005015c f i LIBCMT:throw_bad_alloc.obj
 0001:0004f17c       ??0bad_array_new_length@std@@QEAA@AEBV01@@Z 000000018005017c f i LIBCMT:throw_bad_alloc.obj
 0001:0004f1bc       ??0bad_array_new_length@std@@QEAA@XZ 00000001800501bc f i LIBCMT:throw_bad_alloc.obj
 0001:0004f1dc       ??0exception@std@@QEAA@AEBV01@@Z 00000001800501dc f i LIBCMT:throw_bad_alloc.obj
 0001:0004f214       ??0exception@std@@QEAA@QEBDH@Z 0000000180050214 f i LIBCMT:throw_bad_alloc.obj
 0001:0004f22c       ??1bad_alloc@std@@UEAA@XZ  000000018005022c f i LIBCMT:throw_bad_alloc.obj
 0001:0004f240       ??1bad_array_new_length@std@@UEAA@XZ 0000000180050240 f i LIBCMT:throw_bad_alloc.obj
 0001:0004f254       ??1exception@std@@UEAA@XZ  0000000180050254 f i LIBCMT:throw_bad_alloc.obj
 0001:0004f268       ??_Ebad_alloc@std@@UEAAPEAXI@Z 0000000180050268 f i LIBCMT:throw_bad_alloc.obj
 0001:0004f268       ??_Gbad_alloc@std@@UEAAPEAXI@Z 0000000180050268 f i LIBCMT:throw_bad_alloc.obj
 0001:0004f2ac       ??_Gbad_array_new_length@std@@UEAAPEAXI@Z 00000001800502ac f i LIBCMT:throw_bad_alloc.obj
 0001:0004f2ac       ??_Ebad_array_new_length@std@@UEAAPEAXI@Z 00000001800502ac f i LIBCMT:throw_bad_alloc.obj
 0001:0004f2f0       ??_Gexception@std@@UEAAPEAXI@Z 00000001800502f0 f i LIBCMT:throw_bad_alloc.obj
 0001:0004f2f0       ??_Eexception@std@@UEAAPEAXI@Z 00000001800502f0 f i LIBCMT:throw_bad_alloc.obj
 0001:0004f334       ?__scrt_throw_std_bad_alloc@@YAXXZ 0000000180050334 f   LIBCMT:throw_bad_alloc.obj
 0001:0004f354       ?__scrt_throw_std_bad_array_new_length@@YAXXZ 0000000180050354 f   LIBCMT:throw_bad_alloc.obj
 0001:0004f374       ?what@exception@std@@UEBAPEBDXZ 0000000180050374 f i LIBCMT:throw_bad_alloc.obj
 0001:0004f388       ??$__crt_fast_decode_pointer@PEAP6AXXZ@@YAPEAP6AXXZQEAP6AXXZ@Z 0000000180050388 f i LIBCMT:utility.obj
 0001:0004f3a0       ??$__crt_fast_encode_pointer@PEAP6AXXZ@@YAPEAP6AXXZQEAP6AXXZ@Z 00000001800503a0 f i LIBCMT:utility.obj
 0001:0004f3c0       ?__crt_rotate_pointer_value@@YA_K_KH@Z 00000001800503c0 f i LIBCMT:utility.obj
 0001:0004f3cc       ?configure_argv@__scrt_narrow_argv_policy@@SAHXZ 00000001800503cc f i LIBCMT:utility.obj
 0001:0004f45c       NtCurrentTeb               000000018005045c f i LIBCMT:utility.obj
 0001:0004f468       __scrt_acquire_startup_lock 0000000180050468 f   LIBCMT:utility.obj
 0001:0004f4a4       __scrt_dllmain_after_initialize_c 00000001800504a4 f   LIBCMT:utility.obj
 0001:0004f4d8       __scrt_dllmain_before_initialize_c 00000001800504d8 f   LIBCMT:utility.obj
 0001:0004f4f0       __scrt_dllmain_crt_thread_attach 00000001800504f0 f   LIBCMT:utility.obj
 0001:0004f518       __scrt_dllmain_crt_thread_detach 0000000180050518 f   LIBCMT:utility.obj
 0001:0004f530       __scrt_dllmain_exception_filter 0000000180050530 f   LIBCMT:utility.obj
 0001:0004f594       __scrt_dllmain_uninitialize_c 0000000180050594 f   LIBCMT:utility.obj
 0001:0004f5c4       __scrt_dllmain_uninitialize_critical 00000001800505c4 f   LIBCMT:utility.obj
 0001:0004f5d8       __scrt_initialize_crt      00000001800505d8 f   LIBCMT:utility.obj
 0001:0004f624       __scrt_initialize_onexit_tables 0000000180050624 f   LIBCMT:utility.obj
 0001:0004f6f0       __scrt_is_nonwritable_in_current_image 00000001800506f0 f   LIBCMT:utility.obj
 0001:0004f78c       __scrt_release_startup_lock 000000018005078c f   LIBCMT:utility.obj
 0001:0004f7b0       __scrt_uninitialize_crt    00000001800507b0 f   LIBCMT:utility.obj
 0001:0004f7dc       _onexit                    00000001800507dc f   LIBCMT:utility.obj
 0001:0004f82c       at_quick_exit              000000018005082c f   LIBCMT:utility.obj
 0001:0004f864       atexit                     0000000180050864 f   LIBCMT:utility.obj
 0001:0004f87c       __security_init_cookie     000000018005087c f   LIBCMT:gs_support.obj
 0001:0004f928       DllMain                    0000000180050928 f   LIBCMT:dll_dllmain_stub.obj
 0001:0004f930       ?__scrt_initialize_type_info@@YAXXZ 0000000180050930 f   LIBCMT:tncleanup.obj
 0001:0004f940       ?__scrt_uninitialize_type_info@@YAXXZ 0000000180050940 f   LIBCMT:tncleanup.obj
 0001:0004f94c       __local_stdio_scanf_options 000000018005094c f i LIBCMT:default_local_stdio_options.obj
 0001:0004f954       __scrt_initialize_default_local_stdio_options 0000000180050954 f   LIBCMT:default_local_stdio_options.obj
 0001:0004f970       __scrt_get_dyn_tls_init_callback 0000000180050970 f   LIBCMT:dyn_tls_init.obj
 0001:0004f978       __crt_debugger_hook        0000000180050978 f   LIBCMT:utility_desktop.obj
 0001:0004f980       __scrt_fastfail            0000000180050980 f   LIBCMT:utility_desktop.obj
 0001:0004fac8       __scrt_get_show_window_mode 0000000180050ac8 f   LIBCMT:utility_desktop.obj
 0001:0004fb04       __scrt_initialize_winrt    0000000180050b04 f   LIBCMT:utility_desktop.obj
 0001:0004fb08       __scrt_is_managed_app      0000000180050b08 f   LIBCMT:utility_desktop.obj
 0001:0004fb5c       __scrt_set_unhandled_exception_filter 0000000180050b5c f   LIBCMT:utility_desktop.obj
 0001:0004fb6c       __scrt_unhandled_exception_filter 0000000180050b6c f   LIBCMT:utility_desktop.obj
 0001:0004fba4       _RTC_Initialize            0000000180050ba4 f   LIBCMT:_initsect_.obj
 0001:0004fbf0       _RTC_Terminate             0000000180050bf0 f   LIBCMT:_initsect_.obj
 0001:0004fc3c       _guard_check_icall         0000000180050c3c f i LIBCMT:checkcfg.obj
 0001:0004fc50       ??1type_info@@UEAA@XZ      0000000180050c50 f   LIBCMT:std_type_info_static.obj
 0001:0004fc5c       ??_Gtype_info@@UEAAPEAXI@Z 0000000180050c5c f i LIBCMT:std_type_info_static.obj
 0001:0004fc5c       ??_Etype_info@@UEAAPEAXI@Z 0000000180050c5c f i LIBCMT:std_type_info_static.obj
 0001:0004fc88       __isa_available_init       0000000180050c88 f   LIBCMT:_cpu_disp_.obj
 0001:0004fe50       _get_startup_argv_mode     0000000180050e50 f   LIBCMT:argv_mode.obj
 0001:0004fe58       __scrt_is_ucrt_dll_in_use  0000000180050e58 f   LIBCMT:ucrt_detection.obj
 0001:0004fe64       ??$__crt_fast_decode_pointer@P6AXXZ@@YAP6AXXZQ6AXXZ@Z 0000000180050e64 f i libvcruntime:purevirt.obj
 0001:0004fe7c       ??$__crt_fast_encode_pointer@P6AXXZ@@YAP6AXXZQ6AXXZ@Z 0000000180050e7c f i libvcruntime:purevirt.obj
 0001:0004fe9c       ??$__crt_interlocked_compare_exchange_pointer@$$A6AXXZ$$T$$T@@YAP6AXXZPEDS6AXXZ$$T1@Z 0000000180050e9c f i libvcruntime:purevirt.obj
 0001:0004fea8       ??$__crt_interlocked_exchange_pointer@$$A6AXXZP6AXXZ@@YAP6AXXZPEDS6AXXZQ6AXXZ@Z 0000000180050ea8 f i libvcruntime:purevirt.obj
 0001:0004feb0       ??$__crt_interlocked_read_pointer@$$A6AXXZ@@YAP6AXXZPEDS6AXXZ@Z 0000000180050eb0 f i libvcruntime:purevirt.obj
 0001:0004febc       _get_purecall_handler      0000000180050ebc f   libvcruntime:purevirt.obj
 0001:0004fedc       _purecall                  0000000180050edc f   libvcruntime:purevirt.obj
 0001:0004ff18       _set_purecall_handler      0000000180050f18 f   libvcruntime:purevirt.obj
 0001:0004ff50       __C_specific_handler       0000000180050f50 f   libvcruntime:_chandler_.obj
 0001:0005014c       ??$?RD@__crt_public_free_policy@@QEBAXQEBD@Z 000000018005114c f i libvcruntime:std_exception.obj
 0001:00050154       ??0?$__crt_unique_heap_ptr@DU__crt_public_free_policy@@@@QEAA@QEAD@Z 0000000180051154 f i libvcruntime:std_exception.obj
 0001:0005015c       ??1?$__crt_unique_heap_ptr@DU__crt_public_free_policy@@@@QEAA@XZ 000000018005115c f i libvcruntime:std_exception.obj
 0001:00050178       ??B?$__crt_unique_heap_ptr@DU__crt_public_free_policy@@@@QEBA_NXZ 0000000180051178 f i libvcruntime:std_exception.obj
 0001:00050180       ?detach@?$__crt_unique_heap_ptr@DU__crt_public_free_policy@@@@QEAAPEADXZ 0000000180051180 f i libvcruntime:std_exception.obj
 0001:00050188       ?get@?$__crt_unique_heap_ptr@DU__crt_public_free_policy@@@@QEBAPEADXZ 0000000180051188 f i libvcruntime:std_exception.obj
 0001:0005018c       ?is_valid@?$__crt_unique_heap_ptr@DU__crt_public_free_policy@@@@QEBA_NXZ 000000018005118c f i libvcruntime:std_exception.obj
 0001:00050194       ?release@?$__crt_unique_heap_ptr@DU__crt_public_free_policy@@@@QEAAXXZ 0000000180051194 f i libvcruntime:std_exception.obj
 0001:000501b0       __std_exception_copy       00000001800511b0 f   libvcruntime:std_exception.obj
 0001:00050240       __std_exception_destroy    0000000180051240 f   libvcruntime:std_exception.obj
 0001:00050268       _CxxThrowException         0000000180051268 f   libvcruntime:throw.obj
 0001:00050340       __vcrt_initialize          0000000180051340 f   libvcruntime:initialization.obj
 0001:00050374       __vcrt_thread_attach       0000000180051374 f   libvcruntime:initialization.obj
 0001:00050388       __vcrt_thread_detach       0000000180051388 f   libvcruntime:initialization.obj
 0001:0005039c       __vcrt_uninitialize        000000018005139c f   libvcruntime:initialization.obj
 0001:000503bc       __vcrt_uninitialize_critical 00000001800513bc f   libvcruntime:initialization.obj
 0001:000503e0       ??$?RD@__crt_internal_free_policy@@QEBAXQEBD@Z 00000001800513e0 f i libvcruntime:std_type_info.obj
 0001:000503e8       ??$?RX@__crt_internal_free_policy@@QEBAXQEBX@Z 00000001800513e8 f i libvcruntime:std_type_info.obj
 0001:000503f0       ??$__crt_interlocked_compare_exchange_pointer@$$CBD$$T$$T@@YAPEBDPEDSEBD$$T1@Z 00000001800513f0 f i libvcruntime:std_type_info.obj
 0001:000503fc       ??$__crt_interlocked_compare_exchange_pointer@$$CBDPEAD$$T@@YAPEBDPEDSEBDQEAD$$T@Z 00000001800513fc f i libvcruntime:std_type_info.obj
 0001:00050408       ??$__crt_interlocked_read_pointer@$$CBD@@YAPEBDPEDSEBD@Z 0000000180051408 f i libvcruntime:std_type_info.obj
 0001:00050414       ??0?$__crt_unique_heap_ptr@DU__crt_internal_free_policy@@@@QEAA@QEAD@Z 0000000180051414 f i libvcruntime:std_type_info.obj
 0001:0005041c       ??0?$__crt_unique_heap_ptr@XU__crt_internal_free_policy@@@@QEAA@QEAX@Z 000000018005141c f i libvcruntime:std_type_info.obj
 0001:00050424       ??1?$__crt_unique_heap_ptr@DU__crt_internal_free_policy@@@@QEAA@XZ 0000000180051424 f i libvcruntime:std_type_info.obj
 0001:00050440       ??1?$__crt_unique_heap_ptr@XU__crt_internal_free_policy@@@@QEAA@XZ 0000000180051440 f i libvcruntime:std_type_info.obj
 0001:0005046c       ??B?$__crt_unique_heap_ptr@DU__crt_internal_free_policy@@@@QEBA_NXZ 000000018005146c f i libvcruntime:std_type_info.obj
 0001:00050474       ??B?$__crt_unique_heap_ptr@XU__crt_internal_free_policy@@@@QEBA_NXZ 0000000180051474 f i libvcruntime:std_type_info.obj
 0001:0005048c       ?detach@?$__crt_unique_heap_ptr@XU__crt_internal_free_policy@@@@QEAAPEAXXZ 000000018005148c f i libvcruntime:std_type_info.obj
 0001:00050494       ?get@?$__crt_unique_heap_ptr@DU__crt_internal_free_policy@@@@QEBAPEADXZ 0000000180051494 f i libvcruntime:std_type_info.obj
 0001:00050498       ?get@?$__crt_unique_heap_ptr@XU__crt_internal_free_policy@@@@QEBAPEAXXZ 0000000180051498 f i libvcruntime:std_type_info.obj
 0001:0005049c       ?is_valid@?$__crt_unique_heap_ptr@DU__crt_internal_free_policy@@@@QEBA_NXZ 000000018005149c f i libvcruntime:std_type_info.obj
 0001:000504a4       ?is_valid@?$__crt_unique_heap_ptr@XU__crt_internal_free_policy@@@@QEBA_NXZ 00000001800514a4 f i libvcruntime:std_type_info.obj
 0001:000504ac       ?release@?$__crt_unique_heap_ptr@DU__crt_internal_free_policy@@@@QEAAXXZ 00000001800514ac f i libvcruntime:std_type_info.obj
 0001:000504c8       ?release@?$__crt_unique_heap_ptr@XU__crt_internal_free_policy@@@@QEAAXXZ 00000001800514c8 f i libvcruntime:std_type_info.obj
 0001:000504e4       __std_type_info_compare    00000001800514e4 f   libvcruntime:std_type_info.obj
 0001:0005050c       __std_type_info_destroy_list 000000018005150c f   libvcruntime:std_type_info.obj
 0001:00050538       __std_type_info_hash       0000000180051538 f   libvcruntime:std_type_info.obj
 0001:00050574       __std_type_info_name       0000000180051574 f   libvcruntime:std_type_info.obj
 0001:000506b0       memset                     00000001800516b0 f   libvcruntime:memset.obj
 0001:00050850       ??$?B$$A6AXXZ@__crt_fast_encoded_nullptr_t@@QEBAP6AXXZXZ 0000000180051850 f i libvcruntime:purevirt_data.obj
 0001:0005086c       ?__crt_fast_encode_pointer@@YA?AU__crt_fast_encoded_nullptr_t@@$$T@Z 000000018005186c f i libvcruntime:purevirt_data.obj
 0001:00050874       __vcrt_initialize_pure_virtual_call_handler 0000000180051874 f   libvcruntime:purevirt_data.obj
 0001:000508b0       _local_unwind              00000001800518b0 f   libvcruntime:_jmpuwind_.obj
 0001:000508e0       _NLG_Notify                00000001800518e0 f   libvcruntime:_jmpuwind_.obj
 0001:00050900       __NLG_Dispatch2            0000000180051900 f   libvcruntime:_jmpuwind_.obj
 0001:00050910       __NLG_Return2              0000000180051910 f   libvcruntime:_jmpuwind_.obj
 0001:00050914       __except_validate_context_record 0000000180051914 f   libvcruntime:jbcxrval.obj
 0001:00050918       __except_validate_jump_buffer 0000000180051918 f   libvcruntime:jbcxrval.obj
 0001:0005091c       ??$?RU__vcrt_ptd@@@__crt_internal_free_policy@@QEBAXQEBU__vcrt_ptd@@@Z 000000018005191c f i libvcruntime:per_thread_data.obj
 0001:00050924       ??0?$__crt_unique_heap_ptr@U__vcrt_ptd@@U__crt_internal_free_policy@@@@QEAA@QEAU__vcrt_ptd@@@Z 0000000180051924 f i libvcruntime:per_thread_data.obj
 0001:00050948       ??1?$__crt_unique_heap_ptr@U__vcrt_ptd@@U__crt_internal_free_policy@@@@QEAA@XZ 0000000180051948 f i libvcruntime:per_thread_data.obj
 0001:00050970       ??B?$__crt_unique_heap_ptr@U__vcrt_ptd@@U__crt_internal_free_policy@@@@QEBA_NXZ 0000000180051970 f i libvcruntime:per_thread_data.obj
 0001:00050978       ?detach@?$__crt_unique_heap_ptr@U__vcrt_ptd@@U__crt_internal_free_policy@@@@QEAAPEAU__vcrt_ptd@@XZ 0000000180051978 f i libvcruntime:per_thread_data.obj
 0001:00050980       ?get@?$__crt_unique_heap_ptr@U__vcrt_ptd@@U__crt_internal_free_policy@@@@QEBAPEAU__vcrt_ptd@@XZ 0000000180051980 f i libvcruntime:per_thread_data.obj
 0001:00050984       ?is_valid@?$__crt_unique_heap_ptr@U__vcrt_ptd@@U__crt_internal_free_policy@@@@QEBA_NXZ 0000000180051984 f i libvcruntime:per_thread_data.obj
 0001:0005098c       ?release@?$__crt_unique_heap_ptr@U__vcrt_ptd@@U__crt_internal_free_policy@@@@QEAAXXZ 000000018005198c f i libvcruntime:per_thread_data.obj
 0001:000509c4       __vcrt_freefls             00000001800519c4 f   libvcruntime:per_thread_data.obj
 0001:000509e4       __vcrt_freeptd             00000001800519e4 f   libvcruntime:per_thread_data.obj
 0001:00050a34       __vcrt_getptd              0000000180051a34 f   libvcruntime:per_thread_data.obj
 0001:00050a50       __vcrt_getptd_noexit       0000000180051a50 f   libvcruntime:per_thread_data.obj
 0001:00050b08       __vcrt_initialize_ptd      0000000180051b08 f   libvcruntime:per_thread_data.obj
 0001:00050b48       __vcrt_uninitialize_ptd    0000000180051b48 f   libvcruntime:per_thread_data.obj
 0001:00050b6c       __vcrt_initialize_locks    0000000180051b6c f   libvcruntime:locks.obj
 0001:00050bb4       __vcrt_lock                0000000180051bb4 f   libvcruntime:locks.obj
 0001:00050bd0       __vcrt_uninitialize_locks  0000000180051bd0 f   libvcruntime:locks.obj
 0001:00050c08       __vcrt_unlock              0000000180051c08 f   libvcruntime:locks.obj
 0001:00050c24       ??$?BX@__crt_fast_encoded_nullptr_t@@QEBAPEAXXZ 0000000180051c24 f i libvcruntime:winapi_downlevel.obj
 0001:00050c40       ??$__crt_fast_decode_pointer@PEAX@@YAPEAXQEAX@Z 0000000180051c40 f i libvcruntime:winapi_downlevel.obj
 0001:00050c58       ??$__crt_fast_encode_pointer@PEAX@@YAPEAXQEAX@Z 0000000180051c58 f i libvcruntime:winapi_downlevel.obj
 0001:00050c78       ??$__crt_interlocked_compare_exchange_pointer@UHINSTANCE__@@$$T$$T@@YAPEAUHINSTANCE__@@PEDSEAU0@$$T1@Z 0000000180051c78 f i libvcruntime:winapi_downlevel.obj
 0001:00050c84       ??$__crt_interlocked_compare_exchange_pointer@X$$T$$T@@YAPEAXPEDSEAX$$T1@Z 0000000180051c84 f i libvcruntime:winapi_downlevel.obj
 0001:00050c90       ??$__crt_interlocked_exchange_pointer@UHINSTANCE__@@PEAU1@@@YAPEAUHINSTANCE__@@PEDSEAU0@QEAU0@@Z 0000000180051c90 f i libvcruntime:winapi_downlevel.obj
 0001:00050c98       ??$__crt_interlocked_exchange_pointer@UHINSTANCE__@@PEAX@@YAPEAUHINSTANCE__@@PEDSEAU0@QEAX@Z 0000000180051c98 f i libvcruntime:winapi_downlevel.obj
 0001:00050ca0       ??$__crt_interlocked_exchange_pointer@XPEAX@@YAPEAXPEDSEAXQEAX@Z 0000000180051ca0 f i libvcruntime:winapi_downlevel.obj
 0001:00050ca8       ??$__crt_interlocked_read_pointer@UHINSTANCE__@@@@YAPEAUHINSTANCE__@@PEDSEAU0@@Z 0000000180051ca8 f i libvcruntime:winapi_downlevel.obj
 0001:00050cb4       ??$__crt_interlocked_read_pointer@X@@YAPEAXPEDSEAX@Z 0000000180051cb4 f i libvcruntime:winapi_downlevel.obj
 0001:000512c0       __vcrt_EventRegister       00000001800522c0 f   libvcruntime:winapi_downlevel.obj
 0001:00051344       __vcrt_EventSetInformation 0000000180052344 f   libvcruntime:winapi_downlevel.obj
 0001:000513c8       __vcrt_EventUnregister     00000001800523c8 f   libvcruntime:winapi_downlevel.obj
 0001:0005141c       __vcrt_EventWriteTransfer  000000018005241c f   libvcruntime:winapi_downlevel.obj
 0001:000514b4       __vcrt_FlsAlloc            00000001800524b4 f   libvcruntime:winapi_downlevel.obj
 0001:00051508       __vcrt_FlsFree             0000000180052508 f   libvcruntime:winapi_downlevel.obj
 0001:0005155c       __vcrt_FlsGetValue         000000018005255c f   libvcruntime:winapi_downlevel.obj
 0001:000515b0       __vcrt_FlsSetValue         00000001800525b0 f   libvcruntime:winapi_downlevel.obj
 0001:00051618       __vcrt_InitializeCriticalSectionEx 0000000180052618 f   libvcruntime:winapi_downlevel.obj
 0001:00051690       __vcrt_initialize_winapi_thunks 0000000180052690 f   libvcruntime:winapi_downlevel.obj
 0001:000516dc       __vcrt_uninitialize_winapi_thunks 00000001800526dc f   libvcruntime:winapi_downlevel.obj
 0001:0005171c       ??$__vcrt_va_start_verify_argument_type@QEBD@@YAXXZ 000000018005271c f i libvcruntime:undname.obj
 0001:00051720       ??0Block@_HeapManager@@QEAA@XZ 0000000180052720 f i libvcruntime:undname.obj
 0001:00051728       ??0DName@@QEAA@AEAPEBDD@Z  0000000180052728 f   libvcruntime:undname.obj
 0001:00051808       ??0DName@@QEAA@AEBV0@@Z    0000000180052808 f i libvcruntime:undname.obj
 0001:00051814       ??0DName@@QEAA@D@Z         0000000180052814 f   libvcruntime:undname.obj
 0001:0005184c       ??0DName@@QEAA@PEAV0@@Z    000000018005284c f   libvcruntime:undname.obj
 0001:000518d4       ??0DName@@QEAA@PEBD@Z      00000001800528d4 f   libvcruntime:undname.obj
 0001:0005191c       ??0DName@@QEAA@W4DNameStatus@@@Z 000000018005291c f   libvcruntime:undname.obj
 0001:0005196c       ??0DName@@QEAA@XZ          000000018005296c f i libvcruntime:undname.obj
 0001:00051980       ??0DName@@QEAA@_J@Z        0000000180052980 f   libvcruntime:undname.obj
 0001:00051a2c       ??0DName@@QEAA@_K@Z        0000000180052a2c f   libvcruntime:undname.obj
 0001:00051abc       ??0DNameNode@@IEAA@XZ      0000000180052abc f   libvcruntime:undname.obj
 0001:00051acc       ??0DNameStatusNode@@AEAA@W4DNameStatus@@@Z 0000000180052acc f   libvcruntime:undname.obj
 0001:00051af0       ??0Replicator@@QEAA@XZ     0000000180052af0 f i libvcruntime:undname.obj
 0001:00051af8       ??0UnDecorator@@QEAA@PEADPEBDHP6APEADJ@ZK@Z 0000000180052af8 f i libvcruntime:undname.obj
 0001:00051b6c       ??0charNode@@QEAA@D@Z      0000000180052b6c f   libvcruntime:undname.obj
 0001:00051b80       ??0pDNameNode@@QEAA@PEAVDName@@@Z 0000000180052b80 f   libvcruntime:undname.obj
 0001:00051ba8       ??0pairNode@@QEAA@PEAVDNameNode@@0@Z 0000000180052ba8 f   libvcruntime:undname.obj
 0001:00051bc4       ??0pcharNode@@QEAA@PEBDH@Z 0000000180052bc4 f   libvcruntime:undname.obj
 0001:00051c4c       ??2@YAPEAX_KAEAV_HeapManager@@H@Z 0000000180052c4c f i libvcruntime:undname.obj
 0001:00051c5c       ??4DName@@QEAAAEAV0@AEBV0@@Z 0000000180052c5c f   libvcruntime:undname.obj
 0001:00051c68       ??4DName@@QEAAAEAV0@D@Z    0000000180052c68 f i libvcruntime:undname.obj
 0001:00051ca0       ??4DName@@QEAAAEAV0@PEAV0@@Z 0000000180052ca0 f   libvcruntime:undname.obj
 0001:00051d28       ??4DName@@QEAAAEAV0@PEBD@Z 0000000180052d28 f   libvcruntime:undname.obj
 0001:00051d68       ??4DName@@QEAAAEAV0@W4DNameStatus@@@Z 0000000180052d68 f   libvcruntime:undname.obj
 0001:00051da4       ??AReplicator@@QEBA?AVDName@@H@Z 0000000180052da4 f   libvcruntime:undname.obj
 0001:00051dec       ??BUnDecorator@@QEAAPEADXZ 0000000180052dec f i libvcruntime:undname.obj
 0001:00051ffc       ??H@YA?AVDName@@DAEBV0@@Z  0000000180052ffc f i libvcruntime:undname.obj
 0001:00052038       ??H@YA?AVDName@@PEBDAEBV0@@Z 0000000180053038 f i libvcruntime:undname.obj
 0001:00052074       ??H@YA?AVDName@@W4DNameStatus@@AEBV0@@Z 0000000180053074 f i libvcruntime:undname.obj
 0001:000520b0       ??HDName@@QEBA?AV0@AEBV0@@Z 00000001800530b0 f   libvcruntime:undname.obj
 0001:000520d4       ??HDName@@QEBA?AV0@D@Z     00000001800530d4 f   libvcruntime:undname.obj
 0001:000520f8       ??HDName@@QEBA?AV0@PEAV0@@Z 00000001800530f8 f   libvcruntime:undname.obj
 0001:0005211c       ??HDName@@QEBA?AV0@PEBD@Z  000000018005311c f   libvcruntime:undname.obj
 0001:00052140       ??HDName@@QEBA?AV0@W4DNameStatus@@@Z 0000000180053140 f   libvcruntime:undname.obj
 0001:00052164       ??YDName@@QEAAAEAV0@AEBV0@@Z 0000000180053164 f   libvcruntime:undname.obj
 0001:000521a4       ??YDName@@QEAAAEAV0@D@Z    00000001800531a4 f   libvcruntime:undname.obj
 0001:00052228       ??YDName@@QEAAAEAV0@PEAV0@@Z 0000000180053228 f   libvcruntime:undname.obj
 0001:000522c0       ??YDName@@QEAAAEAV0@PEBD@Z 00000001800532c0 f   libvcruntime:undname.obj
 0001:0005234c       ??YDName@@QEAAAEAV0@W4DNameStatus@@@Z 000000018005334c f   libvcruntime:undname.obj
 0001:00052390       ??YReplicator@@QEAAAEAV0@AEBVDName@@@Z 0000000180053390 f   libvcruntime:undname.obj
 0001:000523f0       ??_5DName@@QEAAAEAV0@AEBV0@@Z 00000001800533f0 f   libvcruntime:undname.obj
 0001:00052404       ?Constructor@_HeapManager@@QEAAXP6APEAX_K@ZP6AXPEAX@Z@Z 0000000180053404 f i libvcruntime:undname.obj
 0001:0005241c       ?Destructor@_HeapManager@@QEAAXXZ 000000018005341c f i libvcruntime:undname.obj
 0001:00052470       ?UScore@UnDecorator@@SAPEBDW4Tokens@@@Z 0000000180053470 f   libvcruntime:undname.obj
 0001:00052490       ?append@DName@@AEAAXPEAVDNameNode@@@Z 0000000180053490 f   libvcruntime:undname.obj
 0001:000524f4       ?composeDeclaration@UnDecorator@@CA?AVDName@@AEBV2@@Z 00000001800534f4 f i libvcruntime:undname.obj
 0001:00053390       ?doAccessSpecifiers@UnDecorator@@SAHXZ 0000000180054390 f i libvcruntime:undname.obj
 0001:000533a0       ?doAllocationLanguage@UnDecorator@@SAHXZ 00000001800543a0 f i libvcruntime:undname.obj
 0001:000533b0       ?doAllocationModel@UnDecorator@@SAHXZ 00000001800543b0 f i libvcruntime:undname.obj
 0001:000533c0       ?doEcsu@UnDecorator@@SAHXZ 00000001800543c0 f i libvcruntime:undname.obj
 0001:000533d0       ?doEllipsis@UnDecorator@@SAHXZ 00000001800543d0 f i libvcruntime:undname.obj
 0001:000533e0       ?doFunctionReturns@UnDecorator@@SAHXZ 00000001800543e0 f i libvcruntime:undname.obj
 0001:000533f0       ?doMSKeywords@UnDecorator@@SAHXZ 00000001800543f0 f i libvcruntime:undname.obj
 0001:00053400       ?doMemberTypes@UnDecorator@@SAHXZ 0000000180054400 f i libvcruntime:undname.obj
 0001:00053410       ?doNameOnly@UnDecorator@@SAHXZ 0000000180054410 f i libvcruntime:undname.obj
 0001:0005341c       ?doNoIdentCharCheck@UnDecorator@@SAHXZ 000000018005441c f i libvcruntime:undname.obj
 0001:00053428       ?doPchar@DName@@AEAAXPEBDH@Z 0000000180054428 f   libvcruntime:undname.obj
 0001:000534d4       ?doPtr64@UnDecorator@@SAHXZ 00000001800544d4 f i libvcruntime:undname.obj
 0001:000534e4       ?doRestrictionSpec@UnDecorator@@SAHXZ 00000001800544e4 f i libvcruntime:undname.obj
 0001:000534f4       ?doThisTypes@UnDecorator@@SAHXZ 00000001800544f4 f i libvcruntime:undname.obj
 0001:00053508       ?doThrowTypes@UnDecorator@@SAHXZ 0000000180054508 f i libvcruntime:undname.obj
 0001:00053518       ?doTypeOnly@UnDecorator@@SAHXZ 0000000180054518 f i libvcruntime:undname.obj
 0001:00053524       ?doUnderScore@UnDecorator@@SAHXZ 0000000180054524 f i libvcruntime:undname.obj
 0001:00053530       ?getArgumentList@UnDecorator@@CA?AVDName@@XZ 0000000180054530 f   libvcruntime:undname.obj
 0001:00053674       ?getArgumentTypes@UnDecorator@@CA?AVDName@@XZ 0000000180054674 f   libvcruntime:undname.obj
 0001:00053770       ?getArrayType@UnDecorator@@CA?AVDName@@AEBV2@@Z 0000000180054770 f i libvcruntime:undname.obj
 0001:000539ac       ?getBasedType@UnDecorator@@CA?AVDName@@XZ 00000001800549ac f   libvcruntime:undname.obj
 0001:00053a6c       ?getBasicDataType@UnDecorator@@CA?AVDName@@AEBV2@@Z 0000000180054a6c f   libvcruntime:undname.obj
 0001:00053eb0       ?getCallIndex@UnDecorator@@CA?AVDName@@XZ 0000000180054eb0 f i libvcruntime:undname.obj
 0001:00053ecc       ?getCallingConvention@UnDecorator@@CA?AVDName@@XZ 0000000180054ecc f   libvcruntime:undname.obj
 0001:00053fcc       ?getDataIndirectType@UnDecorator@@CA?AVDName@@AEBV2@PEBD0H@Z 0000000180054fcc f   libvcruntime:undname.obj
 0001:00054704       ?getDataIndirectType@UnDecorator@@CA?AVDName@@XZ 0000000180055704 f i libvcruntime:undname.obj
 0001:0005474c       ?getDataType@UnDecorator@@CA?AVDName@@PEAV2@@Z 000000018005574c f   libvcruntime:undname.obj
 0001:00054830       ?getDecoratedName@UnDecorator@@CA?AVDName@@XZ 0000000180055830 f   libvcruntime:undname.obj
 0001:00054aa4       ?getDimension@UnDecorator@@CA?AVDName@@_N@Z 0000000180055aa4 f   libvcruntime:undname.obj
 0001:00054c00       ?getDispatchTarget@UnDecorator@@CA?AVDName@@XZ 0000000180055c00 f   libvcruntime:undname.obj
 0001:00054c64       ?getDisplacement@UnDecorator@@CA?AVDName@@XZ 0000000180055c64 f i libvcruntime:undname.obj
 0001:00054c80       ?getECSUDataType@UnDecorator@@CA?AVDName@@XZ 0000000180055c80 f   libvcruntime:undname.obj
 0001:00054de4       ?getECSUName@UnDecorator@@CA?AVDName@@XZ 0000000180055de4 f i libvcruntime:undname.obj
 0001:00054dfc       ?getEnumType@UnDecorator@@CA?AVDName@@XZ 0000000180055dfc f i libvcruntime:undname.obj
 0001:00054ee4       ?getExtendedDataIndirectType@UnDecorator@@CA?AVDName@@AEAPEBDAEA_NH@Z 0000000180055ee4 f   libvcruntime:undname.obj
 0001:00055128       ?getExternalDataType@UnDecorator@@CA?AVDName@@AEBV2@@Z 0000000180056128 f i libvcruntime:undname.obj
 0001:000551fc       ?getFunctionIndirectType@UnDecorator@@CA?AVDName@@AEBV2@@Z 00000001800561fc f   libvcruntime:undname.obj
 0001:0005571c       ?getGuardNumber@UnDecorator@@CA?AVDName@@XZ 000000018005671c f i libvcruntime:undname.obj
 0001:00055738       ?getLastChar@DName@@QEBADXZ 0000000180056738 f i libvcruntime:undname.obj
 0001:00055770       ?getLastChar@DNameStatusNode@@UEBADXZ 0000000180056770 f i libvcruntime:undname.obj
 0001:0005577c       ?getLastChar@charNode@@UEBADXZ 000000018005677c f i libvcruntime:undname.obj
 0001:00055780       ?getLastChar@pDNameNode@@UEBADXZ 0000000180056780 f i libvcruntime:undname.obj
 0001:000557bc       ?getLastChar@pairNode@@UEBADXZ 00000001800567bc f i libvcruntime:undname.obj
 0001:00055814       ?getLastChar@pcharNode@@UEBADXZ 0000000180056814 f i libvcruntime:undname.obj
 0001:0005582c       ?getLexicalFrame@UnDecorator@@CA?AVDName@@XZ 000000018005682c f i libvcruntime:undname.obj
 0001:0005588c       ?getMemory@_HeapManager@@QEAAPEAX_KH@Z 000000018005688c f   libvcruntime:undname.obj
 0001:00055948       ?getNumberOfDimensions@UnDecorator@@CAHXZ 0000000180056948 f   libvcruntime:undname.obj
 0001:000559bc       ?getOperatorName@UnDecorator@@CA?AVDName@@_NPEA_N@Z 00000001800569bc f i libvcruntime:undname.obj
 0001:00056110       ?getPointerType@UnDecorator@@CA?AVDName@@AEBV2@0@Z 0000000180057110 f i libvcruntime:undname.obj
 0001:00056130       ?getPointerTypeArray@UnDecorator@@CA?AVDName@@AEBV2@0@Z 0000000180057130 f i libvcruntime:undname.obj
 0001:00056150       ?getPrimaryDataType@UnDecorator@@CA?AVDName@@AEBV2@@Z 0000000180057150 f   libvcruntime:undname.obj
 0001:000563b0       ?getPtrRefDataType@UnDecorator@@CA?AVDName@@AEBV2@H@Z 00000001800573b0 f   libvcruntime:undname.obj
 0001:000564d8       ?getPtrRefType@UnDecorator@@CA?AVDName@@AEBV2@0PEBD@Z 00000001800574d8 f   libvcruntime:undname.obj
 0001:0005660c       ?getReferenceType@UnDecorator@@CA?AVDName@@AEBV2@0PEBD@Z 000000018005760c f i libvcruntime:undname.obj
 0001:00056624       ?getRestrictionSpec@UnDecorator@@CA?AVDName@@XZ 0000000180057624 f   libvcruntime:undname.obj
 0001:00056750       ?getReturnType@UnDecorator@@CA?AVDName@@PEAV2@@Z 0000000180057750 f   libvcruntime:undname.obj
 0001:00056784       ?getScope@UnDecorator@@CA?AVDName@@XZ 0000000180057784 f   libvcruntime:undname.obj
 0001:00056c30       ?getScopedName@UnDecorator@@CA?AVDName@@XZ 0000000180057c30 f   libvcruntime:undname.obj
 0001:00056d48       ?getSignedDimension@UnDecorator@@CA?AVDName@@XZ 0000000180057d48 f   libvcruntime:undname.obj
 0001:00056dc4       ?getStorageConvention@UnDecorator@@CA?AVDName@@XZ 0000000180057dc4 f i libvcruntime:undname.obj
 0001:00056e0c       ?getString@DName@@QEBAPEADPEAD0@Z 0000000180057e0c f i libvcruntime:undname.obj
 0001:00056e64       ?getString@DName@@QEBAPEADPEADH@Z 0000000180057e64 f i libvcruntime:undname.obj
 0001:00056f14       ?getString@DNameStatusNode@@UEBAPEADPEAD0@Z 0000000180057f14 f i libvcruntime:undname.obj
 0001:00056f58       ?getString@charNode@@UEBAPEADPEAD0@Z 0000000180057f58 f i libvcruntime:undname.obj
 0001:00056f6c       ?getString@pDNameNode@@UEBAPEADPEAD0@Z 0000000180057f6c f i libvcruntime:undname.obj
 0001:00056fcc       ?getString@pairNode@@UEBAPEADPEAD0@Z 0000000180057fcc f i libvcruntime:undname.obj
 0001:00057050       ?getString@pcharNode@@UEBAPEADPEAD0@Z 0000000180058050 f i libvcruntime:undname.obj
 0001:00057088       ?getStringEncoding@UnDecorator@@CA?AVDName@@PEADH@Z 0000000180058088 f   libvcruntime:undname.obj
 0001:00057148       ?getStringHelper@@YAPEADPEAD00H@Z 0000000180058148 f i libvcruntime:undname.obj
 0001:00057178       ?getSymbolName@UnDecorator@@CA?AVDName@@XZ 0000000180058178 f i libvcruntime:undname.obj
 0001:000571c4       ?getTemplateArgumentList@UnDecorator@@CA?AVDName@@XZ 00000001800581c4 f   libvcruntime:undname.obj
 0001:00057494       ?getTemplateConstant@UnDecorator@@CA?AVDName@@XZ 0000000180058494 f   libvcruntime:undname.obj
 0001:0005783c       ?getTemplateName@UnDecorator@@CA?AVDName@@_N@Z 000000018005883c f   libvcruntime:undname.obj
 0001:00057a18       ?getThisType@UnDecorator@@CA?AVDName@@XZ 0000000180058a18 f i libvcruntime:undname.obj
 0001:00057a60       ?getThrowTypes@UnDecorator@@CA?AVDName@@XZ 0000000180058a60 f   libvcruntime:undname.obj
 0001:00057b24       ?getTypeEncoding@UnDecorator@@CAHXZ 0000000180058b24 f i libvcruntime:undname.obj
 0001:00057e88       ?getVCallThunkType@UnDecorator@@CA?AVDName@@XZ 0000000180058e88 f i libvcruntime:undname.obj
 0001:00057ed4       ?getVbTableType@UnDecorator@@CA?AVDName@@AEBV2@@Z 0000000180058ed4 f i libvcruntime:undname.obj
 0001:00057eec       ?getVdispMapType@UnDecorator@@CA?AVDName@@AEBV2@@Z 0000000180058eec f i libvcruntime:undname.obj
 0001:00057f48       ?getVfTableType@UnDecorator@@CA?AVDName@@AEBV2@@Z 0000000180058f48 f i libvcruntime:undname.obj
 0001:00058118       ?getZName@UnDecorator@@CA?AVDName@@_N0@Z 0000000180059118 f   libvcruntime:undname.obj
 0001:000583b4       ?haveTemplateParameters@UnDecorator@@SAHXZ 00000001800593b4 f i libvcruntime:undname.obj
 0001:000583c0       ?isArray@DName@@QEBAHXZ    00000001800593c0 f i libvcruntime:undname.obj
 0001:000583cc       ?isComArray@DName@@QEBAHXZ 00000001800593cc f i libvcruntime:undname.obj
 0001:000583d8       ?isEmpty@DName@@QEBAHXZ    00000001800593d8 f i libvcruntime:undname.obj
 0001:000583e4       ?isFull@Replicator@@QEBAHXZ 00000001800593e4 f i libvcruntime:undname.obj
 0001:000583f0       ?isNoTE@DName@@QEBAHXZ     00000001800593f0 f i libvcruntime:undname.obj
 0001:000583fc       ?isPinPtr@DName@@QEBAHXZ   00000001800593fc f i libvcruntime:undname.obj
 0001:00058408       ?isPtrRef@DName@@QEBAHXZ   0000000180059408 f i libvcruntime:undname.obj
 0001:00058414       ?isUDC@DName@@QEBAHXZ      0000000180059414 f i libvcruntime:undname.obj
 0001:0005842c       ?isUDTThunk@DName@@QEBAHXZ 000000018005942c f i libvcruntime:undname.obj
 0001:00058444       ?isVCallThunk@DName@@QEBAHXZ 0000000180059444 f i libvcruntime:undname.obj
 0001:00058450       ?isValid@DName@@QEBAHXZ    0000000180059450 f i libvcruntime:undname.obj
 0001:0005845c       ?length@DName@@QEBAHXZ     000000018005945c f i libvcruntime:undname.obj
 0001:00058490       ?length@DNameStatusNode@@UEBAHXZ 0000000180059490 f i libvcruntime:undname.obj
 0001:00058494       ?length@charNode@@UEBAHXZ  0000000180059494 f i libvcruntime:undname.obj
 0001:0005849c       ?length@pDNameNode@@UEBAHXZ 000000018005949c f i libvcruntime:undname.obj
 0001:000584d8       ?length@pairNode@@UEBAHXZ  00000001800594d8 f i libvcruntime:undname.obj
 0001:00058544       ?length@pcharNode@@UEBAHXZ 0000000180059544 f i libvcruntime:undname.obj
 0001:00058548       ?make@DNameStatusNode@@SAPEAV1@W4DNameStatus@@@Z 0000000180059548 f i libvcruntime:undname.obj
 0001:000585d0       ?setIsArray@DName@@QEAAXXZ 00000001800595d0 f i libvcruntime:undname.obj
 0001:000585d8       ?setIsComArray@DName@@QEAAXXZ 00000001800595d8 f i libvcruntime:undname.obj
 0001:000585e0       ?setIsNoTE@DName@@QEAAXXZ  00000001800595e0 f i libvcruntime:undname.obj
 0001:000585e8       ?setIsPinPtr@DName@@QEAAXXZ 00000001800595e8 f i libvcruntime:undname.obj
 0001:000585f0       ?setIsUDC@DName@@QEAAXXZ   00000001800595f0 f i libvcruntime:undname.obj
 0001:000585fc       ?setIsVCallThunk@DName@@QEAAXXZ 00000001800595fc f i libvcruntime:undname.obj
 0001:00058604       ?setPtrRef@DName@@QEAAAEAV1@XZ 0000000180059604 f i libvcruntime:undname.obj
 0001:00058610       ?status@DName@@QEBA?AW4DNameStatus@@XZ 0000000180059610 f i libvcruntime:undname.obj
 0001:00058674       __unDName                  0000000180059674 f   libvcruntime:undname.obj
 0001:0005876c       __unDNameEx                000000018005976c f   libvcruntime:undname.obj
 0001:00058868       _vsprintf_s_l              0000000180059868 f i libvcruntime:undname.obj
 0001:000588cc       sprintf_s                  00000001800598cc f i libvcruntime:undname.obj
 0001:00058920       ??$?0AEBV?$stream_output_adapter@D@__crt_stdio_output@@AEB_KAEBQEBDAEBQEAU__crt_locale_pointers@@AEBQEAD@?$format_validation_base@DV?$stream_output_adapter@D@__crt_stdio_output@@@__crt_stdio_output@@IEAA@AEBV?$stream_output_adapter@D@1@AEB_KAEBQEBDAEBQEAU__crt_locale_pointers@@AEBQEAD@Z 0000000180059920 f i libucrt:output.obj
 0001:000589a4       ??$?0AEBV?$stream_output_adapter@D@__crt_stdio_output@@AEB_KAEBQEBDAEBQEAU__crt_locale_pointers@@AEBQEAD@?$positional_parameter_base@DV?$stream_output_adapter@D@__crt_stdio_output@@@__crt_stdio_output@@IEAA@AEBV?$stream_output_adapter@D@1@AEB_KAEBQEBDAEBQEAU__crt_locale_pointers@@AEBQEAD@Z 00000001800599a4 f i libucrt:output.obj
 0001:00058a44       ??$?0AEBV?$stream_output_adapter@D@__crt_stdio_output@@AEB_KAEBQEBDAEBQEAU__crt_locale_pointers@@AEBQEAD@?$standard_base@DV?$stream_output_adapter@D@__crt_stdio_output@@@__crt_stdio_output@@IEAA@AEBV?$stream_output_adapter@D@1@AEB_KAEBQEBDAEBQEAU__crt_locale_pointers@@AEBQEAD@Z 0000000180059a44 f i libucrt:output.obj
 0001:00058ac8       ??$?0AEBV?$stream_output_adapter@_W@__crt_stdio_output@@AEB_KAEBQEB_WAEBQEAU__crt_locale_pointers@@AEBQEAD@?$format_validation_base@_WV?$stream_output_adapter@_W@__crt_stdio_output@@@__crt_stdio_output@@IEAA@AEBV?$stream_output_adapter@_W@1@AEB_KAEBQEB_WAEBQEAU__crt_locale_pointers@@AEBQEAD@Z 0000000180059ac8 f i libucrt:output.obj
 0001:00058b50       ??$?0AEBV?$stream_output_adapter@_W@__crt_stdio_output@@AEB_KAEBQEB_WAEBQEAU__crt_locale_pointers@@AEBQEAD@?$positional_parameter_base@_WV?$stream_output_adapter@_W@__crt_stdio_output@@@__crt_stdio_output@@IEAA@AEBV?$stream_output_adapter@_W@1@AEB_KAEBQEB_WAEBQEAU__crt_locale_pointers@@AEBQEAD@Z 0000000180059b50 f i libucrt:output.obj
 0001:00058bf4       ??$?0AEBV?$stream_output_adapter@_W@__crt_stdio_output@@AEB_KAEBQEB_WAEBQEAU__crt_locale_pointers@@AEBQEAD@?$standard_base@_WV?$stream_output_adapter@_W@__crt_stdio_output@@@__crt_stdio_output@@IEAA@AEBV?$stream_output_adapter@_W@1@AEB_KAEBQEB_WAEBQEAU__crt_locale_pointers@@AEBQEAD@Z 0000000180059bf4 f i libucrt:output.obj
 0001:00058c7c       ??$?0AEBV?$string_output_adapter@D@__crt_stdio_output@@AEB_KAEBQEBDAEBQEAU__crt_locale_pointers@@AEBQEAD@?$format_validation_base@DV?$string_output_adapter@D@__crt_stdio_output@@@__crt_stdio_output@@IEAA@AEBV?$string_output_adapter@D@1@AEB_KAEBQEBDAEBQEAU__crt_locale_pointers@@AEBQEAD@Z 0000000180059c7c f i libucrt:output.obj
 0001:00058d00       ??$?0AEBV?$string_output_adapter@D@__crt_stdio_output@@AEB_KAEBQEBDAEBQEAU__crt_locale_pointers@@AEBQEAD@?$positional_parameter_base@DV?$string_output_adapter@D@__crt_stdio_output@@@__crt_stdio_output@@IEAA@AEBV?$string_output_adapter@D@1@AEB_KAEBQEBDAEBQEAU__crt_locale_pointers@@AEBQEAD@Z 0000000180059d00 f i libucrt:output.obj
 0001:00058da0       ??$?0AEBV?$string_output_adapter@D@__crt_stdio_output@@AEB_KAEBQEBDAEBQEAU__crt_locale_pointers@@AEBQEAD@?$standard_base@DV?$string_output_adapter@D@__crt_stdio_output@@@__crt_stdio_output@@IEAA@AEBV?$string_output_adapter@D@1@AEB_KAEBQEBDAEBQEAU__crt_locale_pointers@@AEBQEAD@Z 0000000180059da0 f i libucrt:output.obj
 0001:00058e24       ??$?0AEBV?$string_output_adapter@_W@__crt_stdio_output@@AEB_KAEBQEB_WAEBQEAU__crt_locale_pointers@@AEBQEAD@?$format_validation_base@_WV?$string_output_adapter@_W@__crt_stdio_output@@@__crt_stdio_output@@IEAA@AEBV?$string_output_adapter@_W@1@AEB_KAEBQEB_WAEBQEAU__crt_locale_pointers@@AEBQEAD@Z 0000000180059e24 f i libucrt:output.obj
 0001:00058eac       ??$?0AEBV?$string_output_adapter@_W@__crt_stdio_output@@AEB_KAEBQEB_WAEBQEAU__crt_locale_pointers@@AEBQEAD@?$positional_parameter_base@_WV?$string_output_adapter@_W@__crt_stdio_output@@@__crt_stdio_output@@IEAA@AEBV?$string_output_adapter@_W@1@AEB_KAEBQEB_WAEBQEAU__crt_locale_pointers@@AEBQEAD@Z 0000000180059eac f i libucrt:output.obj
 0001:00058f50       ??$?0AEBV?$string_output_adapter@_W@__crt_stdio_output@@AEB_KAEBQEB_WAEBQEAU__crt_locale_pointers@@AEBQEAD@?$standard_base@_WV?$string_output_adapter@_W@__crt_stdio_output@@@__crt_stdio_output@@IEAA@AEBV?$string_output_adapter@_W@1@AEB_KAEBQEB_WAEBQEAU__crt_locale_pointers@@AEBQEAD@Z 0000000180059f50 f i libucrt:output.obj
 0001:00059248       ??$__crt_interlocked_read@J@@YAJPEDJ@Z 000000018005a248 f i libucrt:output.obj
 0001:0005a39c       ??$count@D@formatting_buffer@__crt_stdio_output@@QEBA_KXZ 000000018005b39c f i libucrt:output.obj
 0001:0005a3b8       ??$count@_W@formatting_buffer@__crt_stdio_output@@QEBA_KXZ 000000018005b3b8 f i libucrt:output.obj
 0001:0005a3d4       ??$data@D@formatting_buffer@__crt_stdio_output@@QEAAPEADXZ 000000018005b3d4 f i libucrt:output.obj
 0001:0005a3e4       ??$data@_W@formatting_buffer@__crt_stdio_output@@QEAAPEA_WXZ 000000018005b3e4 f i libucrt:output.obj
 0001:0005a3f4       ??$ensure_buffer_is_big_enough@D@formatting_buffer@__crt_stdio_output@@QEAA_N_K@Z 000000018005b3f4 f i libucrt:output.obj
 0001:0005a49c       ??$ensure_buffer_is_big_enough@_W@formatting_buffer@__crt_stdio_output@@QEAA_N_K@Z 000000018005b49c f i libucrt:output.obj
 0001:0005a548       ??$extract_argument_from_va_list@C_J@?$positional_parameter_base@DV?$stream_output_adapter@D@__crt_stdio_output@@@__crt_stdio_output@@IEAA_NAEA_J@Z 000000018005b548 f i libucrt:output.obj
 0001:0005a604       ??$extract_argument_from_va_list@C_J@?$positional_parameter_base@DV?$string_output_adapter@D@__crt_stdio_output@@@__crt_stdio_output@@IEAA_NAEA_J@Z 000000018005b604 f i libucrt:output.obj
 0001:0005a6c0       ??$extract_argument_from_va_list@C_J@?$positional_parameter_base@_WV?$stream_output_adapter@_W@__crt_stdio_output@@@__crt_stdio_output@@IEAA_NAEA_J@Z 000000018005b6c0 f i libucrt:output.obj
 0001:0005a780       ??$extract_argument_from_va_list@C_J@?$positional_parameter_base@_WV?$string_output_adapter@_W@__crt_stdio_output@@@__crt_stdio_output@@IEAA_NAEA_J@Z 000000018005b780 f i libucrt:output.obj
 0001:0005a840       ??$extract_argument_from_va_list@C_J@?$standard_base@DV?$stream_output_adapter@D@__crt_stdio_output@@@__crt_stdio_output@@IEAA_NAEA_J@Z 000000018005b840 f i libucrt:output.obj
 0001:0005a854       ??$extract_argument_from_va_list@C_J@?$standard_base@DV?$string_output_adapter@D@__crt_stdio_output@@@__crt_stdio_output@@IEAA_NAEA_J@Z 000000018005b854 f i libucrt:output.obj
 0001:0005a868       ??$extract_argument_from_va_list@C_J@?$standard_base@_WV?$stream_output_adapter@_W@__crt_stdio_output@@@__crt_stdio_output@@IEAA_NAEA_J@Z 000000018005b868 f i libucrt:output.obj
 0001:0005a87c       ??$extract_argument_from_va_list@C_J@?$standard_base@_WV?$string_output_adapter@_W@__crt_stdio_output@@@__crt_stdio_output@@IEAA_NAEA_J@Z 000000018005b87c f i libucrt:output.obj
 0001:0005a890       ??$extract_argument_from_va_list@E_J@?$positional_parameter_base@DV?$stream_output_adapter@D@__crt_stdio_output@@@__crt_stdio_output@@IEAA_NAEA_J@Z 000000018005b890 f i libucrt:output.obj
 0001:0005a94c       ??$extract_argument_from_va_list@E_J@?$positional_parameter_base@DV?$string_output_adapter@D@__crt_stdio_output@@@__crt_stdio_output@@IEAA_NAEA_J@Z 000000018005b94c f i libucrt:output.obj
 0001:0005aa08       ??$extract_argument_from_va_list@E_J@?$positional_parameter_base@_WV?$stream_output_adapter@_W@__crt_stdio_output@@@__crt_stdio_output@@IEAA_NAEA_J@Z 000000018005ba08 f i libucrt:output.obj
 0001:0005aac8       ??$extract_argument_from_va_list@E_J@?$positional_parameter_base@_WV?$string_output_adapter@_W@__crt_stdio_output@@@__crt_stdio_output@@IEAA_NAEA_J@Z 000000018005bac8 f i libucrt:output.obj
 0001:0005ab88       ??$extract_argument_from_va_list@E_J@?$standard_base@DV?$stream_output_adapter@D@__crt_stdio_output@@@__crt_stdio_output@@IEAA_NAEA_J@Z 000000018005bb88 f i libucrt:output.obj
 0001:0005ab9c       ??$extract_argument_from_va_list@E_J@?$standard_base@DV?$string_output_adapter@D@__crt_stdio_output@@@__crt_stdio_output@@IEAA_NAEA_J@Z 000000018005bb9c f i libucrt:output.obj
 0001:0005abb0       ??$extract_argument_from_va_list@E_J@?$standard_base@_WV?$stream_output_adapter@_W@__crt_stdio_output@@@__crt_stdio_output@@IEAA_NAEA_J@Z 000000018005bbb0 f i libucrt:output.obj
 0001:0005abc4       ??$extract_argument_from_va_list@E_J@?$standard_base@_WV?$string_output_adapter@_W@__crt_stdio_output@@@__crt_stdio_output@@IEAA_NAEA_J@Z 000000018005bbc4 f i libucrt:output.obj
 0001:0005abd8       ??$extract_argument_from_va_list@F_J@?$positional_parameter_base@DV?$stream_output_adapter@D@__crt_stdio_output@@@__crt_stdio_output@@IEAA_NAEA_J@Z 000000018005bbd8 f i libucrt:output.obj
 0001:0005ac94       ??$extract_argument_from_va_list@F_J@?$positional_parameter_base@DV?$string_output_adapter@D@__crt_stdio_output@@@__crt_stdio_output@@IEAA_NAEA_J@Z 000000018005bc94 f i libucrt:output.obj
 0001:0005ad50       ??$extract_argument_from_va_list@F_J@?$positional_parameter_base@_WV?$stream_output_adapter@_W@__crt_stdio_output@@@__crt_stdio_output@@IEAA_NAEA_J@Z 000000018005bd50 f i libucrt:output.obj
 0001:0005ae10       ??$extract_argument_from_va_list@F_J@?$positional_parameter_base@_WV?$string_output_adapter@_W@__crt_stdio_output@@@__crt_stdio_output@@IEAA_NAEA_J@Z 000000018005be10 f i libucrt:output.obj
 0001:0005aed0       ??$extract_argument_from_va_list@F_J@?$standard_base@DV?$stream_output_adapter@D@__crt_stdio_output@@@__crt_stdio_output@@IEAA_NAEA_J@Z 000000018005bed0 f i libucrt:output.obj
 0001:0005aee4       ??$extract_argument_from_va_list@F_J@?$standard_base@DV?$string_output_adapter@D@__crt_stdio_output@@@__crt_stdio_output@@IEAA_NAEA_J@Z 000000018005bee4 f i libucrt:output.obj
 0001:0005aef8       ??$extract_argument_from_va_list@F_J@?$standard_base@_WV?$stream_output_adapter@_W@__crt_stdio_output@@@__crt_stdio_output@@IEAA_NAEA_J@Z 000000018005bef8 f i libucrt:output.obj
 0001:0005af0c       ??$extract_argument_from_va_list@F_J@?$standard_base@_WV?$string_output_adapter@_W@__crt_stdio_output@@@__crt_stdio_output@@IEAA_NAEA_J@Z 000000018005bf0c f i libucrt:output.obj
 0001:0005af20       ??$extract_argument_from_va_list@GD@?$positional_parameter_base@DV?$stream_output_adapter@D@__crt_stdio_output@@@__crt_stdio_output@@IEAA_NAEAD@Z 000000018005bf20 f i libucrt:output.obj
 0001:0005afd8       ??$extract_argument_from_va_list@GD@?$positional_parameter_base@DV?$string_output_adapter@D@__crt_stdio_output@@@__crt_stdio_output@@IEAA_NAEAD@Z 000000018005bfd8 f i libucrt:output.obj
 0001:0005b090       ??$extract_argument_from_va_list@GD@?$standard_base@DV?$stream_output_adapter@D@__crt_stdio_output@@@__crt_stdio_output@@IEAA_NAEAD@Z 000000018005c090 f i libucrt:output.obj
 0001:0005b0a4       ??$extract_argument_from_va_list@GD@?$standard_base@DV?$string_output_adapter@D@__crt_stdio_output@@@__crt_stdio_output@@IEAA_NAEAD@Z 000000018005c0a4 f i libucrt:output.obj
 0001:0005b0b8       ??$extract_argument_from_va_list@G_J@?$positional_parameter_base@DV?$stream_output_adapter@D@__crt_stdio_output@@@__crt_stdio_output@@IEAA_NAEA_J@Z 000000018005c0b8 f i libucrt:output.obj
 0001:0005b174       ??$extract_argument_from_va_list@G_J@?$positional_parameter_base@DV?$string_output_adapter@D@__crt_stdio_output@@@__crt_stdio_output@@IEAA_NAEA_J@Z 000000018005c174 f i libucrt:output.obj
 0001:0005b230       ??$extract_argument_from_va_list@G_J@?$positional_parameter_base@_WV?$stream_output_adapter@_W@__crt_stdio_output@@@__crt_stdio_output@@IEAA_NAEA_J@Z 000000018005c230 f i libucrt:output.obj
 0001:0005b2f0       ??$extract_argument_from_va_list@G_J@?$positional_parameter_base@_WV?$string_output_adapter@_W@__crt_stdio_output@@@__crt_stdio_output@@IEAA_NAEA_J@Z 000000018005c2f0 f i libucrt:output.obj
 0001:0005b3b0       ??$extract_argument_from_va_list@G_J@?$standard_base@DV?$stream_output_adapter@D@__crt_stdio_output@@@__crt_stdio_output@@IEAA_NAEA_J@Z 000000018005c3b0 f i libucrt:output.obj
 0001:0005b3c4       ??$extract_argument_from_va_list@G_J@?$standard_base@DV?$string_output_adapter@D@__crt_stdio_output@@@__crt_stdio_output@@IEAA_NAEA_J@Z 000000018005c3c4 f i libucrt:output.obj
 0001:0005b3d8       ??$extract_argument_from_va_list@G_J@?$standard_base@_WV?$stream_output_adapter@_W@__crt_stdio_output@@@__crt_stdio_output@@IEAA_NAEA_J@Z 000000018005c3d8 f i libucrt:output.obj
 0001:0005b3ec       ??$extract_argument_from_va_list@G_J@?$standard_base@_WV?$string_output_adapter@_W@__crt_stdio_output@@@__crt_stdio_output@@IEAA_NAEA_J@Z 000000018005c3ec f i libucrt:output.obj
 0001:0005b400       ??$extract_argument_from_va_list@H_J@?$positional_parameter_base@DV?$stream_output_adapter@D@__crt_stdio_output@@@__crt_stdio_output@@IEAA_NAEA_J@Z 000000018005c400 f i libucrt:output.obj
 0001:0005b4bc       ??$extract_argument_from_va_list@H_J@?$positional_parameter_base@DV?$string_output_adapter@D@__crt_stdio_output@@@__crt_stdio_output@@IEAA_NAEA_J@Z 000000018005c4bc f i libucrt:output.obj
 0001:0005b578       ??$extract_argument_from_va_list@H_J@?$positional_parameter_base@_WV?$stream_output_adapter@_W@__crt_stdio_output@@@__crt_stdio_output@@IEAA_NAEA_J@Z 000000018005c578 f i libucrt:output.obj
 0001:0005b634       ??$extract_argument_from_va_list@H_J@?$positional_parameter_base@_WV?$string_output_adapter@_W@__crt_stdio_output@@@__crt_stdio_output@@IEAA_NAEA_J@Z 000000018005c634 f i libucrt:output.obj
 0001:0005b6f0       ??$extract_argument_from_va_list@H_J@?$standard_base@DV?$stream_output_adapter@D@__crt_stdio_output@@@__crt_stdio_output@@IEAA_NAEA_J@Z 000000018005c6f0 f i libucrt:output.obj
 0001:0005b704       ??$extract_argument_from_va_list@H_J@?$standard_base@DV?$string_output_adapter@D@__crt_stdio_output@@@__crt_stdio_output@@IEAA_NAEA_J@Z 000000018005c704 f i libucrt:output.obj
 0001:0005b718       ??$extract_argument_from_va_list@H_J@?$standard_base@_WV?$stream_output_adapter@_W@__crt_stdio_output@@@__crt_stdio_output@@IEAA_NAEA_J@Z 000000018005c718 f i libucrt:output.obj
 0001:0005b72c       ??$extract_argument_from_va_list@H_J@?$standard_base@_WV?$string_output_adapter@_W@__crt_stdio_output@@@__crt_stdio_output@@IEAA_NAEA_J@Z 000000018005c72c f i libucrt:output.obj
 0001:0005b740       ??$extract_argument_from_va_list@I_J@?$positional_parameter_base@DV?$stream_output_adapter@D@__crt_stdio_output@@@__crt_stdio_output@@IEAA_NAEA_J@Z 000000018005c740 f i libucrt:output.obj
 0001:0005b7fc       ??$extract_argument_from_va_list@I_J@?$positional_parameter_base@DV?$string_output_adapter@D@__crt_stdio_output@@@__crt_stdio_output@@IEAA_NAEA_J@Z 000000018005c7fc f i libucrt:output.obj
 0001:0005b8b8       ??$extract_argument_from_va_list@I_J@?$positional_parameter_base@_WV?$stream_output_adapter@_W@__crt_stdio_output@@@__crt_stdio_output@@IEAA_NAEA_J@Z 000000018005c8b8 f i libucrt:output.obj
 0001:0005b974       ??$extract_argument_from_va_list@I_J@?$positional_parameter_base@_WV?$string_output_adapter@_W@__crt_stdio_output@@@__crt_stdio_output@@IEAA_NAEA_J@Z 000000018005c974 f i libucrt:output.obj
 0001:0005ba30       ??$extract_argument_from_va_list@I_J@?$standard_base@DV?$stream_output_adapter@D@__crt_stdio_output@@@__crt_stdio_output@@IEAA_NAEA_J@Z 000000018005ca30 f i libucrt:output.obj
 0001:0005ba44       ??$extract_argument_from_va_list@I_J@?$standard_base@DV?$string_output_adapter@D@__crt_stdio_output@@@__crt_stdio_output@@IEAA_NAEA_J@Z 000000018005ca44 f i libucrt:output.obj
 0001:0005ba58       ??$extract_argument_from_va_list@I_J@?$standard_base@_WV?$stream_output_adapter@_W@__crt_stdio_output@@@__crt_stdio_output@@IEAA_NAEA_J@Z 000000018005ca58 f i libucrt:output.obj
 0001:0005ba6c       ??$extract_argument_from_va_list@I_J@?$standard_base@_WV?$string_output_adapter@_W@__crt_stdio_output@@@__crt_stdio_output@@IEAA_NAEA_J@Z 000000018005ca6c f i libucrt:output.obj
 0001:0005ba80       ??$extract_argument_from_va_list@PEADPEAD@?$positional_parameter_base@DV?$stream_output_adapter@D@__crt_stdio_output@@@__crt_stdio_output@@IEAA_NAEAPEAD@Z 000000018005ca80 f i libucrt:output.obj
 0001:0005bb3c       ??$extract_argument_from_va_list@PEADPEAD@?$positional_parameter_base@DV?$string_output_adapter@D@__crt_stdio_output@@@__crt_stdio_output@@IEAA_NAEAPEAD@Z 000000018005cb3c f i libucrt:output.obj
 0001:0005bbf8       ??$extract_argument_from_va_list@PEADPEAD@?$positional_parameter_base@_WV?$stream_output_adapter@_W@__crt_stdio_output@@@__crt_stdio_output@@IEAA_NAEAPEAD@Z 000000018005cbf8 f i libucrt:output.obj
 0001:0005bcb4       ??$extract_argument_from_va_list@PEADPEAD@?$positional_parameter_base@_WV?$string_output_adapter@_W@__crt_stdio_output@@@__crt_stdio_output@@IEAA_NAEAPEAD@Z 000000018005ccb4 f i libucrt:output.obj
 0001:0005bd70       ??$extract_argument_from_va_list@PEADPEAD@?$standard_base@DV?$stream_output_adapter@D@__crt_stdio_output@@@__crt_stdio_output@@IEAA_NAEAPEAD@Z 000000018005cd70 f i libucrt:output.obj
 0001:0005bd84       ??$extract_argument_from_va_list@PEADPEAD@?$standard_base@DV?$string_output_adapter@D@__crt_stdio_output@@@__crt_stdio_output@@IEAA_NAEAPEAD@Z 000000018005cd84 f i libucrt:output.obj
 0001:0005bd98       ??$extract_argument_from_va_list@PEADPEAD@?$standard_base@_WV?$stream_output_adapter@_W@__crt_stdio_output@@@__crt_stdio_output@@IEAA_NAEAPEAD@Z 000000018005cd98 f i libucrt:output.obj
 0001:0005bdac       ??$extract_argument_from_va_list@PEADPEAD@?$standard_base@_WV?$string_output_adapter@_W@__crt_stdio_output@@@__crt_stdio_output@@IEAA_NAEAPEAD@Z 000000018005cdac f i libucrt:output.obj
 0001:0005c1a0       ??$extract_argument_from_va_list@PEAXPEAX@?$positional_parameter_base@DV?$stream_output_adapter@D@__crt_stdio_output@@@__crt_stdio_output@@IEAA_NAEAPEAX@Z 000000018005d1a0 f i libucrt:output.obj
 0001:0005c25c       ??$extract_argument_from_va_list@PEAXPEAX@?$positional_parameter_base@DV?$string_output_adapter@D@__crt_stdio_output@@@__crt_stdio_output@@IEAA_NAEAPEAX@Z 000000018005d25c f i libucrt:output.obj
 0001:0005c318       ??$extract_argument_from_va_list@PEAXPEAX@?$positional_parameter_base@_WV?$stream_output_adapter@_W@__crt_stdio_output@@@__crt_stdio_output@@IEAA_NAEAPEAX@Z 000000018005d318 f i libucrt:output.obj
 0001:0005c3d4       ??$extract_argument_from_va_list@PEAXPEAX@?$positional_parameter_base@_WV?$string_output_adapter@_W@__crt_stdio_output@@@__crt_stdio_output@@IEAA_NAEAPEAX@Z 000000018005d3d4 f i libucrt:output.obj
 0001:0005c490       ??$extract_argument_from_va_list@PEAXPEAX@?$standard_base@DV?$stream_output_adapter@D@__crt_stdio_output@@@__crt_stdio_output@@IEAA_NAEAPEAX@Z 000000018005d490 f i libucrt:output.obj
 0001:0005c4a4       ??$extract_argument_from_va_list@PEAXPEAX@?$standard_base@DV?$string_output_adapter@D@__crt_stdio_output@@@__crt_stdio_output@@IEAA_NAEAPEAX@Z 000000018005d4a4 f i libucrt:output.obj
 0001:0005c4b8       ??$extract_argument_from_va_list@PEAXPEAX@?$standard_base@_WV?$stream_output_adapter@_W@__crt_stdio_output@@@__crt_stdio_output@@IEAA_NAEAPEAX@Z 000000018005d4b8 f i libucrt:output.obj
 0001:0005c4cc       ??$extract_argument_from_va_list@PEAXPEAX@?$standard_base@_WV?$string_output_adapter@_W@__crt_stdio_output@@@__crt_stdio_output@@IEAA_NAEAPEAX@Z 000000018005d4cc f i libucrt:output.obj
 0001:0005c4e0       ??$extract_argument_from_va_list@U_CRT_DOUBLE@@U1@@?$positional_parameter_base@DV?$stream_output_adapter@D@__crt_stdio_output@@@__crt_stdio_output@@IEAA_NAEAU_CRT_DOUBLE@@@Z 000000018005d4e0 f i libucrt:output.obj
 0001:0005c59c       ??$extract_argument_from_va_list@U_CRT_DOUBLE@@U1@@?$positional_parameter_base@DV?$string_output_adapter@D@__crt_stdio_output@@@__crt_stdio_output@@IEAA_NAEAU_CRT_DOUBLE@@@Z 000000018005d59c f i libucrt:output.obj
 0001:0005c658       ??$extract_argument_from_va_list@U_CRT_DOUBLE@@U1@@?$positional_parameter_base@_WV?$stream_output_adapter@_W@__crt_stdio_output@@@__crt_stdio_output@@IEAA_NAEAU_CRT_DOUBLE@@@Z 000000018005d658 f i libucrt:output.obj
 0001:0005c714       ??$extract_argument_from_va_list@U_CRT_DOUBLE@@U1@@?$positional_parameter_base@_WV?$string_output_adapter@_W@__crt_stdio_output@@@__crt_stdio_output@@IEAA_NAEAU_CRT_DOUBLE@@@Z 000000018005d714 f i libucrt:output.obj
 0001:0005c7d0       ??$extract_argument_from_va_list@U_CRT_DOUBLE@@U1@@?$standard_base@DV?$stream_output_adapter@D@__crt_stdio_output@@@__crt_stdio_output@@IEAA_NAEAU_CRT_DOUBLE@@@Z 000000018005d7d0 f i libucrt:output.obj
 0001:0005c7e8       ??$extract_argument_from_va_list@U_CRT_DOUBLE@@U1@@?$standard_base@DV?$string_output_adapter@D@__crt_stdio_output@@@__crt_stdio_output@@IEAA_NAEAU_CRT_DOUBLE@@@Z 000000018005d7e8 f i libucrt:output.obj
 0001:0005c800       ??$extract_argument_from_va_list@U_CRT_DOUBLE@@U1@@?$standard_base@_WV?$stream_output_adapter@_W@__crt_stdio_output@@@__crt_stdio_output@@IEAA_NAEAU_CRT_DOUBLE@@@Z 000000018005d800 f i libucrt:output.obj
 0001:0005c818       ??$extract_argument_from_va_list@U_CRT_DOUBLE@@U1@@?$standard_base@_WV?$string_output_adapter@_W@__crt_stdio_output@@@__crt_stdio_output@@IEAA_NAEAU_CRT_DOUBLE@@@Z 000000018005d818 f i libucrt:output.obj
 0001:0005c830       ??$extract_argument_from_va_list@_J_J@?$positional_parameter_base@DV?$stream_output_adapter@D@__crt_stdio_output@@@__crt_stdio_output@@IEAA_NAEA_J@Z 000000018005d830 f i libucrt:output.obj
 0001:0005c8ec       ??$extract_argument_from_va_list@_J_J@?$positional_parameter_base@DV?$string_output_adapter@D@__crt_stdio_output@@@__crt_stdio_output@@IEAA_NAEA_J@Z 000000018005d8ec f i libucrt:output.obj
 0001:0005c9a8       ??$extract_argument_from_va_list@_J_J@?$positional_parameter_base@_WV?$stream_output_adapter@_W@__crt_stdio_output@@@__crt_stdio_output@@IEAA_NAEA_J@Z 000000018005d9a8 f i libucrt:output.obj
 0001:0005ca64       ??$extract_argument_from_va_list@_J_J@?$positional_parameter_base@_WV?$string_output_adapter@_W@__crt_stdio_output@@@__crt_stdio_output@@IEAA_NAEA_J@Z 000000018005da64 f i libucrt:output.obj
 0001:0005cb20       ??$extract_argument_from_va_list@_J_J@?$standard_base@DV?$stream_output_adapter@D@__crt_stdio_output@@@__crt_stdio_output@@IEAA_NAEA_J@Z 000000018005db20 f i libucrt:output.obj
 0001:0005cb34       ??$extract_argument_from_va_list@_J_J@?$standard_base@DV?$string_output_adapter@D@__crt_stdio_output@@@__crt_stdio_output@@IEAA_NAEA_J@Z 000000018005db34 f i libucrt:output.obj
 0001:0005cb48       ??$extract_argument_from_va_list@_J_J@?$standard_base@_WV?$stream_output_adapter@_W@__crt_stdio_output@@@__crt_stdio_output@@IEAA_NAEA_J@Z 000000018005db48 f i libucrt:output.obj
 0001:0005cb5c       ??$extract_argument_from_va_list@_J_J@?$standard_base@_WV?$string_output_adapter@_W@__crt_stdio_output@@@__crt_stdio_output@@IEAA_NAEA_J@Z 000000018005db5c f i libucrt:output.obj
 0001:0005cb70       ??$extract_argument_from_va_list@_K_J@?$positional_parameter_base@DV?$stream_output_adapter@D@__crt_stdio_output@@@__crt_stdio_output@@IEAA_NAEA_J@Z 000000018005db70 f i libucrt:output.obj
 0001:0005cc2c       ??$extract_argument_from_va_list@_K_J@?$positional_parameter_base@DV?$string_output_adapter@D@__crt_stdio_output@@@__crt_stdio_output@@IEAA_NAEA_J@Z 000000018005dc2c f i libucrt:output.obj
 0001:0005cce8       ??$extract_argument_from_va_list@_K_J@?$positional_parameter_base@_WV?$stream_output_adapter@_W@__crt_stdio_output@@@__crt_stdio_output@@IEAA_NAEA_J@Z 000000018005dce8 f i libucrt:output.obj
 0001:0005cda4       ??$extract_argument_from_va_list@_K_J@?$positional_parameter_base@_WV?$string_output_adapter@_W@__crt_stdio_output@@@__crt_stdio_output@@IEAA_NAEA_J@Z 000000018005dda4 f i libucrt:output.obj
 0001:0005ce60       ??$extract_argument_from_va_list@_K_J@?$standard_base@DV?$stream_output_adapter@D@__crt_stdio_output@@@__crt_stdio_output@@IEAA_NAEA_J@Z 000000018005de60 f i libucrt:output.obj
 0001:0005ce74       ??$extract_argument_from_va_list@_K_J@?$standard_base@DV?$string_output_adapter@D@__crt_stdio_output@@@__crt_stdio_output@@IEAA_NAEA_J@Z 000000018005de74 f i libucrt:output.obj
 0001:0005ce88       ??$extract_argument_from_va_list@_K_J@?$standard_base@_WV?$stream_output_adapter@_W@__crt_stdio_output@@@__crt_stdio_output@@IEAA_NAEA_J@Z 000000018005de88 f i libucrt:output.obj
 0001:0005ce9c       ??$extract_argument_from_va_list@_K_J@?$standard_base@_WV?$string_output_adapter@_W@__crt_stdio_output@@@__crt_stdio_output@@IEAA_NAEA_J@Z 000000018005de9c f i libucrt:output.obj
 0001:0005ceb0       ??$extract_argument_from_va_list@_W_W@?$positional_parameter_base@DV?$stream_output_adapter@D@__crt_stdio_output@@@__crt_stdio_output@@IEAA_NAEA_W@Z 000000018005deb0 f i libucrt:output.obj
 0001:0005cf6c       ??$extract_argument_from_va_list@_W_W@?$positional_parameter_base@DV?$string_output_adapter@D@__crt_stdio_output@@@__crt_stdio_output@@IEAA_NAEA_W@Z 000000018005df6c f i libucrt:output.obj
 0001:0005d028       ??$extract_argument_from_va_list@_W_W@?$positional_parameter_base@_WV?$stream_output_adapter@_W@__crt_stdio_output@@@__crt_stdio_output@@IEAA_NAEA_W@Z 000000018005e028 f i libucrt:output.obj
 0001:0005d0e8       ??$extract_argument_from_va_list@_W_W@?$positional_parameter_base@_WV?$string_output_adapter@_W@__crt_stdio_output@@@__crt_stdio_output@@IEAA_NAEA_W@Z 000000018005e0e8 f i libucrt:output.obj
 0001:0005d1a8       ??$extract_argument_from_va_list@_W_W@?$standard_base@DV?$stream_output_adapter@D@__crt_stdio_output@@@__crt_stdio_output@@IEAA_NAEA_W@Z 000000018005e1a8 f i libucrt:output.obj
 0001:0005d1bc       ??$extract_argument_from_va_list@_W_W@?$standard_base@DV?$string_output_adapter@D@__crt_stdio_output@@@__crt_stdio_output@@IEAA_NAEA_W@Z 000000018005e1bc f i libucrt:output.obj
 0001:0005d1d0       ??$extract_argument_from_va_list@_W_W@?$standard_base@_WV?$stream_output_adapter@_W@__crt_stdio_output@@@__crt_stdio_output@@IEAA_NAEA_W@Z 000000018005e1d0 f i libucrt:output.obj
 0001:0005d1e4       ??$extract_argument_from_va_list@_W_W@?$standard_base@_WV?$string_output_adapter@_W@__crt_stdio_output@@@__crt_stdio_output@@IEAA_NAEA_W@Z 000000018005e1e4 f i libucrt:output.obj
 0001:0005d1f8       ??$get_parameter_type@D@?$positional_parameter_base@DV?$stream_output_adapter@D@__crt_stdio_output@@@__crt_stdio_output@@CA?AW4parameter_type@01@PEAD@Z 000000018005e1f8 f i libucrt:output.obj
 0001:0005d200       ??$get_parameter_type@D@?$positional_parameter_base@DV?$string_output_adapter@D@__crt_stdio_output@@@__crt_stdio_output@@CA?AW4parameter_type@01@PEAD@Z 000000018005e200 f i libucrt:output.obj
 0001:0005d208       ??$get_parameter_type@D@?$positional_parameter_base@_WV?$stream_output_adapter@_W@__crt_stdio_output@@@__crt_stdio_output@@CA?AW4parameter_type@01@PEAD@Z 000000018005e208 f i libucrt:output.obj
 0001:0005d210       ??$get_parameter_type@D@?$positional_parameter_base@_WV?$string_output_adapter@_W@__crt_stdio_output@@@__crt_stdio_output@@CA?AW4parameter_type@01@PEAD@Z 000000018005e210 f i libucrt:output.obj
 0001:0005d238       ??$get_parameter_type@X@?$positional_parameter_base@DV?$stream_output_adapter@D@__crt_stdio_output@@@__crt_stdio_output@@CA?AW4parameter_type@01@PEAX@Z 000000018005e238 f i libucrt:output.obj
 0001:0005d240       ??$get_parameter_type@X@?$positional_parameter_base@DV?$string_output_adapter@D@__crt_stdio_output@@@__crt_stdio_output@@CA?AW4parameter_type@01@PEAX@Z 000000018005e240 f i libucrt:output.obj
 0001:0005d248       ??$get_parameter_type@X@?$positional_parameter_base@_WV?$stream_output_adapter@_W@__crt_stdio_output@@@__crt_stdio_output@@CA?AW4parameter_type@01@PEAX@Z 000000018005e248 f i libucrt:output.obj
 0001:0005d250       ??$get_parameter_type@X@?$positional_parameter_base@_WV?$string_output_adapter@_W@__crt_stdio_output@@@__crt_stdio_output@@CA?AW4parameter_type@01@PEAX@Z 000000018005e250 f i libucrt:output.obj
 0001:0005d258       ??$is_character_specifier@D@?$positional_parameter_base@DV?$stream_output_adapter@D@__crt_stdio_output@@@__crt_stdio_output@@CA_ND@Z 000000018005e258 f i libucrt:output.obj
 0001:0005d264       ??$is_character_specifier@D@?$positional_parameter_base@DV?$string_output_adapter@D@__crt_stdio_output@@@__crt_stdio_output@@CA_ND@Z 000000018005e264 f i libucrt:output.obj
 0001:0005d270       ??$is_character_specifier@_W@?$positional_parameter_base@_WV?$stream_output_adapter@_W@__crt_stdio_output@@@__crt_stdio_output@@CA_N_W@Z 000000018005e270 f i libucrt:output.obj
 0001:0005d280       ??$is_character_specifier@_W@?$positional_parameter_base@_WV?$string_output_adapter@_W@__crt_stdio_output@@@__crt_stdio_output@@CA_N_W@Z 000000018005e280 f i libucrt:output.obj
 0001:0005d290       ??$is_integral_specifier@D@?$positional_parameter_base@DV?$stream_output_adapter@D@__crt_stdio_output@@@__crt_stdio_output@@CA_ND@Z 000000018005e290 f i libucrt:output.obj
 0001:0005d2b8       ??$is_integral_specifier@D@?$positional_parameter_base@DV?$string_output_adapter@D@__crt_stdio_output@@@__crt_stdio_output@@CA_ND@Z 000000018005e2b8 f i libucrt:output.obj
 0001:0005d2e0       ??$is_integral_specifier@_W@?$positional_parameter_base@_WV?$stream_output_adapter@_W@__crt_stdio_output@@@__crt_stdio_output@@CA_N_W@Z 000000018005e2e0 f i libucrt:output.obj
 0001:0005d308       ??$is_integral_specifier@_W@?$positional_parameter_base@_WV?$string_output_adapter@_W@__crt_stdio_output@@@__crt_stdio_output@@CA_N_W@Z 000000018005e308 f i libucrt:output.obj
 0001:0005d330       ??$is_pointer_specifier@D@?$positional_parameter_base@DV?$stream_output_adapter@D@__crt_stdio_output@@@__crt_stdio_output@@CA_ND@Z 000000018005e330 f i libucrt:output.obj
 0001:0005d338       ??$is_pointer_specifier@D@?$positional_parameter_base@DV?$string_output_adapter@D@__crt_stdio_output@@@__crt_stdio_output@@CA_ND@Z 000000018005e338 f i libucrt:output.obj
 0001:0005d340       ??$is_pointer_specifier@_W@?$positional_parameter_base@_WV?$stream_output_adapter@_W@__crt_stdio_output@@@__crt_stdio_output@@CA_N_W@Z 000000018005e340 f i libucrt:output.obj
 0001:0005d348       ??$is_pointer_specifier@_W@?$positional_parameter_base@_WV?$string_output_adapter@_W@__crt_stdio_output@@@__crt_stdio_output@@CA_N_W@Z 000000018005e348 f i libucrt:output.obj
 0001:0005d350       ??$is_string_specifier@D@?$positional_parameter_base@DV?$stream_output_adapter@D@__crt_stdio_output@@@__crt_stdio_output@@CA_ND@Z 000000018005e350 f i libucrt:output.obj
 0001:0005d35c       ??$is_string_specifier@D@?$positional_parameter_base@DV?$string_output_adapter@D@__crt_stdio_output@@@__crt_stdio_output@@CA_ND@Z 000000018005e35c f i libucrt:output.obj
 0001:0005d368       ??$is_string_specifier@_W@?$positional_parameter_base@_WV?$stream_output_adapter@_W@__crt_stdio_output@@@__crt_stdio_output@@CA_N_W@Z 000000018005e368 f i libucrt:output.obj
 0001:0005d378       ??$is_string_specifier@_W@?$positional_parameter_base@_WV?$string_output_adapter@_W@__crt_stdio_output@@@__crt_stdio_output@@CA_N_W@Z 000000018005e378 f i libucrt:output.obj
 0001:0005d388       ??$is_wide_character_specifier@D@__crt_stdio_output@@YA_N_KDW4length_modifier@0@@Z 000000018005e388 f i libucrt:output.obj
 0001:0005d3b0       ??$is_wide_character_specifier@_W@__crt_stdio_output@@YA_N_K_WW4length_modifier@0@@Z 000000018005e3b0 f i libucrt:output.obj
 0001:0005d3f0       ??$peek_va_arg@C@__crt_stdio_output@@YACPEAD@Z 000000018005e3f0 f i libucrt:output.obj
 0001:0005d3f4       ??$peek_va_arg@E@__crt_stdio_output@@YAEPEAD@Z 000000018005e3f4 f i libucrt:output.obj
 0001:0005d3f8       ??$peek_va_arg@F@__crt_stdio_output@@YAFPEAD@Z 000000018005e3f8 f i libucrt:output.obj
 0001:0005d3fc       ??$peek_va_arg@G@__crt_stdio_output@@YAGPEAD@Z 000000018005e3fc f i libucrt:output.obj
 0001:0005d400       ??$peek_va_arg@H@__crt_stdio_output@@YAHPEAD@Z 000000018005e400 f i libucrt:output.obj
 0001:0005d404       ??$peek_va_arg@I@__crt_stdio_output@@YAIPEAD@Z 000000018005e404 f i libucrt:output.obj
 0001:0005d408       ??$peek_va_arg@PEAD@__crt_stdio_output@@YAPEADPEAD@Z 000000018005e408 f i libucrt:output.obj
 0001:0005d41c       ??$peek_va_arg@PEAX@__crt_stdio_output@@YAPEAXPEAD@Z 000000018005e41c f i libucrt:output.obj
 0001:0005d420       ??$peek_va_arg@U_CRT_DOUBLE@@@__crt_stdio_output@@YA?AU_CRT_DOUBLE@@PEAD@Z 000000018005e420 f i libucrt:output.obj
 0001:0005d424       ??$peek_va_arg@_J@__crt_stdio_output@@YA_JPEAD@Z 000000018005e424 f i libucrt:output.obj
 0001:0005d428       ??$peek_va_arg@_K@__crt_stdio_output@@YA_KPEAD@Z 000000018005e428 f i libucrt:output.obj
 0001:0005d42c       ??$peek_va_arg@_W@__crt_stdio_output@@YA_WPEAD@Z 000000018005e42c f i libucrt:output.obj
 0001:0005d430       ??$puttc_nolock@AEBDPEAU_iobuf@@@?$__crt_char_traits@D@@SAHAEBD$$QEAPEAU_iobuf@@@Z 000000018005e430 f i libucrt:output.obj
 0001:0005d43c       ??$puttc_nolock@AEB_WPEAU_iobuf@@@?$__crt_char_traits@_W@@SAGAEB_W$$QEAPEAU_iobuf@@@Z 000000018005e43c f i libucrt:output.obj
 0001:0005d448       ??$read_va_arg@C@__crt_stdio_output@@YACAEAPEAD@Z 000000018005e448 f i libucrt:output.obj
 0001:0005d454       ??$read_va_arg@E@__crt_stdio_output@@YAEAEAPEAD@Z 000000018005e454 f i libucrt:output.obj
 0001:0005d460       ??$read_va_arg@F@__crt_stdio_output@@YAFAEAPEAD@Z 000000018005e460 f i libucrt:output.obj
 0001:0005d46c       ??$read_va_arg@G@__crt_stdio_output@@YAGAEAPEAD@Z 000000018005e46c f i libucrt:output.obj
 0001:0005d478       ??$read_va_arg@H@__crt_stdio_output@@YAHAEAPEAD@Z 000000018005e478 f i libucrt:output.obj
 0001:0005d484       ??$read_va_arg@I@__crt_stdio_output@@YAIAEAPEAD@Z 000000018005e484 f i libucrt:output.obj
 0001:0005d490       ??$read_va_arg@PEAD@__crt_stdio_output@@YAPEADAEAPEAD@Z 000000018005e490 f i libucrt:output.obj
 0001:0005d52c       ??$read_va_arg@PEAX@__crt_stdio_output@@YAPEAXAEAPEAD@Z 000000018005e52c f i libucrt:output.obj
 0001:0005d538       ??$read_va_arg@U_CRT_DOUBLE@@@__crt_stdio_output@@YA?AU_CRT_DOUBLE@@AEAPEAD@Z 000000018005e538 f i libucrt:output.obj
 0001:0005d544       ??$read_va_arg@_J@__crt_stdio_output@@YA_JAEAPEAD@Z 000000018005e544 f i libucrt:output.obj
 0001:0005d550       ??$read_va_arg@_K@__crt_stdio_output@@YA_KAEAPEAD@Z 000000018005e550 f i libucrt:output.obj
 0001:0005d55c       ??$read_va_arg@_W@__crt_stdio_output@@YA_WAEAPEAD@Z 000000018005e55c f i libucrt:output.obj
 0001:0005d568       ??$scratch_count@D@formatting_buffer@__crt_stdio_output@@QEBA_KXZ 000000018005e568 f i libucrt:output.obj
 0001:0005d584       ??$scratch_data@D@formatting_buffer@__crt_stdio_output@@QEAAPEADXZ 000000018005e584 f i libucrt:output.obj
 0001:0005d5a8       ??$tcstol@AEAPEBDPEAPEADH@?$__crt_char_traits@D@@SAJAEAPEBD$$QEAPEAPEAD$$QEAH@Z 000000018005e5a8 f i libucrt:output.obj
 0001:0005d5b8       ??$tcstol@AEAPEB_WPEAPEA_WH@?$__crt_char_traits@_W@@SAJAEAPEB_W$$QEAPEAPEA_W$$QEAH@Z 000000018005e5b8 f i libucrt:output.obj
 0001:0005d5c8       ??$tcstol@PEBDPEAPEADH@?$__crt_char_traits@D@@SAJ$$QEAPEBD$$QEAPEAPEAD$$QEAH@Z 000000018005e5c8 f i libucrt:output.obj
 0001:0005d5d8       ??$tcstol@PEB_WPEAPEA_WH@?$__crt_char_traits@_W@@SAJ$$QEAPEB_W$$QEAPEAPEA_W$$QEAH@Z 000000018005e5d8 f i libucrt:output.obj
 0001:0005d5e8       ??$type_case_integer_parse_into_buffer@I@?$output_processor@DV?$stream_output_adapter@D@__crt_stdio_output@@V?$format_validation_base@DV?$stream_output_adapter@D@__crt_stdio_output@@@2@@__crt_stdio_output@@AEAAXII_N@Z 000000018005e5e8 f i libucrt:output.obj
 0001:0005d678       ??$type_case_integer_parse_into_buffer@I@?$output_processor@DV?$stream_output_adapter@D@__crt_stdio_output@@V?$positional_parameter_base@DV?$stream_output_adapter@D@__crt_stdio_output@@@2@@__crt_stdio_output@@AEAAXII_N@Z 000000018005e678 f i libucrt:output.obj
 0001:0005d708       ??$type_case_integer_parse_into_buffer@I@?$output_processor@DV?$stream_output_adapter@D@__crt_stdio_output@@V?$standard_base@DV?$stream_output_adapter@D@__crt_stdio_output@@@2@@__crt_stdio_output@@AEAAXII_N@Z 000000018005e708 f i libucrt:output.obj
 0001:0005d798       ??$type_case_integer_parse_into_buffer@I@?$output_processor@DV?$string_output_adapter@D@__crt_stdio_output@@V?$format_validation_base@DV?$string_output_adapter@D@__crt_stdio_output@@@2@@__crt_stdio_output@@AEAAXII_N@Z 000000018005e798 f i libucrt:output.obj
 0001:0005d828       ??$type_case_integer_parse_into_buffer@I@?$output_processor@DV?$string_output_adapter@D@__crt_stdio_output@@V?$positional_parameter_base@DV?$string_output_adapter@D@__crt_stdio_output@@@2@@__crt_stdio_output@@AEAAXII_N@Z 000000018005e828 f i libucrt:output.obj
 0001:0005d8b8       ??$type_case_integer_parse_into_buffer@I@?$output_processor@DV?$string_output_adapter@D@__crt_stdio_output@@V?$standard_base@DV?$string_output_adapter@D@__crt_stdio_output@@@2@@__crt_stdio_output@@AEAAXII_N@Z 000000018005e8b8 f i libucrt:output.obj
 0001:0005d948       ??$type_case_integer_parse_into_buffer@I@?$output_processor@_WV?$stream_output_adapter@_W@__crt_stdio_output@@V?$format_validation_base@_WV?$stream_output_adapter@_W@__crt_stdio_output@@@2@@__crt_stdio_output@@AEAAXII_N@Z 000000018005e948 f i libucrt:output.obj
 0001:0005d9e8       ??$type_case_integer_parse_into_buffer@I@?$output_processor@_WV?$stream_output_adapter@_W@__crt_stdio_output@@V?$positional_parameter_base@_WV?$stream_output_adapter@_W@__crt_stdio_output@@@2@@__crt_stdio_output@@AEAAXII_N@Z 000000018005e9e8 f i libucrt:output.obj
 0001:0005da88       ??$type_case_integer_parse_into_buffer@I@?$output_processor@_WV?$stream_output_adapter@_W@__crt_stdio_output@@V?$standard_base@_WV?$stream_output_adapter@_W@__crt_stdio_output@@@2@@__crt_stdio_output@@AEAAXII_N@Z 000000018005ea88 f i libucrt:output.obj
 0001:0005db28       ??$type_case_integer_parse_into_buffer@I@?$output_processor@_WV?$string_output_adapter@_W@__crt_stdio_output@@V?$format_validation_base@_WV?$string_output_adapter@_W@__crt_stdio_output@@@2@@__crt_stdio_output@@AEAAXII_N@Z 000000018005eb28 f i libucrt:output.obj
 0001:0005dbc8       ??$type_case_integer_parse_into_buffer@I@?$output_processor@_WV?$string_output_adapter@_W@__crt_stdio_output@@V?$positional_parameter_base@_WV?$string_output_adapter@_W@__crt_stdio_output@@@2@@__crt_stdio_output@@AEAAXII_N@Z 000000018005ebc8 f i libucrt:output.obj
 0001:0005dc68       ??$type_case_integer_parse_into_buffer@I@?$output_processor@_WV?$string_output_adapter@_W@__crt_stdio_output@@V?$standard_base@_WV?$string_output_adapter@_W@__crt_stdio_output@@@2@@__crt_stdio_output@@AEAAXII_N@Z 000000018005ec68 f i libucrt:output.obj
 0001:0005dd08       ??$type_case_integer_parse_into_buffer@_K@?$output_processor@DV?$stream_output_adapter@D@__crt_stdio_output@@V?$format_validation_base@DV?$stream_output_adapter@D@__crt_stdio_output@@@2@@__crt_stdio_output@@AEAAX_KI_N@Z 000000018005ed08 f i libucrt:output.obj
 0001:0005dd9c       ??$type_case_integer_parse_into_buffer@_K@?$output_processor@DV?$stream_output_adapter@D@__crt_stdio_output@@V?$positional_parameter_base@DV?$stream_output_adapter@D@__crt_stdio_output@@@2@@__crt_stdio_output@@AEAAX_KI_N@Z 000000018005ed9c f i libucrt:output.obj
 0001:0005de30       ??$type_case_integer_parse_into_buffer@_K@?$output_processor@DV?$stream_output_adapter@D@__crt_stdio_output@@V?$standard_base@DV?$stream_output_adapter@D@__crt_stdio_output@@@2@@__crt_stdio_output@@AEAAX_KI_N@Z 000000018005ee30 f i libucrt:output.obj
 0001:0005dec4       ??$type_case_integer_parse_into_buffer@_K@?$output_processor@DV?$string_output_adapter@D@__crt_stdio_output@@V?$format_validation_base@DV?$string_output_adapter@D@__crt_stdio_output@@@2@@__crt_stdio_output@@AEAAX_KI_N@Z 000000018005eec4 f i libucrt:output.obj
 0001:0005df58       ??$type_case_integer_parse_into_buffer@_K@?$output_processor@DV?$string_output_adapter@D@__crt_stdio_output@@V?$positional_parameter_base@DV?$string_output_adapter@D@__crt_stdio_output@@@2@@__crt_stdio_output@@AEAAX_KI_N@Z 000000018005ef58 f i libucrt:output.obj
 0001:0005dfec       ??$type_case_integer_parse_into_buffer@_K@?$output_processor@DV?$string_output_adapter@D@__crt_stdio_output@@V?$standard_base@DV?$string_output_adapter@D@__crt_stdio_output@@@2@@__crt_stdio_output@@AEAAX_KI_N@Z 000000018005efec f i libucrt:output.obj
 0001:0005e080       ??$type_case_integer_parse_into_buffer@_K@?$output_processor@_WV?$stream_output_adapter@_W@__crt_stdio_output@@V?$format_validation_base@_WV?$stream_output_adapter@_W@__crt_stdio_output@@@2@@__crt_stdio_output@@AEAAX_KI_N@Z 000000018005f080 f i libucrt:output.obj
 0001:0005e124       ??$type_case_integer_parse_into_buffer@_K@?$output_processor@_WV?$stream_output_adapter@_W@__crt_stdio_output@@V?$positional_parameter_base@_WV?$stream_output_adapter@_W@__crt_stdio_output@@@2@@__crt_stdio_output@@AEAAX_KI_N@Z 000000018005f124 f i libucrt:output.obj
 0001:0005e1c8       ??$type_case_integer_parse_into_buffer@_K@?$output_processor@_WV?$stream_output_adapter@_W@__crt_stdio_output@@V?$standard_base@_WV?$stream_output_adapter@_W@__crt_stdio_output@@@2@@__crt_stdio_output@@AEAAX_KI_N@Z 000000018005f1c8 f i libucrt:output.obj
 0001:0005e26c       ??$type_case_integer_parse_into_buffer@_K@?$output_processor@_WV?$string_output_adapter@_W@__crt_stdio_output@@V?$format_validation_base@_WV?$string_output_adapter@_W@__crt_stdio_output@@@2@@__crt_stdio_output@@AEAAX_KI_N@Z 000000018005f26c f i libucrt:output.obj
 0001:0005e310       ??$type_case_integer_parse_into_buffer@_K@?$output_processor@_WV?$string_output_adapter@_W@__crt_stdio_output@@V?$positional_parameter_base@_WV?$string_output_adapter@_W@__crt_stdio_output@@@2@@__crt_stdio_output@@AEAAX_KI_N@Z 000000018005f310 f i libucrt:output.obj
 0001:0005e3b4       ??$type_case_integer_parse_into_buffer@_K@?$output_processor@_WV?$string_output_adapter@_W@__crt_stdio_output@@V?$standard_base@_WV?$string_output_adapter@_W@__crt_stdio_output@@@2@@__crt_stdio_output@@AEAAX_KI_N@Z 000000018005f3b4 f i libucrt:output.obj
 0001:0005e458       ??$write_multiple_characters@V?$stream_output_adapter@D@__crt_stdio_output@@D@__crt_stdio_output@@YAXAEBV?$stream_output_adapter@D@0@DHQEAH@Z 000000018005f458 f i libucrt:output.obj
 0001:0005e4e4       ??$write_multiple_characters@V?$stream_output_adapter@_W@__crt_stdio_output@@D@__crt_stdio_output@@YAXAEBV?$stream_output_adapter@_W@0@DHQEAH@Z 000000018005f4e4 f i libucrt:output.obj
 0001:0005e578       ??$write_multiple_characters@V?$string_output_adapter@D@__crt_stdio_output@@D@__crt_stdio_output@@YAXAEBV?$string_output_adapter@D@0@DHQEAH@Z 000000018005f578 f i libucrt:output.obj
 0001:0005e5f0       ??$write_multiple_characters@V?$string_output_adapter@_W@__crt_stdio_output@@D@__crt_stdio_output@@YAXAEBV?$string_output_adapter@_W@0@DHQEAH@Z 000000018005f5f0 f i libucrt:output.obj
 0001:0005e7d4       ??0?$common_data@D@__crt_stdio_output@@IEAA@XZ 000000018005f7d4 f i libucrt:output.obj
 0001:0005e810       ??0?$common_data@_W@__crt_stdio_output@@IEAA@XZ 000000018005f810 f i libucrt:output.obj
 0001:0005e850       ??0?$output_adapter_data@DV?$stream_output_adapter@D@__crt_stdio_output@@@__crt_stdio_output@@IEAA@AEBV?$stream_output_adapter@D@1@_KQEBDQEAU__crt_locale_pointers@@QEAD@Z 000000018005f850 f i libucrt:output.obj
 0001:0005e8b0       ??0?$output_adapter_data@DV?$string_output_adapter@D@__crt_stdio_output@@@__crt_stdio_output@@IEAA@AEBV?$string_output_adapter@D@1@_KQEBDQEAU__crt_locale_pointers@@QEAD@Z 000000018005f8b0 f i libucrt:output.obj
 0001:0005e910       ??0?$output_adapter_data@_WV?$stream_output_adapter@_W@__crt_stdio_output@@@__crt_stdio_output@@IEAA@AEBV?$stream_output_adapter@_W@1@_KQEB_WQEAU__crt_locale_pointers@@QEAD@Z 000000018005f910 f i libucrt:output.obj
 0001:0005e974       ??0?$output_adapter_data@_WV?$string_output_adapter@_W@__crt_stdio_output@@@__crt_stdio_output@@IEAA@AEBV?$string_output_adapter@_W@1@_KQEB_WQEAU__crt_locale_pointers@@QEAD@Z 000000018005f974 f i libucrt:output.obj
 0001:0005e9d8       ??0?$output_processor@DV?$stream_output_adapter@D@__crt_stdio_output@@V?$format_validation_base@DV?$stream_output_adapter@D@__crt_stdio_output@@@2@@__crt_stdio_output@@QEAA@AEBV?$stream_output_adapter@D@1@_KQEBDQEAU__crt_locale_pointers@@QEAD@Z 000000018005f9d8 f i libucrt:output.obj
 0001:0005ea44       ??0?$output_processor@DV?$stream_output_adapter@D@__crt_stdio_output@@V?$positional_parameter_base@DV?$stream_output_adapter@D@__crt_stdio_output@@@2@@__crt_stdio_output@@QEAA@AEBV?$stream_output_adapter@D@1@_KQEBDQEAU__crt_locale_pointers@@QEAD@Z 000000018005fa44 f i libucrt:output.obj
 0001:0005eacc       ??0?$output_processor@DV?$stream_output_adapter@D@__crt_stdio_output@@V?$standard_base@DV?$stream_output_adapter@D@__crt_stdio_output@@@2@@__crt_stdio_output@@QEAA@AEBV?$stream_output_adapter@D@1@_KQEBDQEAU__crt_locale_pointers@@QEAD@Z 000000018005facc f i libucrt:output.obj
 0001:0005eb38       ??0?$output_processor@DV?$string_output_adapter@D@__crt_stdio_output@@V?$format_validation_base@DV?$string_output_adapter@D@__crt_stdio_output@@@2@@__crt_stdio_output@@QEAA@AEBV?$string_output_adapter@D@1@_KQEBDQEAU__crt_locale_pointers@@QEAD@Z 000000018005fb38 f i libucrt:output.obj
 0001:0005eba4       ??0?$output_processor@DV?$string_output_adapter@D@__crt_stdio_output@@V?$positional_parameter_base@DV?$string_output_adapter@D@__crt_stdio_output@@@2@@__crt_stdio_output@@QEAA@AEBV?$string_output_adapter@D@1@_KQEBDQEAU__crt_locale_pointers@@QEAD@Z 000000018005fba4 f i libucrt:output.obj
 0001:0005ec2c       ??0?$output_processor@DV?$string_output_adapter@D@__crt_stdio_output@@V?$standard_base@DV?$string_output_adapter@D@__crt_stdio_output@@@2@@__crt_stdio_output@@QEAA@AEBV?$string_output_adapter@D@1@_KQEBDQEAU__crt_locale_pointers@@QEAD@Z 000000018005fc2c f i libucrt:output.obj
 0001:0005ec98       ??0?$output_processor@_WV?$stream_output_adapter@_W@__crt_stdio_output@@V?$format_validation_base@_WV?$stream_output_adapter@_W@__crt_stdio_output@@@2@@__crt_stdio_output@@QEAA@AEBV?$stream_output_adapter@_W@1@_KQEB_WQEAU__crt_locale_pointers@@QEAD@Z 000000018005fc98 f i libucrt:output.obj
 0001:0005ed08       ??0?$output_processor@_WV?$stream_output_adapter@_W@__crt_stdio_output@@V?$positional_parameter_base@_WV?$stream_output_adapter@_W@__crt_stdio_output@@@2@@__crt_stdio_output@@QEAA@AEBV?$stream_output_adapter@_W@1@_KQEB_WQEAU__crt_locale_pointers@@QEAD@Z 000000018005fd08 f i libucrt:output.obj
 0001:0005ed94       ??0?$output_processor@_WV?$stream_output_adapter@_W@__crt_stdio_output@@V?$standard_base@_WV?$stream_output_adapter@_W@__crt_stdio_output@@@2@@__crt_stdio_output@@QEAA@AEBV?$stream_output_adapter@_W@1@_KQEB_WQEAU__crt_locale_pointers@@QEAD@Z 000000018005fd94 f i libucrt:output.obj
 0001:0005ee04       ??0?$output_processor@_WV?$string_output_adapter@_W@__crt_stdio_output@@V?$format_validation_base@_WV?$string_output_adapter@_W@__crt_stdio_output@@@2@@__crt_stdio_output@@QEAA@AEBV?$string_output_adapter@_W@1@_KQEB_WQEAU__crt_locale_pointers@@QEAD@Z 000000018005fe04 f i libucrt:output.obj
 0001:0005ee74       ??0?$output_processor@_WV?$string_output_adapter@_W@__crt_stdio_output@@V?$positional_parameter_base@_WV?$string_output_adapter@_W@__crt_stdio_output@@@2@@__crt_stdio_output@@QEAA@AEBV?$string_output_adapter@_W@1@_KQEB_WQEAU__crt_locale_pointers@@QEAD@Z 000000018005fe74 f i libucrt:output.obj
 0001:0005ef00       ??0?$output_processor@_WV?$string_output_adapter@_W@__crt_stdio_output@@V?$standard_base@_WV?$string_output_adapter@_W@__crt_stdio_output@@@2@@__crt_stdio_output@@QEAA@AEBV?$string_output_adapter@_W@1@_KQEB_WQEAU__crt_locale_pointers@@QEAD@Z 000000018005ff00 f i libucrt:output.obj
 0001:0005ef70       ??0?$stream_output_adapter@D@__crt_stdio_output@@QEAA@QEAU_iobuf@@@Z 000000018005ff70 f i libucrt:output.obj
 0001:0005ef78       ??0?$stream_output_adapter@_W@__crt_stdio_output@@QEAA@QEAU_iobuf@@@Z 000000018005ff78 f i libucrt:output.obj
 0001:0005ef80       ??0?$string_output_adapter@D@__crt_stdio_output@@QEAA@QEAU?$string_output_adapter_context@D@1@@Z 000000018005ff80 f i libucrt:output.obj
 0001:0005ef88       ??0?$string_output_adapter@_W@__crt_stdio_output@@QEAA@QEAU?$string_output_adapter_context@_W@1@@Z 000000018005ff88 f i libucrt:output.obj
 0001:0005ef90       ??0_LocaleUpdate@@QEAA@QEAU__crt_locale_pointers@@@Z 000000018005ff90 f i libucrt:output.obj
 0001:0005f02c       ??0__acrt_stdio_temporary_buffering_guard@@QEAA@QEAU_iobuf@@@Z 000000018006002c f i libucrt:output.obj
 0001:0005f04c       ??0__crt_deferred_errno_cache@@QEAA@XZ 000000018006004c f i libucrt:output.obj
 0001:0005f054       ??0__crt_errno_guard@@QEAA@QEAH@Z 0000000180060054 f i libucrt:output.obj
 0001:0005f064       ??0__crt_stdio_stream@@QEAA@QEAU_iobuf@@@Z 0000000180060064 f i libucrt:output.obj
 0001:0005f06c       ??0formatting_buffer@__crt_stdio_output@@QEAA@XZ 000000018006006c f i libucrt:output.obj
 0001:0005f080       ??1?$common_data@D@__crt_stdio_output@@QEAA@XZ 0000000180060080 f i libucrt:output.obj
 0001:0005f0a4       ??1?$common_data@_W@__crt_stdio_output@@QEAA@XZ 00000001800600a4 f i libucrt:output.obj
 0001:0005f0c8       ??1?$format_validation_base@DV?$stream_output_adapter@D@__crt_stdio_output@@@__crt_stdio_output@@QEAA@XZ 00000001800600c8 f i libucrt:output.obj
 0001:0005f0ec       ??1?$format_validation_base@DV?$string_output_adapter@D@__crt_stdio_output@@@__crt_stdio_output@@QEAA@XZ 00000001800600ec f i libucrt:output.obj
 0001:0005f110       ??1?$format_validation_base@_WV?$stream_output_adapter@_W@__crt_stdio_output@@@__crt_stdio_output@@QEAA@XZ 0000000180060110 f i libucrt:output.obj
 0001:0005f134       ??1?$format_validation_base@_WV?$string_output_adapter@_W@__crt_stdio_output@@@__crt_stdio_output@@QEAA@XZ 0000000180060134 f i libucrt:output.obj
 0001:0005f158       ??1?$output_adapter_data@DV?$stream_output_adapter@D@__crt_stdio_output@@@__crt_stdio_output@@QEAA@XZ 0000000180060158 f i libucrt:output.obj
 0001:0005f17c       ??1?$output_adapter_data@DV?$string_output_adapter@D@__crt_stdio_output@@@__crt_stdio_output@@QEAA@XZ 000000018006017c f i libucrt:output.obj
